 XMPFiles

 Timestamp is 5d582ff0 (Sun Aug 18 00:48:48 2019)

 Preferred load address is 0000000180000000

 Start         Length     Name                   Class
 0001:00000000 00000f50H .text$di                CODE
 0001:00000f50 000a3b70H .text$mn                CODE
 0001:000a4ac0 00000012H .text$mn$00             CODE
 0001:000a4ad2 0000880aH .text$x                 CODE
 0001:000ad2dc 00001470H .text$yd                CODE
 0002:00000000 00000688H .idata$5                DATA
 0002:00000688 00000010H .00cfg                  DATA
 0002:00000698 00000008H .CRT$XCA                DATA
 0002:000006a0 000002e8H .CRT$XCU                DATA
 0002:00000988 00000008H .CRT$XCZ                DATA
 0002:00000990 00000008H .CRT$XIA                DATA
 0002:00000998 00000010H .CRT$XIC                DATA
 0002:000009a8 00000008H .CRT$XIZ                DATA
 0002:000009b0 00000008H .CRT$XLA                DATA
 0002:000009b8 00000008H .CRT$XLZ                DATA
 0002:000009c0 00000008H .CRT$XPA                DATA
 0002:000009c8 00000008H .CRT$XPZ                DATA
 0002:000009d0 00000008H .CRT$XTA                DATA
 0002:000009d8 00000008H .CRT$XTZ                DATA
 0002:000009e0 00024a98H .rdata                  DATA
 0002:00025478 00000028H .rdata$T                DATA
 0002:000254a0 000037e4H .rdata$r                DATA
 0002:00028c84 0000038cH .rdata$zzzdbg           DATA
 0002:00029010 00000008H .rtc$IAA                DATA
 0002:00029018 00000008H .rtc$IZZ                DATA
 0002:00029020 00000008H .rtc$TAA                DATA
 0002:00029028 00000008H .rtc$TZZ                DATA
 0002:00029030 0001cdd0H .xdata                  DATA
 0002:00045e00 000002c0H .xdata$x                DATA
 0002:000460c0 000003d4H .edata                  DATA
 0002:00046494 00000104H .idata$2                DATA
 0002:00046598 00000018H .idata$3                DATA
 0002:000465b0 00000688H .idata$4                DATA
 0002:00046c38 00001170H .idata$6                DATA
 0003:00000000 000012c0H .data                   DATA
 0003:000012c0 00001530H .data$r                 DATA
 0003:000027f0 00020d80H .bss                    DATA
 0004:00000000 00007158H .pdata                  DATA
 0005:00000000 00000004H .tls                    DATA
 0005:00000004 00000004H .tls$                   DATA
 0005:00000008 00000001H .tls$ZZZ                DATA
 0006:00000000 00000038H .gfids$y                DATA
 0007:00000000 000000a0H .rsrc$01                DATA
 0007:000000a0 00000480H .rsrc$02                DATA

  Address         Publics by Value              Rva+Base               Lib:Object

 0000:00000000       __guard_iat_count          0000000000000000     <absolute>
 0000:00000000       __dynamic_value_reloc_table 0000000000000000     <absolute>
 0000:00000000       __guard_longjmp_table      0000000000000000     <absolute>
 0000:00000000       __guard_longjmp_count      0000000000000000     <absolute>
 0000:00000000       __guard_iat_table          0000000000000000     <absolute>
 0000:00000000       __guard_fids_count         0000000000000000     <absolute>
 0000:00000000       ___safe_se_handler_table   0000000000000000     <absolute>
 0000:00000000       ___safe_se_handler_count   0000000000000000     <absolute>
 0000:00000000       __guard_fids_table         0000000000000000     <absolute>
 0000:00000100       __guard_flags              0000000000000100     <absolute>
 0000:00000000       __ImageBase                0000000180000000     <linker-defined>
 0001:00000f50       adler32                    0000000180001f50 f   adler32.obj
 0001:000013ac       deflateInit2_              00000001800023ac f   deflate.obj
 0001:00001590       deflateReset               0000000180002590 f   deflate.obj
 0001:00001714       deflate                    0000000180002714 f   deflate.obj
 0001:00001bc8       deflateEnd                 0000000180002bc8 f   deflate.obj
 0001:00002bb8       inflate_fast               0000000180003bb8 f   inffast.obj
 0001:00002ff8       inflateReset               0000000180003ff8 f   inflate.obj
 0001:00003040       inflateInit2_              0000000180004040 f   inflate.obj
 0001:00003204       inflate                    0000000180004204 f   inflate.obj
 0001:00004630       inflateEnd                 0000000180005630 f   inflate.obj
 0001:0000467c       inflate_table              000000018000567c f   inftrees.obj
 0001:00005a3c       _tr_stored_block           0000000180006a3c f   trees.obj
 0001:00005b5c       _tr_align                  0000000180006b5c f   trees.obj
 0001:00005d84       _tr_flush_block            0000000180006d84 f   trees.obj
 0001:00006590       zcalloc                    0000000180007590 f   zutil.obj
 0001:000065a0       zcfree                     00000001800075a0 f   zutil.obj
 0001:000065ac       ?NoteXMPInsertion@InDesign_MetaHandler@@MEAAXPEAVXMP_IO@@@Z 00000001800075ac f i InDesign_Handler.obj
 0001:000065ac       ?SetProgressCallback@XMPFileHandler@@UEAAXPEAUCallbackInfo@XMP_ProgressTracker@@@Z 00000001800075ac f i AIFF_Handler.obj
 0001:000065ac       ??3@YAXPEAX0@Z             00000001800075ac f i IReconcile.obj
 0001:000065ac       _guard_check_icall_nop     00000001800075ac f i MSVCRT:guard_support.obj
 0001:000065ac       ?SetErrorCallback@XMPFileHandler@@UEAAXUErrorCallbackBox@@@Z 00000001800075ac f i AIFF_Handler.obj
 0001:000065ac       ?FillAssociatedResources@XDCAM_MetaHandler@@UEAAXPEAV?$vector@V?$basic_string@DU?$char_traits@D@std@@V?$allocator@D@2@@std@@V?$allocator@V?$basic_string@DU?$char_traits@D@std@@V?$allocator@D@2@@std@@@2@@std@@@Z 00000001800075ac f i XDCAM_Handler.obj
 0001:000065ac       ?CreateDigest@P2_Clip@@UEAAXPEAV?$basic_string@DU?$char_traits@D@std@@V?$allocator@D@2@@std@@@Z 00000001800075ac f i P2_Support.obj
 0001:000065ac       ?NoteXMPRemoval@InDesign_MetaHandler@@MEAAXPEAVXMP_IO@@@Z 00000001800075ac f i InDesign_Handler.obj
 0001:000065ac       ?CaptureFileEnding@InDesign_MetaHandler@@MEAAXPEAVXMP_IO@@@Z 00000001800075ac f i InDesign_Handler.obj
 0001:000065ac       ?valueModify@IMetadata@@MEAAXKPEAVValueObject@@@Z 00000001800075ac f i IMetadata.cpp.obj
 0001:000065ac       ?SetPathVariables@XDCAM_MetaHandler@@MEAAXAEBV?$basic_string@DU?$char_traits@D@std@@V?$allocator@D@2@@std@@@Z 00000001800075ac f i XDCAM_Handler.obj
 0001:000065b0       ?_Deallocate@std@@YAXPEAX_K1@Z 00000001800075b0 f i IReconcile.obj
 0001:00006620       ??1?$TValueObject@J@@UEAA@XZ 0000000180007620 f i IReconcile.obj
 0001:00006620       ??1?$TValueObject@_K@@UEAA@XZ 0000000180007620 f i IReconcile.obj
 0001:00006620       ??1?$TValueObject@G@@UEAA@XZ 0000000180007620 f i IReconcile.obj
 0001:00006620       ??1ValueObject@@UEAA@XZ    0000000180007620 f i IReconcile.obj
 0001:00006620       ??1?$TValueObject@K@@UEAA@XZ 0000000180007620 f i IReconcile.obj
 0001:00006620       ??1?$TValueObject@_N@@UEAA@XZ 0000000180007620 f i IReconcile.obj
 0001:0000662c       ??_GValueObject@@UEAAPEAXI@Z 000000018000762c f i IReconcile.obj
 0001:0000662c       ??_EValueObject@@UEAAPEAXI@Z 000000018000762c f i * CIL library *:* CIL module *
 0001:00006658       ??_GBigEndian@@UEAAPEAXI@Z 0000000180007658 f i AIFF_Handler.obj
 0001:00006658       ??_GIEndian@@UEAAPEAXI@Z   0000000180007658 f i IReconcile.obj
 0001:00006658       ??_EBigEndian@@UEAAPEAXI@Z 0000000180007658 f i * CIL library *:* CIL module *
 0001:00006658       ??_GLittleEndian@@UEAAPEAXI@Z 0000000180007658 f i IReconcile.obj
 0001:00006658       ??_EIEndian@@UEAAPEAXI@Z   0000000180007658 f i * CIL library *:* CIL module *
 0001:00006658       ??_ELittleEndian@@UEAAPEAXI@Z 0000000180007658 f i * CIL library *:* CIL module *
 0001:00006684       ?getInstance@LittleEndian@@SAAEBV1@XZ 0000000180007684 f i IReconcile.obj
 0001:000066f4       ?getUns16@LittleEndian@@UEBAGPEBX@Z 00000001800076f4 f i IReconcile.obj
 0001:000066f8       ?getUns32@LittleEndian@@UEBAKPEBX@Z 00000001800076f8 f i IReconcile.obj
 0001:000066fc       ?getUns64@LittleEndian@@UEBA_KPEBX@Z 00000001800076fc f i IReconcile.obj
 0001:00006700       ?getFloat@LittleEndian@@UEBAMPEBX@Z 0000000180007700 f i IReconcile.obj
 0001:00006710       ?getDouble@LittleEndian@@UEBANPEBX@Z 0000000180007710 f i IReconcile.obj
 0001:00006720       ?putUns16@LittleEndian@@UEBAXGPEAX@Z 0000000180007720 f i IReconcile.obj
 0001:00006728       ?putUns32@LittleEndian@@UEBAXKPEAX@Z 0000000180007728 f i IReconcile.obj
 0001:0000672c       ?putUns64@LittleEndian@@UEBAX_KPEAX@Z 000000018000772c f i IReconcile.obj
 0001:00006730       ?putFloat@LittleEndian@@UEBAXMPEAX@Z 0000000180007730 f i IReconcile.obj
 0001:00006738       ?putDouble@LittleEndian@@UEBAXNPEAX@Z 0000000180007738 f i IReconcile.obj
 0001:00006740       ?importNativeToXMP@IReconcile@@KA_NAEAV?$TXMPMeta@V?$basic_string@DU?$char_traits@D@std@@V?$allocator@D@2@@std@@@@AEBVIMetadata@@PEBUMetadataPropertyInfo@@_N@Z 0000000180007740 f   IReconcile.obj
 0001:00006b9c       ?exportXMPToNative@IReconcile@@KA_NAEAVIMetadata@@AEAV?$TXMPMeta@V?$basic_string@DU?$char_traits@D@std@@V?$allocator@D@2@@std@@@@PEBUMetadataPropertyInfo@@PEAV?$vector@U?$pair@PEBDPEBD@std@@V?$allocator@U?$pair@PEBDPEBD@std@@@2@@std@@@Z 0000000180007b9c f   IReconcile.obj
 0001:000071f0       ?convertToASCII@IReconcile@@KAXAEBV?$basic_string@DU?$char_traits@D@std@@V?$allocator@D@2@@std@@AEAV23@@Z 00000001800081f0 f   IReconcile.obj
 0001:000072fc       ?push_back@?$vector@U?$pair@PEBDPEBD@std@@V?$allocator@U?$pair@PEBDPEBD@std@@@2@@std@@QEAAX$$QEAU?$pair@PEBDPEBD@2@@Z 00000001800082fc f i IReconcile.obj
 0001:0000744c       ?compare@?$basic_string@DU?$char_traits@D@std@@V?$allocator@D@2@@std@@QEBAHPEBD@Z 000000018000844c f i IReconcile.obj
 0001:000074d4       ?reserve@?$basic_string@DU?$char_traits@D@std@@V?$allocator@D@2@@std@@QEAAX_K@Z 00000001800084d4 f i IReconcile.obj
 0001:0000751c       ?append@?$basic_string@DU?$char_traits@D@std@@V?$allocator@D@2@@std@@QEAAAEAV12@_KD@Z 000000018000851c f i IReconcile.obj
 0001:00007614       ??1?$basic_string@DU?$char_traits@D@std@@V?$allocator@D@2@@std@@QEAA@XZ 0000000180008614 f i IReconcile.obj
 0001:00007664       ??0?$basic_string@DU?$char_traits@D@std@@V?$allocator@D@2@@std@@QEAA@XZ 0000000180008664 f i IReconcile.obj
 0001:00007688       ?_Tidy@?$basic_string@DU?$char_traits@D@std@@V?$allocator@D@2@@std@@QEAAX_N_K@Z 0000000180008688 f i IReconcile.obj
 0001:000076f8       ?_Grow@?$basic_string@DU?$char_traits@D@std@@V?$allocator@D@2@@std@@QEAA_N_K_N@Z 00000001800086f8 f i IReconcile.obj
 0001:000077cc       ?assign@?$basic_string@DU?$char_traits@D@std@@V?$allocator@D@2@@std@@QEAAAEAV12@AEBV12@_K1@Z 00000001800087cc f i IReconcile.obj
 0001:000078f0       ?_Reallocate@?$vector@USpaceInfo@@V?$allocator@USpaceInfo@@@std@@@std@@IEAAX_K@Z 00000001800088f0 f i MPEG4_Handler.obj
 0001:000078f0       ?_Reallocate@?$vector@U?$pair@PEBDPEBD@std@@V?$allocator@U?$pair@PEBDPEBD@std@@@2@@std@@IEAAX_K@Z 00000001800088f0 f i IReconcile.obj
 0001:000079cc       ?_Copy@?$basic_string@DU?$char_traits@D@std@@V?$allocator@D@2@@std@@QEAAX_K0@Z 00000001800089cc f i IReconcile.obj
 0001:00007b18       ?erase@?$basic_string@DU?$char_traits@D@std@@V?$allocator@D@2@@std@@QEAAAEAV12@_K0@Z 0000000180008b18 f i IReconcile.obj
 0001:00007bb8       ??$getValue@V?$basic_string@DU?$char_traits@D@std@@V?$allocator@D@2@@std@@@IMetadata@@QEBAAEBV?$basic_string@DU?$char_traits@D@std@@V?$allocator@D@2@@std@@K@Z 0000000180008bb8 f i IReconcile.obj
 0001:00007c78       ??$getValue@_K@IMetadata@@QEBAAEB_KK@Z 0000000180008c78 f i IReconcile.obj
 0001:00007d38       ??$getValue@K@IMetadata@@QEBAAEBKK@Z 0000000180008d38 f i IReconcile.obj
 0001:00007df8       ??$getValue@J@IMetadata@@QEBAAEBJK@Z 0000000180008df8 f i IReconcile.obj
 0001:00007eb8       ??$getValue@G@IMetadata@@QEBAAEBGK@Z 0000000180008eb8 f i IReconcile.obj
 0001:00007f78       ??$getValue@_N@IMetadata@@QEBAAEB_NK@Z 0000000180008f78 f i IReconcile.obj
 0001:00008038       ??$setValue@V?$basic_string@DU?$char_traits@D@std@@V?$allocator@D@2@@std@@@IMetadata@@QEAAXKAEBV?$basic_string@DU?$char_traits@D@std@@V?$allocator@D@2@@std@@@Z 0000000180009038 f i IReconcile.obj
 0001:000082d0       ??$setValue@_K@IMetadata@@QEAAXKAEB_K@Z 00000001800092d0 f i IReconcile.obj
 0001:00008480       ??$setValue@K@IMetadata@@QEAAXKAEBK@Z 0000000180009480 f i IReconcile.obj
 0001:00008628       ??$setValue@J@IMetadata@@QEAAXKAEBJ@Z 0000000180009628 f i IReconcile.obj
 0001:000087d0       ??$setValue@G@IMetadata@@QEAAXKAEBG@Z 00000001800097d0 f i IReconcile.obj
 0001:00008984       ??$setValue@_N@IMetadata@@QEAAXKAEB_N@Z 0000000180009984 f i IReconcile.obj
 0001:00008b2c       ?setValue@?$TValueObject@V?$basic_string@DU?$char_traits@D@std@@V?$allocator@D@2@@std@@@@QEAAXAEBV?$basic_string@DU?$char_traits@D@std@@V?$allocator@D@2@@std@@@Z 0000000180009b2c f i IReconcile.obj
 0001:00008bd8       ??1?$TValueObject@V?$basic_string@DU?$char_traits@D@std@@V?$allocator@D@2@@std@@@@UEAA@XZ 0000000180009bd8 f i IReconcile.obj
 0001:00008c48       ??A?$map@KPEAVValueObject@@U?$less@K@std@@V?$allocator@U?$pair@$$CBKPEAVValueObject@@@std@@@3@@std@@QEAAAEAPEAVValueObject@@AEBK@Z 0000000180009c48 f i IReconcile.obj
 0001:00008c48       ??A?$map@KPEAVID3v2Frame@ID3_Support@@U?$less@K@std@@V?$allocator@U?$pair@$$CBKPEAVID3v2Frame@ID3_Support@@@std@@@4@@std@@QEAAAEAPEAVID3v2Frame@ID3_Support@@AEBK@Z 0000000180009c48 f i MP3_Handler.obj
 0001:00008ccc       ??_E?$TValueObject@_K@@UEAAPEAXI@Z 0000000180009ccc f i * CIL library *:* CIL module *
 0001:00008ccc       ??_E?$TValueObject@_N@@UEAAPEAXI@Z 0000000180009ccc f i * CIL library *:* CIL module *
 0001:00008ccc       ??_G?$TValueObject@_K@@UEAAPEAXI@Z 0000000180009ccc f i IReconcile.obj
 0001:00008ccc       ??_E?$TValueObject@J@@UEAAPEAXI@Z 0000000180009ccc f i * CIL library *:* CIL module *
 0001:00008ccc       ??_G?$TValueObject@_N@@UEAAPEAXI@Z 0000000180009ccc f i IReconcile.obj
 0001:00008ccc       ??_G?$TValueObject@J@@UEAAPEAXI@Z 0000000180009ccc f i IReconcile.obj
 0001:00008ccc       ??_G?$TValueObject@G@@UEAAPEAXI@Z 0000000180009ccc f i IReconcile.obj
 0001:00008ccc       ??_E?$TValueObject@K@@UEAAPEAXI@Z 0000000180009ccc f i * CIL library *:* CIL module *
 0001:00008ccc       ??_G?$TValueObject@K@@UEAAPEAXI@Z 0000000180009ccc f i IReconcile.obj
 0001:00008ccc       ??_E?$TValueObject@G@@UEAAPEAXI@Z 0000000180009ccc f i * CIL library *:* CIL module *
 0001:00008cf8       ??_E?$TValueObject@V?$basic_string@DU?$char_traits@D@std@@V?$allocator@D@2@@std@@@@UEAAPEAXI@Z 0000000180009cf8 f i * CIL library *:* CIL module *
 0001:00008cf8       ??_G?$TValueObject@V?$basic_string@DU?$char_traits@D@std@@V?$allocator@D@2@@std@@@@UEAAPEAXI@Z 0000000180009cf8 f i IReconcile.obj
 0001:00008d8c       ??$?8DU?$char_traits@D@std@@V?$allocator@D@1@@std@@YA_NAEBV?$basic_string@DU?$char_traits@D@std@@V?$allocator@D@2@@0@0@Z 0000000180009d8c f i IReconcile.obj
 0001:00008df4       ??$_Uninitialized_move_al_unchecked1@PEAU?$pair@PEBDPEBD@std@@PEAU12@V?$allocator@U?$pair@PEBDPEBD@std@@@2@@std@@YAPEAU?$pair@PEBDPEBD@0@PEAU10@00AEAU?$_Wrap_alloc@V?$allocator@U?$pair@PEBDPEBD@std@@@std@@@0@U_General_ptr_iterator_tag@0@U_Any_tag@0@@Z 0000000180009df4 f i IReconcile.obj
 0001:00008df4       ??$_Uninitialized_move_al_unchecked1@PEAUSpaceInfo@@PEAU1@V?$allocator@USpaceInfo@@@std@@@std@@YAPEAUSpaceInfo@@PEAU1@00AEAU?$_Wrap_alloc@V?$allocator@USpaceInfo@@@std@@@0@U_General_ptr_iterator_tag@0@U_Any_tag@0@@Z 0000000180009df4 f i MPEG4_Handler.obj
 0001:00008e14       ??$_Buynode@AEBUpiecewise_construct_t@std@@V?$tuple@AEBK@2@V?$tuple@$$V@2@@?$_Tree_comp_alloc@V?$_Tmap_traits@KPEAUHostAPI@XMP_PLUGIN@@U?$less@K@std@@V?$allocator@U?$pair@$$CBKPEAUHostAPI@XMP_PLUGIN@@@std@@@4@$0A@@std@@@std@@QEAAPEAU?$_Tree_node@U?$pair@$$CBKPEAUHostAPI@XMP_PLUGIN@@@std@@PEAX@1@AEBUpiecewise_construct_t@1@$$QEAV?$tuple@AEBK@1@$$QEAV?$tuple@$$V@1@@Z 0000000180009e14 f i PluginManager.obj
 0001:00008e14       ??$_Buynode@AEBUpiecewise_construct_t@std@@V?$tuple@AEBK@2@V?$tuple@$$V@2@@?$_Tree_comp_alloc@V?$_Tmap_traits@KPEAVID3v2Frame@ID3_Support@@U?$less@K@std@@V?$allocator@U?$pair@$$CBKPEAVID3v2Frame@ID3_Support@@@std@@@4@$0A@@std@@@std@@QEAAPEAU?$_Tree_node@U?$pair@$$CBKPEAVID3v2Frame@ID3_Support@@@std@@PEAX@1@AEBUpiecewise_construct_t@1@$$QEAV?$tuple@AEBK@1@$$QEAV?$tuple@$$V@1@@Z 0000000180009e14 f i MP3_Handler.obj
 0001:00008e14       ??$_Buynode@AEBUpiecewise_construct_t@std@@V?$tuple@AEBK@2@V?$tuple@$$V@2@@?$_Tree_comp_alloc@V?$_Tmap_traits@KPEAVValueObject@@U?$less@K@std@@V?$allocator@U?$pair@$$CBKPEAVValueObject@@@std@@@3@$0A@@std@@@std@@QEAAPEAU?$_Tree_node@U?$pair@$$CBKPEAVValueObject@@@std@@PEAX@1@AEBUpiecewise_construct_t@1@$$QEAV?$tuple@AEBK@1@$$QEAV?$tuple@$$V@1@@Z 0000000180009e14 f i IReconcile.obj
 0001:00008e48       ??$_Insert_hint@AEAU?$pair@$$CBKPEAVID3v2Frame@ID3_Support@@@std@@PEAU?$_Tree_node@U?$pair@$$CBKPEAVID3v2Frame@ID3_Support@@@std@@PEAX@2@@?$_Tree@V?$_Tmap_traits@KPEAVID3v2Frame@ID3_Support@@U?$less@K@std@@V?$allocator@U?$pair@$$CBKPEAVID3v2Frame@ID3_Support@@@std@@@4@$0A@@std@@@std@@IEAA?AV?$_Tree_iterator@V?$_Tree_val@U?$_Tree_simple_types@U?$pair@$$CBKPEAVID3v2Frame@ID3_Support@@@std@@@std@@@std@@@1@V?$_Tree_const_iterator@V?$_Tree_val@U?$_Tree_simple_types@U?$pair@$$CBKPEAVID3v2Frame@ID3_Support@@@std@@@std@@@std@@@1@AEAU?$pair@$$CBKPEAVID3v2Frame@ID3_Support@@@1@PEAU?$_Tree_node@U?$pair@$$CBKPEAVID3v2Frame@ID3_Support@@@std@@PEAX@1@@Z 0000000180009e48 f i MP3_Handler.obj
 0001:00008e48       ??$_Insert_hint@AEAU?$pair@$$CBKPEAUHostAPI@XMP_PLUGIN@@@std@@PEAU?$_Tree_node@U?$pair@$$CBKPEAUHostAPI@XMP_PLUGIN@@@std@@PEAX@2@@?$_Tree@V?$_Tmap_traits@KPEAUHostAPI@XMP_PLUGIN@@U?$less@K@std@@V?$allocator@U?$pair@$$CBKPEAUHostAPI@XMP_PLUGIN@@@std@@@4@$0A@@std@@@std@@IEAA?AV?$_Tree_iterator@V?$_Tree_val@U?$_Tree_simple_types@U?$pair@$$CBKPEAUHostAPI@XMP_PLUGIN@@@std@@@std@@@std@@@1@V?$_Tree_const_iterator@V?$_Tree_val@U?$_Tree_simple_types@U?$pair@$$CBKPEAUHostAPI@XMP_PLUGIN@@@std@@@std@@@std@@@1@AEAU?$pair@$$CBKPEAUHostAPI@XMP_PLUGIN@@@1@PEAU?$_Tree_node@U?$pair@$$CBKPEAUHostAPI@XMP_PLUGIN@@@std@@PEAX@1@@Z 0000000180009e48 f i PluginManager.obj
 0001:00008e48       ??$_Insert_hint@AEAU?$pair@$$CBKPEAVValueObject@@@std@@PEAU?$_Tree_node@U?$pair@$$CBKPEAVValueObject@@@std@@PEAX@2@@?$_Tree@V?$_Tmap_traits@KPEAVValueObject@@U?$less@K@std@@V?$allocator@U?$pair@$$CBKPEAVValueObject@@@std@@@3@$0A@@std@@@std@@IEAA?AV?$_Tree_iterator@V?$_Tree_val@U?$_Tree_simple_types@U?$pair@$$CBKPEAVValueObject@@@std@@@std@@@std@@@1@V?$_Tree_const_iterator@V?$_Tree_val@U?$_Tree_simple_types@U?$pair@$$CBKPEAVValueObject@@@std@@@std@@@std@@@1@AEAU?$pair@$$CBKPEAVValueObject@@@1@PEAU?$_Tree_node@U?$pair@$$CBKPEAVValueObject@@@std@@PEAX@1@@Z 0000000180009e48 f i IReconcile.obj
 0001:00009064       ?_Buynode0@?$_Tree_comp_alloc@V?$_Tmap_traits@KPEAVValueChunk@RIFF@@U?$less@K@std@@V?$allocator@U?$pair@$$CBKPEAVValueChunk@RIFF@@@std@@@4@$0A@@std@@@std@@QEAAPEAU?$_Tree_node@U?$pair@$$CBKPEAVValueChunk@RIFF@@@std@@PEAX@2@XZ 000000018000a064 f i RIFF.obj
 0001:00009064       ?_Buynode0@?$_Tree_comp_alloc@V?$_Tmap_traits@KPEAVID3v2Frame@ID3_Support@@U?$less@K@std@@V?$allocator@U?$pair@$$CBKPEAVID3v2Frame@ID3_Support@@@std@@@4@$0A@@std@@@std@@QEAAPEAU?$_Tree_node@U?$pair@$$CBKPEAVID3v2Frame@ID3_Support@@@std@@PEAX@2@XZ 000000018000a064 f i MP3_Handler.obj
 0001:00009064       ?_Buynode0@?$_Tree_comp_alloc@V?$_Tmap_traits@_KPEAULayoutInfo@@U?$less@_K@std@@V?$allocator@U?$pair@$$CB_KPEAULayoutInfo@@@std@@@3@$0A@@std@@@std@@QEAAPEAU?$_Tree_node@U?$pair@$$CB_KPEAULayoutInfo@@@std@@PEAX@2@XZ 000000018000a064 f i MPEG4_Handler.obj
 0001:00009064       ?_Buynode0@?$_Tree_comp_alloc@V?$_Tmap_traits@KPEAUHostAPI@XMP_PLUGIN@@U?$less@K@std@@V?$allocator@U?$pair@$$CBKPEAUHostAPI@XMP_PLUGIN@@@std@@@4@$0A@@std@@@std@@QEAAPEAU?$_Tree_node@U?$pair@$$CBKPEAUHostAPI@XMP_PLUGIN@@@std@@PEAX@2@XZ 000000018000a064 f i PluginManager.obj
 0001:00009064       ?_Buynode0@?$_Tree_comp_alloc@V?$_Tmap_traits@KPEAVValueObject@@U?$less@K@std@@V?$allocator@U?$pair@$$CBKPEAVValueObject@@@std@@@3@$0A@@std@@@std@@QEAAPEAU?$_Tree_node@U?$pair@$$CBKPEAVValueObject@@@std@@PEAX@2@XZ 000000018000a064 f i IReconcile.obj
 0001:00009064       ?_Buynode0@?$_Tree_comp_alloc@V?$_Tmap_traits@PEBDPEBDVCharStarLess@@V?$allocator@U?$pair@QEBDPEBD@std@@@std@@$0A@@std@@@std@@QEAAPEAU?$_Tree_node@U?$pair@QEBDPEBD@std@@PEAX@2@XZ 000000018000a064 f i ID3_Support.obj
 0001:00009064       ?_Buynode0@?$_Tree_comp_alloc@V?$_Tmap_traits@PEAXPEAVFileHandlerInstance@XMP_PLUGIN@@U?$less@PEAX@std@@V?$allocator@U?$pair@QEAXPEAVFileHandlerInstance@XMP_PLUGIN@@@std@@@4@$0A@@std@@@std@@QEAAPEAU?$_Tree_node@U?$pair@QEAXPEAVFileHandlerInstance@XMP_PLUGIN@@@std@@PEAX@2@XZ 000000018000a064 f i PluginManager.obj
 0001:000090ac       ??$_Insert_at@AEAU?$pair@$$CBKPEAVID3v2Frame@ID3_Support@@@std@@PEAU?$_Tree_node@U?$pair@$$CBKPEAVID3v2Frame@ID3_Support@@@std@@PEAX@2@@?$_Tree@V?$_Tmap_traits@KPEAVID3v2Frame@ID3_Support@@U?$less@K@std@@V?$allocator@U?$pair@$$CBKPEAVID3v2Frame@ID3_Support@@@std@@@4@$0A@@std@@@std@@IEAA?AV?$_Tree_iterator@V?$_Tree_val@U?$_Tree_simple_types@U?$pair@$$CBKPEAVID3v2Frame@ID3_Support@@@std@@@std@@@std@@@1@_NPEAU?$_Tree_node@U?$pair@$$CBKPEAVID3v2Frame@ID3_Support@@@std@@PEAX@1@AEAU?$pair@$$CBKPEAVID3v2Frame@ID3_Support@@@1@1@Z 000000018000a0ac f i MP3_Handler.obj
 0001:000090ac       ??$_Insert_at@AEAU?$pair@QEAXPEAVFileHandlerInstance@XMP_PLUGIN@@@std@@PEAU?$_Tree_node@U?$pair@QEAXPEAVFileHandlerInstance@XMP_PLUGIN@@@std@@PEAX@2@@?$_Tree@V?$_Tmap_traits@PEAXPEAVFileHandlerInstance@XMP_PLUGIN@@U?$less@PEAX@std@@V?$allocator@U?$pair@QEAXPEAVFileHandlerInstance@XMP_PLUGIN@@@std@@@4@$0A@@std@@@std@@IEAA?AV?$_Tree_iterator@V?$_Tree_val@U?$_Tree_simple_types@U?$pair@QEAXPEAVFileHandlerInstance@XMP_PLUGIN@@@std@@@std@@@std@@@1@_NPEAU?$_Tree_node@U?$pair@QEAXPEAVFileHandlerInstance@XMP_PLUGIN@@@std@@PEAX@1@AEAU?$pair@QEAXPEAVFileHandlerInstance@XMP_PLUGIN@@@1@1@Z 000000018000a0ac f i PluginManager.obj
 0001:000090ac       ??$_Insert_at@AEAU?$pair@QEBDPEBD@std@@PEAU?$_Tree_node@U?$pair@QEBDPEBD@std@@PEAX@2@@?$_Tree@V?$_Tmap_traits@PEBDPEBDVCharStarLess@@V?$allocator@U?$pair@QEBDPEBD@std@@@std@@$0A@@std@@@std@@IEAA?AV?$_Tree_iterator@V?$_Tree_val@U?$_Tree_simple_types@U?$pair@QEBDPEBD@std@@@std@@@std@@@1@_NPEAU?$_Tree_node@U?$pair@QEBDPEBD@std@@PEAX@1@AEAU?$pair@QEBDPEBD@1@1@Z 000000018000a0ac f i ID3_Support.obj
 0001:000090ac       ??$_Insert_at@AEAU?$pair@$$CBKPEAUHostAPI@XMP_PLUGIN@@@std@@PEAU?$_Tree_node@U?$pair@$$CBKPEAUHostAPI@XMP_PLUGIN@@@std@@PEAX@2@@?$_Tree@V?$_Tmap_traits@KPEAUHostAPI@XMP_PLUGIN@@U?$less@K@std@@V?$allocator@U?$pair@$$CBKPEAUHostAPI@XMP_PLUGIN@@@std@@@4@$0A@@std@@@std@@IEAA?AV?$_Tree_iterator@V?$_Tree_val@U?$_Tree_simple_types@U?$pair@$$CBKPEAUHostAPI@XMP_PLUGIN@@@std@@@std@@@std@@@1@_NPEAU?$_Tree_node@U?$pair@$$CBKPEAUHostAPI@XMP_PLUGIN@@@std@@PEAX@1@AEAU?$pair@$$CBKPEAUHostAPI@XMP_PLUGIN@@@1@1@Z 000000018000a0ac f i PluginManager.obj
 0001:000090ac       ??$_Insert_at@AEAU?$pair@$$CBKPEAVValueChunk@RIFF@@@std@@PEAU?$_Tree_node@U?$pair@$$CBKPEAVValueChunk@RIFF@@@std@@PEAX@2@@?$_Tree@V?$_Tmap_traits@KPEAVValueChunk@RIFF@@U?$less@K@std@@V?$allocator@U?$pair@$$CBKPEAVValueChunk@RIFF@@@std@@@4@$0A@@std@@@std@@IEAA?AV?$_Tree_iterator@V?$_Tree_val@U?$_Tree_simple_types@U?$pair@$$CBKPEAVValueChunk@RIFF@@@std@@@std@@@std@@@1@_NPEAU?$_Tree_node@U?$pair@$$CBKPEAVValueChunk@RIFF@@@std@@PEAX@1@AEAU?$pair@$$CBKPEAVValueChunk@RIFF@@@1@1@Z 000000018000a0ac f i RIFF.obj
 0001:000090ac       ??$_Insert_at@AEAU?$pair@$$CBKPEAVValueObject@@@std@@PEAU?$_Tree_node@U?$pair@$$CBKPEAVValueObject@@@std@@PEAX@2@@?$_Tree@V?$_Tmap_traits@KPEAVValueObject@@U?$less@K@std@@V?$allocator@U?$pair@$$CBKPEAVValueObject@@@std@@@3@$0A@@std@@@std@@IEAA?AV?$_Tree_iterator@V?$_Tree_val@U?$_Tree_simple_types@U?$pair@$$CBKPEAVValueObject@@@std@@@std@@@std@@@1@_NPEAU?$_Tree_node@U?$pair@$$CBKPEAVValueObject@@@std@@PEAX@1@AEAU?$pair@$$CBKPEAVValueObject@@@1@1@Z 000000018000a0ac f i IReconcile.obj
 0001:00009330       ??$_Insert_nohint@AEAU?$pair@$$CBKPEAVValueChunk@RIFF@@@std@@PEAU?$_Tree_node@U?$pair@$$CBKPEAVValueChunk@RIFF@@@std@@PEAX@2@@?$_Tree@V?$_Tmap_traits@KPEAVValueChunk@RIFF@@U?$less@K@std@@V?$allocator@U?$pair@$$CBKPEAVValueChunk@RIFF@@@std@@@4@$0A@@std@@@std@@IEAA?AU?$pair@V?$_Tree_iterator@V?$_Tree_val@U?$_Tree_simple_types@U?$pair@$$CBKPEAVValueChunk@RIFF@@@std@@@std@@@std@@@std@@_N@1@_NAEAU?$pair@$$CBKPEAVValueChunk@RIFF@@@1@PEAU?$_Tree_node@U?$pair@$$CBKPEAVValueChunk@RIFF@@@std@@PEAX@1@@Z 000000018000a330 f i RIFF.obj
 0001:00009330       ??$_Insert_nohint@AEAU?$pair@$$CBKPEAUHostAPI@XMP_PLUGIN@@@std@@PEAU?$_Tree_node@U?$pair@$$CBKPEAUHostAPI@XMP_PLUGIN@@@std@@PEAX@2@@?$_Tree@V?$_Tmap_traits@KPEAUHostAPI@XMP_PLUGIN@@U?$less@K@std@@V?$allocator@U?$pair@$$CBKPEAUHostAPI@XMP_PLUGIN@@@std@@@4@$0A@@std@@@std@@IEAA?AU?$pair@V?$_Tree_iterator@V?$_Tree_val@U?$_Tree_simple_types@U?$pair@$$CBKPEAUHostAPI@XMP_PLUGIN@@@std@@@std@@@std@@@std@@_N@1@_NAEAU?$pair@$$CBKPEAUHostAPI@XMP_PLUGIN@@@1@PEAU?$_Tree_node@U?$pair@$$CBKPEAUHostAPI@XMP_PLUGIN@@@std@@PEAX@1@@Z 000000018000a330 f i PluginManager.obj
 0001:00009330       ??$_Insert_nohint@AEAU?$pair@$$CBKPEAVValueObject@@@std@@PEAU?$_Tree_node@U?$pair@$$CBKPEAVValueObject@@@std@@PEAX@2@@?$_Tree@V?$_Tmap_traits@KPEAVValueObject@@U?$less@K@std@@V?$allocator@U?$pair@$$CBKPEAVValueObject@@@std@@@3@$0A@@std@@@std@@IEAA?AU?$pair@V?$_Tree_iterator@V?$_Tree_val@U?$_Tree_simple_types@U?$pair@$$CBKPEAVValueObject@@@std@@@std@@@std@@@std@@_N@1@_NAEAU?$pair@$$CBKPEAVValueObject@@@1@PEAU?$_Tree_node@U?$pair@$$CBKPEAVValueObject@@@std@@PEAX@1@@Z 000000018000a330 f i IReconcile.obj
 0001:00009330       ??$_Insert_nohint@AEAU?$pair@$$CBKPEAVID3v2Frame@ID3_Support@@@std@@PEAU?$_Tree_node@U?$pair@$$CBKPEAVID3v2Frame@ID3_Support@@@std@@PEAX@2@@?$_Tree@V?$_Tmap_traits@KPEAVID3v2Frame@ID3_Support@@U?$less@K@std@@V?$allocator@U?$pair@$$CBKPEAVID3v2Frame@ID3_Support@@@std@@@4@$0A@@std@@@std@@IEAA?AU?$pair@V?$_Tree_iterator@V?$_Tree_val@U?$_Tree_simple_types@U?$pair@$$CBKPEAVID3v2Frame@ID3_Support@@@std@@@std@@@std@@@std@@_N@1@_NAEAU?$pair@$$CBKPEAVID3v2Frame@ID3_Support@@@1@PEAU?$_Tree_node@U?$pair@$$CBKPEAVID3v2Frame@ID3_Support@@@std@@PEAX@1@@Z 000000018000a330 f i MP3_Handler.obj
 0001:00009454       ??1MetadataSet@@QEAA@XZ    000000018000a454 f   MetadataSet.obj
 0001:000094a4       ?append@MetadataSet@@QEAAXPEAVIMetadata@@@Z 000000018000a4a4 f   MetadataSet.obj
 0001:00009624       ?_Reallocate@?$vector@PEAVID3v2Frame@ID3_Support@@V?$allocator@PEAVID3v2Frame@ID3_Support@@@std@@@std@@IEAAX_K@Z 000000018000a624 f i MP3_Handler.obj
 0001:00009624       ?_Reallocate@?$vector@PEAVXML_Node@@V?$allocator@PEAVXML_Node@@@std@@@std@@IEAAX_K@Z 000000018000a624 f i XML_Node.obj
 0001:00009624       ?_Reallocate@?$vector@PEAVChunk@IFF_RIFF@@V?$allocator@PEAVChunk@IFF_RIFF@@@std@@@std@@IEAAX_K@Z 000000018000a624 f i Chunk.obj
 0001:00009624       ?_Reallocate@?$vector@PEAVChunk@RIFF@@V?$allocator@PEAVChunk@RIFF@@@std@@@std@@IEAAX_K@Z 000000018000a624 f i RIFF.obj
 0001:00009624       ?_Reallocate@?$vector@PEAVContainerChunk@RIFF@@V?$allocator@PEAVContainerChunk@RIFF@@@std@@@std@@IEAAX_K@Z 000000018000a624 f i RIFF_Handler.obj
 0001:00009624       ?_Reallocate@?$vector@PEAVIMetadata@@V?$allocator@PEAVIMetadata@@@std@@@std@@IEAAX_K@Z 000000018000a624 f i MetadataSet.obj
 0001:00009624       ?_Reallocate@?$vector@PEAVIChunkData@IFF_RIFF@@V?$allocator@PEAVIChunkData@IFF_RIFF@@@std@@@std@@IEAAX_K@Z 000000018000a624 f i ChunkController.obj
 0001:00009624       ?_Reallocate@?$vector@UChunkIdentifier@IFF_RIFF@@V?$allocator@UChunkIdentifier@IFF_RIFF@@@std@@@std@@IEAAX_K@Z 000000018000a624 f i ChunkPath.obj
 0001:00009624       ?_Reallocate@?$vector@PEBDV?$allocator@PEBD@std@@@std@@IEAAX_K@Z 000000018000a624 f i WXMPFiles.obj
 0001:00009700       ?MD5Update@@YAXPEAUMD5_CTX@@PEAEK@Z 000000018000a700 f   MD5.obj
 0001:000097bc       ?MD5Final@@YAXQEAEPEAUMD5_CTX@@@Z 000000018000a7bc f   MD5.obj
 0001:0000a17c       ?ToUTF16@@YAXPEBE_KPEAV?$basic_string@DU?$char_traits@D@std@@V?$allocator@D@2@@std@@_N@Z 000000018000b17c f   UnicodeConversions.obj
 0001:0000a2a0       ?ToUTF16Native@@YAXPEBE_KPEAV?$basic_string@DU?$char_traits@D@std@@V?$allocator@D@2@@std@@@Z 000000018000b2a0 f   UnicodeConversions.obj
 0001:0000a3c4       ?FromUTF16@@YAXPEBG_KPEAV?$basic_string@DU?$char_traits@D@std@@V?$allocator@D@2@@std@@_N@Z 000000018000b3c4 f   UnicodeConversions.obj
 0001:0000a4f0       ?FromUTF16Native@@YAXPEBG_KPEAV?$basic_string@DU?$char_traits@D@std@@V?$allocator@D@2@@std@@@Z 000000018000b4f0 f   UnicodeConversions.obj
 0001:0000afb8       ?append@?$basic_string@DU?$char_traits@D@std@@V?$allocator@D@2@@std@@QEAAAEAV12@PEBD_K@Z 000000018000bfb8 f i UnicodeConversions.obj
 0001:0000b0f0       ?append@?$basic_string@DU?$char_traits@D@std@@V?$allocator@D@2@@std@@QEAAAEAV12@AEBV12@_K1@Z 000000018000c0f0 f i UnicodeConversions.obj
 0001:0000b208       ?getInstance@HandlerRegistry@Common@@SAAEAV12@XZ 000000018000c208 f   HandlerRegistry.obj
 0001:0000b244       ?terminate@HandlerRegistry@Common@@SAXXZ 000000018000c244 f   HandlerRegistry.obj
 0001:0000b2fc       ??0HandlerRegistry@Common@@AEAA@XZ 000000018000c2fc f   HandlerRegistry.obj
 0001:0000b3c0       ?initialize@HandlerRegistry@Common@@QEAAXXZ 000000018000c3c0 f   HandlerRegistry.obj
 0001:0000b87c       ?registerFolderHandler@HandlerRegistry@Common@@QEAA_NKKP6A_NKAEBV?$basic_string@DU?$char_traits@D@std@@V?$allocator@D@2@@std@@000PEAVXMPFiles@@@ZP6APEAVXMPFileHandler@@1@Z_N@Z 000000018000c87c f   HandlerRegistry.obj
 0001:0000b9dc       ?registerNormalHandler@HandlerRegistry@Common@@QEAA_NKKP6A_NKPEBDPEAVXMP_IO@@PEAVXMPFiles@@@ZP6APEAVXMPFileHandler@@2@Z_N@Z 000000018000c9dc f   HandlerRegistry.obj
 0001:0000bb3c       ?registerOwningHandler@HandlerRegistry@Common@@QEAA_NKKP6A_NKPEBDPEAVXMP_IO@@PEAVXMPFiles@@@ZP6APEAVXMPFileHandler@@2@Z_N@Z 000000018000cb3c f   HandlerRegistry.obj
 0001:0000bc9c       ?removeHandler@HandlerRegistry@Common@@QEAAXK@Z 000000018000cc9c f   HandlerRegistry.obj
 0001:0000bd68       ?getFileFormat@HandlerRegistry@Common@@QEAAKAEBV?$basic_string@DU?$char_traits@D@std@@V?$allocator@D@2@@std@@_N@Z 000000018000cd68 f   HandlerRegistry.obj
 0001:0000bdf4       ?getHandlerInfo@HandlerRegistry@Common@@QEAAPEAUXMPFileHandlerInfo@2@K@Z 000000018000cdf4 f   HandlerRegistry.obj
 0001:0000beb4       ?getStandardHandlerInfo@HandlerRegistry@Common@@QEAAPEAUXMPFileHandlerInfo@2@K@Z 000000018000ceb4 f   HandlerRegistry.obj
 0001:0000befc       ?isReplaced@HandlerRegistry@Common@@QEAA_NK@Z 000000018000cefc f   HandlerRegistry.obj
 0001:0000bf38       ?pickDefaultHandler@HandlerRegistry@Common@@AEAAPEAUXMPFileHandlerInfo@2@KAEBV?$basic_string@DU?$char_traits@D@std@@V?$allocator@D@2@@std@@@Z 000000018000cf38 f   HandlerRegistry.obj
 0001:0000c02c       ?selectSmartHandler@HandlerRegistry@Common@@QEAAPEAUXMPFileHandlerInfo@2@PEAVXMPFiles@@PEBDKK@Z 000000018000d02c f   HandlerRegistry.obj
 0001:0000c638       ?tryFolderHandlers@HandlerRegistry@Common@@AEAAPEAUXMPFileHandlerInfo@2@KAEBV?$basic_string@DU?$char_traits@D@std@@V?$allocator@D@2@@std@@000PEAVXMPFiles@@@Z 000000018000d638 f   HandlerRegistry.obj
 0001:0000c78c       ?checkTopFolderName@HandlerRegistry@Common@@SAKAEBV?$basic_string@DU?$char_traits@D@std@@V?$allocator@D@2@@std@@@Z 000000018000d78c f   HandlerRegistry.obj
 0001:0000cb7c       ?checkParentFolderNames@HandlerRegistry@Common@@SAKAEBV?$basic_string@DU?$char_traits@D@std@@V?$allocator@D@2@@std@@000@Z 000000018000db7c f   HandlerRegistry.obj
 0001:0000cf0c       ??E?$_Tree_iterator@V?$_Tree_val@U?$_Tree_simple_types@U?$pair@$$CBKUXMPFileHandlerInfo@Common@@@std@@@std@@@std@@@std@@QEAAAEAV01@XZ 000000018000df0c f i HandlerRegistry.obj
 0001:0000cf0c       ??E?$_Tree_const_iterator@V?$_Tree_val@U?$_Tree_simple_types@U?$pair@$$CBKV?$basic_string@DU?$char_traits@D@std@@V?$allocator@D@2@@std@@@std@@@std@@@std@@@std@@QEAAAEAV01@XZ 000000018000df0c f i JPEG_Handler.obj
 0001:0000cf0c       ??E?$_Tree_const_iterator@V?$_Tree_val@U?$_Tree_simple_types@U?$pair@$$CBUGUID_32@JPEG_MetaHandler@@UExtXMPContent@@@std@@@std@@@std@@@std@@QEAAAEAV01@XZ 000000018000df0c f i JPEG_Handler.obj
 0001:0000cf58       ?erase@?$_Tree@V?$_Tmap_traits@KUXMPFileHandlerInfo@Common@@U?$less@K@std@@V?$allocator@U?$pair@$$CBKUXMPFileHandlerInfo@Common@@@std@@@4@$0A@@std@@@std@@QEAA?AV?$_Tree_iterator@V?$_Tree_val@U?$_Tree_simple_types@U?$pair@$$CBKUXMPFileHandlerInfo@Common@@@std@@@std@@@std@@@2@V?$_Tree_const_iterator@V?$_Tree_val@U?$_Tree_simple_types@U?$pair@$$CBKUXMPFileHandlerInfo@Common@@@std@@@std@@@std@@@2@@Z 000000018000df58 f i HandlerRegistry.obj
 0001:0000d3fc       ??1?$_Tree@V?$_Tmap_traits@KUXMPFileHandlerInfo@Common@@U?$less@K@std@@V?$allocator@U?$pair@$$CBKUXMPFileHandlerInfo@Common@@@std@@@4@$0A@@std@@@std@@QEAA@XZ 000000018000e3fc f i HandlerRegistry.obj
 0001:0000d3fc       ??1?$_Tree@V?$_Tmap_traits@GUImgRsrcInfo@PSIR_Manager@@U?$less@G@std@@V?$allocator@U?$pair@$$CBGUImgRsrcInfo@PSIR_Manager@@@std@@@4@$0A@@std@@@std@@QEAA@XZ 000000018000e3fc f i JPEG_Handler.obj
 0001:0000d490       ??0?$basic_string@DU?$char_traits@D@std@@V?$allocator@D@2@@std@@QEAA@PEBD@Z 000000018000e490 f i HandlerRegistry.obj
 0001:0000d4dc       ?assign@?$basic_string@DU?$char_traits@D@std@@V?$allocator@D@2@@std@@QEAAAEAV12@PEBD_K@Z 000000018000e4dc f i HandlerRegistry.obj
 0001:0000d5e0       ?_Buyheadnode@?$_Tree_comp_alloc@V?$_Tmap_traits@GUTagInfo@TIFF_Manager@@U?$less@G@std@@V?$allocator@U?$pair@$$CBGUTagInfo@TIFF_Manager@@@std@@@4@$0A@@std@@@std@@QEAAPEAU?$_Tree_node@U?$pair@$$CBGUTagInfo@TIFF_Manager@@@std@@PEAX@2@XZ 000000018000e5e0 f i JPEG_Handler.obj
 0001:0000d5e0       ?_Buyheadnode@?$_Tree_comp_alloc@V?$_Tmap_traits@KUXMPFileHandlerInfo@Common@@U?$less@K@std@@V?$allocator@U?$pair@$$CBKUXMPFileHandlerInfo@Common@@@std@@@4@$0A@@std@@@std@@QEAAPEAU?$_Tree_node@U?$pair@$$CBKUXMPFileHandlerInfo@Common@@@std@@PEAX@2@XZ 000000018000e5e0 f i HandlerRegistry.obj
 0001:0000d5e0       ?_Buyheadnode@?$_Tree_comp_alloc@V?$_Tset_traits@V?$basic_string@DU?$char_traits@D@std@@V?$allocator@D@2@@std@@U?$less@V?$basic_string@DU?$char_traits@D@std@@V?$allocator@D@2@@std@@@2@V?$allocator@V?$basic_string@DU?$char_traits@D@std@@V?$allocator@D@2@@std@@@2@$0A@@std@@@std@@QEAAPEAU?$_Tree_node@V?$basic_string@DU?$char_traits@D@std@@V?$allocator@D@2@@std@@PEAX@2@XZ 000000018000e5e0 f i P2_Support.obj
 0001:0000d5e0       ?_Buyheadnode@?$_Tree_comp_alloc@V?$_Tmap_traits@GUImgRsrcInfo@PSIR_Manager@@U?$less@G@std@@V?$allocator@U?$pair@$$CBGUImgRsrcInfo@PSIR_Manager@@@std@@@4@$0A@@std@@@std@@QEAAPEAU?$_Tree_node@U?$pair@$$CBGUImgRsrcInfo@PSIR_Manager@@@std@@PEAX@2@XZ 000000018000e5e0 f i JPEG_Handler.obj
 0001:0000d61c       ?_Erase@?$_Tree@V?$_Tmap_traits@GUImgRsrcInfo@PSIR_Manager@@U?$less@G@std@@V?$allocator@U?$pair@$$CBGUImgRsrcInfo@PSIR_Manager@@@std@@@4@$0A@@std@@@std@@IEAAXPEAU?$_Tree_node@U?$pair@$$CBGUImgRsrcInfo@PSIR_Manager@@@std@@PEAX@2@@Z 000000018000e61c f i JPEG_Handler.obj
 0001:0000d61c       ?_Erase@?$_Tree@V?$_Tmap_traits@KUXMPFileHandlerInfo@Common@@U?$less@K@std@@V?$allocator@U?$pair@$$CBKUXMPFileHandlerInfo@Common@@@std@@@4@$0A@@std@@@std@@IEAAXPEAU?$_Tree_node@U?$pair@$$CBKUXMPFileHandlerInfo@Common@@@std@@PEAX@2@@Z 000000018000e61c f i HandlerRegistry.obj
 0001:0000d61c       ?_Erase@?$_Tree@V?$_Tmap_traits@GUTagInfo@TIFF_Manager@@U?$less@G@std@@V?$allocator@U?$pair@$$CBGUTagInfo@TIFF_Manager@@@std@@@4@$0A@@std@@@std@@IEAAXPEAU?$_Tree_node@U?$pair@$$CBGUTagInfo@TIFF_Manager@@@std@@PEAX@2@@Z 000000018000e61c f i JPEG_Handler.obj
 0001:0000d674       ??$_Buynode@U?$pair@KUXMPFileHandlerInfo@Common@@@std@@@?$_Tree_comp_alloc@V?$_Tmap_traits@KUXMPFileHandlerInfo@Common@@U?$less@K@std@@V?$allocator@U?$pair@$$CBKUXMPFileHandlerInfo@Common@@@std@@@4@$0A@@std@@@std@@QEAAPEAU?$_Tree_node@U?$pair@$$CBKUXMPFileHandlerInfo@Common@@@std@@PEAX@1@$$QEAU?$pair@KUXMPFileHandlerInfo@Common@@@1@@Z 000000018000e674 f i HandlerRegistry.obj
 0001:0000d6b0       ??$_Insert_hint@AEAU?$pair@$$CBKUXMPFileHandlerInfo@Common@@@std@@PEAU?$_Tree_node@U?$pair@$$CBKUXMPFileHandlerInfo@Common@@@std@@PEAX@2@@?$_Tree@V?$_Tmap_traits@KUXMPFileHandlerInfo@Common@@U?$less@K@std@@V?$allocator@U?$pair@$$CBKUXMPFileHandlerInfo@Common@@@std@@@4@$0A@@std@@@std@@IEAA?AV?$_Tree_iterator@V?$_Tree_val@U?$_Tree_simple_types@U?$pair@$$CBKUXMPFileHandlerInfo@Common@@@std@@@std@@@std@@@1@V?$_Tree_const_iterator@V?$_Tree_val@U?$_Tree_simple_types@U?$pair@$$CBKUXMPFileHandlerInfo@Common@@@std@@@std@@@std@@@1@AEAU?$pair@$$CBKUXMPFileHandlerInfo@Common@@@1@PEAU?$_Tree_node@U?$pair@$$CBKUXMPFileHandlerInfo@Common@@@std@@PEAX@1@@Z 000000018000e6b0 f i HandlerRegistry.obj
 0001:0000d8cc       ?_Buynode0@?$_Tree_comp_alloc@V?$_Tset_traits@V?$basic_string@DU?$char_traits@D@std@@V?$allocator@D@2@@std@@U?$less@V?$basic_string@DU?$char_traits@D@std@@V?$allocator@D@2@@std@@@2@V?$allocator@V?$basic_string@DU?$char_traits@D@std@@V?$allocator@D@2@@std@@@2@$0A@@std@@@std@@QEAAPEAU?$_Tree_node@V?$basic_string@DU?$char_traits@D@std@@V?$allocator@D@2@@std@@PEAX@2@XZ 000000018000e8cc f i P2_Support.obj
 0001:0000d8cc       ?_Buynode0@?$_Tree_comp_alloc@V?$_Tmap_traits@GUImgRsrcInfo@PSIR_Manager@@U?$less@G@std@@V?$allocator@U?$pair@$$CBGUImgRsrcInfo@PSIR_Manager@@@std@@@4@$0A@@std@@@std@@QEAAPEAU?$_Tree_node@U?$pair@$$CBGUImgRsrcInfo@PSIR_Manager@@@std@@PEAX@2@XZ 000000018000e8cc f i PSIR_MemoryReader.obj
 0001:0000d8cc       ?_Buynode0@?$_Tree_comp_alloc@V?$_Tmap_traits@GUTagInfo@TIFF_Manager@@U?$less@G@std@@V?$allocator@U?$pair@$$CBGUTagInfo@TIFF_Manager@@@std@@@4@$0A@@std@@@std@@QEAAPEAU?$_Tree_node@U?$pair@$$CBGUTagInfo@TIFF_Manager@@@std@@PEAX@2@XZ 000000018000e8cc f i TIFF_FileWriter.obj
 0001:0000d8cc       ?_Buynode0@?$_Tree_comp_alloc@V?$_Tmap_traits@KUXMPFileHandlerInfo@Common@@U?$less@K@std@@V?$allocator@U?$pair@$$CBKUXMPFileHandlerInfo@Common@@@std@@@4@$0A@@std@@@std@@QEAAPEAU?$_Tree_node@U?$pair@$$CBKUXMPFileHandlerInfo@Common@@@std@@PEAX@2@XZ 000000018000e8cc f i HandlerRegistry.obj
 0001:0000d914       ??$_Insert_at@AEAU?$pair@$$CBGUTagInfo@TIFF_Manager@@@std@@PEAU?$_Tree_node@U?$pair@$$CBGUTagInfo@TIFF_Manager@@@std@@PEAX@2@@?$_Tree@V?$_Tmap_traits@GUTagInfo@TIFF_Manager@@U?$less@G@std@@V?$allocator@U?$pair@$$CBGUTagInfo@TIFF_Manager@@@std@@@4@$0A@@std@@@std@@IEAA?AV?$_Tree_iterator@V?$_Tree_val@U?$_Tree_simple_types@U?$pair@$$CBGUTagInfo@TIFF_Manager@@@std@@@std@@@std@@@1@_NPEAU?$_Tree_node@U?$pair@$$CBGUTagInfo@TIFF_Manager@@@std@@PEAX@1@AEAU?$pair@$$CBGUTagInfo@TIFF_Manager@@@1@1@Z 000000018000e914 f i TIFF_FileWriter.obj
 0001:0000d914       ??$_Insert_at@AEAU?$pair@$$CBKUXMPFileHandlerInfo@Common@@@std@@PEAU?$_Tree_node@U?$pair@$$CBKUXMPFileHandlerInfo@Common@@@std@@PEAX@2@@?$_Tree@V?$_Tmap_traits@KUXMPFileHandlerInfo@Common@@U?$less@K@std@@V?$allocator@U?$pair@$$CBKUXMPFileHandlerInfo@Common@@@std@@@4@$0A@@std@@@std@@IEAA?AV?$_Tree_iterator@V?$_Tree_val@U?$_Tree_simple_types@U?$pair@$$CBKUXMPFileHandlerInfo@Common@@@std@@@std@@@std@@@1@_NPEAU?$_Tree_node@U?$pair@$$CBKUXMPFileHandlerInfo@Common@@@std@@PEAX@1@AEAU?$pair@$$CBKUXMPFileHandlerInfo@Common@@@1@1@Z 000000018000e914 f i HandlerRegistry.obj
 0001:0000db98       ??$_Insert_nohint@AEAU?$pair@$$CBKUXMPFileHandlerInfo@Common@@@std@@PEAU?$_Tree_node@U?$pair@$$CBKUXMPFileHandlerInfo@Common@@@std@@PEAX@2@@?$_Tree@V?$_Tmap_traits@KUXMPFileHandlerInfo@Common@@U?$less@K@std@@V?$allocator@U?$pair@$$CBKUXMPFileHandlerInfo@Common@@@std@@@4@$0A@@std@@@std@@IEAA?AU?$pair@V?$_Tree_iterator@V?$_Tree_val@U?$_Tree_simple_types@U?$pair@$$CBKUXMPFileHandlerInfo@Common@@@std@@@std@@@std@@@std@@_N@1@_NAEAU?$pair@$$CBKUXMPFileHandlerInfo@Common@@@1@PEAU?$_Tree_node@U?$pair@$$CBKUXMPFileHandlerInfo@Common@@@std@@PEAX@1@@Z 000000018000eb98 f i HandlerRegistry.obj
 0001:0000dcbc       __local_stdio_printf_options 000000018000ecbc f i SafeStringAPIs.obj
 0001:0000dcc4       _snprintf                  000000018000ecc4 f i PerfUtils.obj
 0001:0000dd1c       ?NoteThisMoment@PerfUtils@@YA_JXZ 000000018000ed1c f   PerfUtils.obj
 0001:0000dd64       ?GetElapsedSeconds@PerfUtils@@YAN_J0@Z 000000018000ed64 f   PerfUtils.obj
 0001:0000ddd4       ??0XMP_AutoLock@@QEAA@PEBVXMP_ReadWriteLock@@_N1@Z 000000018000edd4 f i WXMPFiles.obj
 0001:0000de94       ??1XMP_AutoLock@@QEAA@XZ   000000018000ee94 f i WXMPFiles.obj
 0001:0000deb8       ?Release@XMP_AutoLock@@QEAAXXZ 000000018000eeb8 f i WXMPFiles.obj
 0001:0000dfc0       WXMPFiles_GetVersionInfo_1 000000018000efc0 f   WXMPFiles.obj
 0001:0000dfe0       WXMPFiles_Initialize_1     000000018000efe0 f   WXMPFiles.obj
 0001:0000e010       WXMPFiles_Initialize_2     000000018000f010 f   WXMPFiles.obj
 0001:0000e03c       WXMPFiles_Terminate_1      000000018000f03c f   WXMPFiles.obj
 0001:0000e05c       WXMPFiles_CTor_1           000000018000f05c f   WXMPFiles.obj
 0001:0000e09c       WXMPFiles_IncrementRefCount_1 000000018000f09c f   WXMPFiles.obj
 0001:0000e0ec       WXMPFiles_DecrementRefCount_1 000000018000f0ec f   WXMPFiles.obj
 0001:0000e168       WXMPFiles_GetFormatInfo_1  000000018000f168 f   WXMPFiles.obj
 0001:0000e194       WXMPFiles_CheckFileFormat_1 000000018000f194 f   WXMPFiles.obj
 0001:0000e1bc       WXMPFiles_CheckPackageFormat_1 000000018000f1bc f   WXMPFiles.obj
 0001:0000e1e4       WXMPFiles_GetFileModDate_1 000000018000f1e4 f   WXMPFiles.obj
 0001:0000e210       WXMPFiles_GetAssociatedResources_1 000000018000f210 f   WXMPFiles.obj
 0001:0000e3ac       WXMPFiles_IsMetadataWritable_1 000000018000f3ac f   WXMPFiles.obj
 0001:0000e3d8       WXMPFiles_OpenFile_1       000000018000f3d8 f   WXMPFiles.obj
 0001:0000e460       WXMPFiles_CloseFile_1      000000018000f460 f   WXMPFiles.obj
 0001:0000e4cc       WXMPFiles_GetFileInfo_1    000000018000f4cc f   WXMPFiles.obj
 0001:0000e594       WXMPFiles_SetAbortProc_1   000000018000f594 f   WXMPFiles.obj
 0001:0000e608       WXMPFiles_GetXMP_1         000000018000f608 f   WXMPFiles.obj
 0001:0000e714       WXMPFiles_PutXMP_1         000000018000f714 f   WXMPFiles.obj
 0001:0000e7d4       WXMPFiles_CanPutXMP_1      000000018000f7d4 f   WXMPFiles.obj
 0001:0000e89c       WXMPFiles_SetDefaultProgressCallback_1 000000018000f89c f   WXMPFiles.obj
 0001:0000e8e8       WXMPFiles_SetProgressCallback_1 000000018000f8e8 f   WXMPFiles.obj
 0001:0000e998       WXMPFiles_SetDefaultErrorCallback_1 000000018000f998 f   WXMPFiles.obj
 0001:0000e9bc       WXMPFiles_SetErrorCallback_1 000000018000f9bc f   WXMPFiles.obj
 0001:0000ea50       WXMPFiles_ResetErrorCallbackLimit_1 000000018000fa50 f   WXMPFiles.obj
 0001:0000eabc       ??1?$vector@PEAVXML_Node@@V?$allocator@PEAVXML_Node@@@std@@@std@@QEAA@XZ 000000018000fabc f i XML_Node.obj
 0001:0000eabc       ??1?$vector@UChunkIdentifier@IFF_RIFF@@V?$allocator@UChunkIdentifier@IFF_RIFF@@@std@@@std@@QEAA@XZ 000000018000fabc f i ChunkPath.obj
 0001:0000eabc       ??1?$vector@PEAVChunk@RIFF@@V?$allocator@PEAVChunk@RIFF@@@std@@@std@@QEAA@XZ 000000018000fabc f i RIFF.obj
 0001:0000eabc       ??1?$vector@PEAVIChunkData@IFF_RIFF@@V?$allocator@PEAVIChunkData@IFF_RIFF@@@std@@@std@@QEAA@XZ 000000018000fabc f i ChunkController.obj
 0001:0000eabc       ??1?$vector@PEAVID3v2Frame@ID3_Support@@V?$allocator@PEAVID3v2Frame@ID3_Support@@@std@@@std@@QEAA@XZ 000000018000fabc f i MP3_Handler.obj
 0001:0000eabc       ??1?$vector@PEBDV?$allocator@PEBD@std@@@std@@QEAA@XZ 000000018000fabc f i WXMPFiles.obj
 0001:0000eaf8       ?push_back@?$vector@PEAVChunk@IFF_RIFF@@V?$allocator@PEAVChunk@IFF_RIFF@@@std@@@std@@QEAAXAEBQEAVChunk@IFF_RIFF@@@Z 000000018000faf8 f i Chunk.obj
 0001:0000eaf8       ?push_back@?$vector@PEBDV?$allocator@PEBD@std@@@std@@QEAAX$$QEAPEBD@Z 000000018000faf8 f i WXMPFiles.obj
 0001:0000eaf8       ?push_back@?$vector@UChunkIdentifier@IFF_RIFF@@V?$allocator@UChunkIdentifier@IFF_RIFF@@@std@@@std@@QEAAXAEBUChunkIdentifier@IFF_RIFF@@@Z 000000018000faf8 f i ChunkPath.obj
 0001:0000eaf8       ?push_back@?$vector@PEAVIChunkData@IFF_RIFF@@V?$allocator@PEAVIChunkData@IFF_RIFF@@@std@@@std@@QEAAXAEBQEAVIChunkData@IFF_RIFF@@@Z 000000018000faf8 f i ChunkController.obj
 0001:0000eaf8       ?push_back@?$vector@PEAVID3v2Frame@ID3_Support@@V?$allocator@PEAVID3v2Frame@ID3_Support@@@std@@@std@@QEAAXAEBQEAVID3v2Frame@ID3_Support@@@Z 000000018000faf8 f i MP3_Handler.obj
 0001:0000ec44       ??1?$vector@V?$basic_string@DU?$char_traits@D@std@@V?$allocator@D@2@@std@@V?$allocator@V?$basic_string@DU?$char_traits@D@std@@V?$allocator@D@2@@std@@@2@@std@@QEAA@XZ 000000018000fc44 f i WXMPFiles.obj
 0001:0000ec4c       ?_Tidy@?$vector@V?$basic_string@DU?$char_traits@D@std@@V?$allocator@D@2@@std@@V?$allocator@V?$basic_string@DU?$char_traits@D@std@@V?$allocator@D@2@@std@@@2@@std@@IEAAXXZ 000000018000fc4c f i WXMPFiles.obj
 0001:0000ecf0       ?SplitLeafName@XIO@@YAXPEAV?$basic_string@DU?$char_traits@D@std@@V?$allocator@D@2@@std@@0@Z 000000018000fcf0 f   XIO.obj
 0001:0000eeb8       ?SplitFileExtension@XIO@@YAXPEAV?$basic_string@DU?$char_traits@D@std@@V?$allocator@D@2@@std@@0_N@Z 000000018000feb8 f   XIO.obj
 0001:0000efdc       ?ReplaceTextFile@XIO@@YAXPEAVXMP_IO@@AEBV?$basic_string@DU?$char_traits@D@std@@V?$allocator@D@2@@std@@_N@Z 000000018000ffdc f   XIO.obj
 0001:0000f144       ?Copy@XIO@@YAXPEAVXMP_IO@@0_JP6A_NPEAX@Z2@Z 0000000180010144 f   XIO.obj
 0001:0000f21c       ?Move@XIO@@YAXPEAVXMP_IO@@_J011P6A_NPEAX@Z2@Z 000000018001021c f   XIO.obj
 0001:0000f35c       ?swap@?$basic_string@DU?$char_traits@D@std@@V?$allocator@D@2@@std@@QEAAXAEAV12@@Z 000000018001035c f i XIO.obj
 0001:0000f44c       ?assign@?$basic_string@DU?$char_traits@D@std@@V?$allocator@D@2@@std@@QEAAAEAV12@_KD@Z 000000018001044c f i XIO.obj
 0001:0000f520       ??1AutoFolder@Host_IO@@QEAA@XZ 0000000180010520 f i IOUtils.obj
 0001:0000f57c       ?Close@AutoFolder@Host_IO@@QEAAXXZ 000000018001057c f i IOUtils.obj
 0001:0000f770       ?GetMatchingChildren@IOUtils@@SAXAEAV?$vector@V?$basic_string@DU?$char_traits@D@std@@V?$allocator@D@2@@std@@V?$allocator@V?$basic_string@DU?$char_traits@D@std@@V?$allocator@D@2@@std@@@2@@std@@AEBV?$basic_string@DU?$char_traits@D@std@@V?$allocator@D@2@@3@AEBV23@EEE@Z 0000000180010770 f   IOUtils.obj
 0001:0000fa3c       ??1XMP_RegExp@@QEAA@XZ     0000000180010a3c f i IOUtils.obj
 0001:0000fa3c       ??1DateTimeTokens@PostScript_Support@@QEAA@XZ 0000000180010a3c f i PostScript_Support.obj
 0001:0000fa3c       ??1?$pair@V?$basic_string@DU?$char_traits@D@std@@V?$allocator@D@2@@std@@_J@std@@QEAA@XZ 0000000180010a3c f i SVG_Adapter.obj
 0001:0000fa8c       ?GetMatchingChildren@IOUtils@@SAXAEAV?$vector@V?$basic_string@DU?$char_traits@D@std@@V?$allocator@D@2@@std@@V?$allocator@V?$basic_string@DU?$char_traits@D@std@@V?$allocator@D@2@@std@@@2@@std@@AEBV?$basic_string@DU?$char_traits@D@std@@V?$allocator@D@2@@3@1EEE@Z 0000000180010a8c f   IOUtils.obj
 0001:0000fb0c       ?push_back@?$vector@V?$basic_string@DU?$char_traits@D@std@@V?$allocator@D@2@@std@@V?$allocator@V?$basic_string@DU?$char_traits@D@std@@V?$allocator@D@2@@std@@@2@@std@@QEAAXAEBV?$basic_string@DU?$char_traits@D@std@@V?$allocator@D@2@@2@@Z 0000000180010b0c f i IOUtils.obj
 0001:0000fbec       ??0?$basic_string@DU?$char_traits@D@std@@V?$allocator@D@2@@std@@QEAA@$$QEAV01@@Z 0000000180010bec f i IOUtils.obj
 0001:0000fc74       ?_Reserve@?$vector@V?$basic_string@DU?$char_traits@D@std@@V?$allocator@D@2@@std@@V?$allocator@V?$basic_string@DU?$char_traits@D@std@@V?$allocator@D@2@@std@@@2@@std@@IEAAX_K@Z 0000000180010c74 f i IOUtils.obj
 0001:0000fcf4       ?_Reallocate@?$vector@V?$basic_string@DU?$char_traits@D@std@@V?$allocator@D@2@@std@@V?$allocator@V?$basic_string@DU?$char_traits@D@std@@V?$allocator@D@2@@std@@@2@@std@@IEAAX_K@Z 0000000180010cf4 f i IOUtils.obj
 0001:0000fe28       ??$_Sort_unchecked1@PEAV?$basic_string@DU?$char_traits@D@std@@V?$allocator@D@2@@std@@_JU?$less@X@2@@std@@YAXPEAV?$basic_string@DU?$char_traits@D@std@@V?$allocator@D@2@@0@0_JAEAU?$less@X@0@@Z 0000000180010e28 f i IOUtils.obj
 0001:0001022c       ??$_Uninitialized_move_al_unchecked1@PEAV?$basic_string@DU?$char_traits@D@std@@V?$allocator@D@2@@std@@PEAV12@V?$allocator@V?$basic_string@DU?$char_traits@D@std@@V?$allocator@D@2@@std@@@2@@std@@YAPEAV?$basic_string@DU?$char_traits@D@std@@V?$allocator@D@2@@0@PEAV10@00AEAU?$_Wrap_alloc@V?$allocator@V?$basic_string@DU?$char_traits@D@std@@V?$allocator@D@2@@std@@@std@@@0@U_General_ptr_iterator_tag@0@U_Any_tag@0@@Z 000000018001122c f i IOUtils.obj
 0001:00010284       ??$_Insertion_sort_unchecked@PEAV?$basic_string@DU?$char_traits@D@std@@V?$allocator@D@2@@std@@U?$less@X@2@@std@@YAXPEAV?$basic_string@DU?$char_traits@D@std@@V?$allocator@D@2@@0@0AEAU?$less@X@0@@Z 0000000180011284 f i IOUtils.obj
 0001:000103a4       ??4?$basic_string@DU?$char_traits@D@std@@V?$allocator@D@2@@std@@QEAAAEAV01@$$QEAV01@@Z 00000001800113a4 f i IOUtils.obj
 0001:000103a4       ?assign@?$basic_string@DU?$char_traits@D@std@@V?$allocator@D@2@@std@@QEAAAEAV12@$$QEAV12@@Z 00000001800113a4 f i AIFF_Handler.obj
 0001:00010464       ??$_Guess_median_unchecked@PEAV?$basic_string@DU?$char_traits@D@std@@V?$allocator@D@2@@std@@U?$less@X@2@@std@@YAXPEAV?$basic_string@DU?$char_traits@D@std@@V?$allocator@D@2@@0@00AEAU?$less@X@0@@Z 0000000180011464 f i IOUtils.obj
 0001:00010674       ??$?RAEAV?$basic_string@DU?$char_traits@D@std@@V?$allocator@D@2@@std@@AEAV01@@?$less@X@std@@QEBA_NAEAV?$basic_string@DU?$char_traits@D@std@@V?$allocator@D@2@@1@0@Z 0000000180011674 f i IOUtils.obj
 0001:00010674       ??R?$less@V?$basic_string@DU?$char_traits@D@std@@V?$allocator@D@2@@std@@@std@@QEBA_NAEBV?$basic_string@DU?$char_traits@D@std@@V?$allocator@D@2@@1@0@Z 0000000180011674 f i XML_Node.obj
 0001:00010674       ??RStringCompare@XMP_PLUGIN@@QEBA_NAEBV?$basic_string@DU?$char_traits@D@std@@V?$allocator@D@2@@std@@0@Z 0000000180011674 f i XMPAtoms.obj
 0001:000106e0       ??$_Pop_heap_hole_by_index@PEAV?$basic_string@DU?$char_traits@D@std@@V?$allocator@D@2@@std@@_JV12@U?$less@X@2@@std@@YAXPEAV?$basic_string@DU?$char_traits@D@std@@V?$allocator@D@2@@0@_J1$$QEAV10@AEAU?$less@X@0@@Z 00000001800116e0 f i IOUtils.obj
 0001:00010800       ?replace@?$basic_string@DU?$char_traits@D@std@@V?$allocator@D@2@@std@@QEAAAEAV12@_K0PEBD0@Z 0000000180011800 f i IOUtils.obj
 0001:00010a0c       ?replace@?$basic_string@DU?$char_traits@D@std@@V?$allocator@D@2@@std@@QEAAAEAV12@_K0AEBV12@00@Z 0000000180011a0c f i IOUtils.obj
 0001:00010ddc       ??1?$map@V?$basic_string@DU?$char_traits@D@std@@V?$allocator@D@2@@std@@V12@U?$less@V?$basic_string@DU?$char_traits@D@std@@V?$allocator@D@2@@std@@@2@V?$allocator@U?$pair@$$CBV?$basic_string@DU?$char_traits@D@std@@V?$allocator@D@2@@std@@V12@@std@@@2@@std@@QEAA@XZ 0000000180011ddc f i XML_Node.obj
 0001:00010e14       ??0XML_Node@@QEAA@PEAV0@PEBDE@Z 0000000180011e14 f i XML_Node.obj
 0001:00010f14       ??1XML_Node@@UEAA@XZ       0000000180011f14 f i XML_Node.obj
 0001:00011084       ??_EXML_Node@@UEAAPEAXI@Z  0000000180012084 f i * CIL library *:* CIL module *
 0001:00011084       ??_GXML_Node@@UEAAPEAXI@Z  0000000180012084 f i XML_Node.obj
 0001:000110b8       ?IsWhitespaceNode@XML_Node@@QEBA_NXZ 00000001800120b8 f   XML_Node.obj
 0001:00011108       ?IsLeafContentNode@XML_Node@@QEBA_NXZ 0000000180012108 f   XML_Node.obj
 0001:00011158       ?IsEmptyLeafNode@XML_Node@@QEBA_NXZ 0000000180012158 f   XML_Node.obj
 0001:0001117c       ?GetAttrValue@XML_Node@@QEBAPEBDPEBD@Z 000000018001217c f   XML_Node.obj
 0001:0001120c       ?GetLeafContentValue@XML_Node@@QEBAPEBDXZ 000000018001220c f   XML_Node.obj
 0001:00011254       ?SetLeafContentValue@XML_Node@@QEAAXPEBD@Z 0000000180012254 f   XML_Node.obj
 0001:000112f8       ?CountNamedElements@XML_Node@@QEBA_KPEBD0@Z 00000001800122f8 f   XML_Node.obj
 0001:000113a4       ?GetNamedElement@XML_Node@@QEAAPEAV1@PEBD0_K@Z 00000001800123a4 f   XML_Node.obj
 0001:00011864       ?Serialize@XML_Node@@QEAAXPEAV?$basic_string@DU?$char_traits@D@std@@V?$allocator@D@2@@std@@@Z 0000000180012864 f   XML_Node.obj
 0001:00011be0       ?RemoveAttrs@XML_Node@@QEAAXXZ 0000000180012be0 f   XML_Node.obj
 0001:00011c4c       ?RemoveContent@XML_Node@@QEAAXXZ 0000000180012c4c f   XML_Node.obj
 0001:00011cb8       ?push_back@?$vector@PEAVXML_Node@@V?$allocator@PEAVXML_Node@@@std@@@std@@QEAAXAEBQEAVXML_Node@@@Z 0000000180012cb8 f i XML_Node.obj
 0001:00011d28       ?substr@?$basic_string@DU?$char_traits@D@std@@V?$allocator@D@2@@std@@QEBA?AV12@_K0@Z 0000000180012d28 f i XML_Node.obj
 0001:00011d5c       ?_Reserve@?$vector@PEAVXML_Node@@V?$allocator@PEAVXML_Node@@@std@@@std@@IEAAX_K@Z 0000000180012d5c f i XML_Node.obj
 0001:00011d5c       ?_Reserve@?$vector@PEAVChunk@RIFF@@V?$allocator@PEAVChunk@RIFF@@@std@@@std@@IEAAX_K@Z 0000000180012d5c f i RIFF.obj
 0001:00011ddc       ?clear@?$_Tree@V?$_Tmap_traits@V?$basic_string@DU?$char_traits@D@std@@V?$allocator@D@2@@std@@V12@U?$less@V?$basic_string@DU?$char_traits@D@std@@V?$allocator@D@2@@std@@@2@V?$allocator@U?$pair@$$CBV?$basic_string@DU?$char_traits@D@std@@V?$allocator@D@2@@std@@V12@@std@@@2@$0A@@std@@@std@@QEAAXXZ 0000000180012ddc f i XML_Node.obj
 0001:00011e68       ?_Buyheadnode@?$_Tree_comp_alloc@V?$_Tmap_traits@V?$basic_string@DU?$char_traits@D@std@@V?$allocator@D@2@@std@@V12@U?$less@V?$basic_string@DU?$char_traits@D@std@@V?$allocator@D@2@@std@@@2@V?$allocator@U?$pair@$$CBV?$basic_string@DU?$char_traits@D@std@@V?$allocator@D@2@@std@@V12@@std@@@2@$0A@@std@@@std@@QEAAPEAU?$_Tree_node@U?$pair@$$CBV?$basic_string@DU?$char_traits@D@std@@V?$allocator@D@2@@std@@V12@@std@@PEAX@2@XZ 0000000180012e68 f i XML_Node.obj
 0001:00011e68       ?_Buyheadnode@?$_Tree_comp_alloc@V?$_Tmap_traits@UGUID_32@JPEG_MetaHandler@@V?$basic_string@DU?$char_traits@D@std@@V?$allocator@D@2@@std@@U?$less@UGUID_32@JPEG_MetaHandler@@@4@V?$allocator@U?$pair@$$CBUGUID_32@JPEG_MetaHandler@@V?$basic_string@DU?$char_traits@D@std@@V?$allocator@D@2@@std@@@std@@@4@$0A@@std@@@std@@QEAAPEAU?$_Tree_node@U?$pair@$$CBUGUID_32@JPEG_MetaHandler@@V?$basic_string@DU?$char_traits@D@std@@V?$allocator@D@2@@std@@@std@@PEAX@2@XZ 0000000180012e68 f i JPEG_Handler.obj
 0001:00011ea4       ?_Erase@?$_Tree@V?$_Tmap_traits@V?$basic_string@DU?$char_traits@D@std@@V?$allocator@D@2@@std@@V12@U?$less@V?$basic_string@DU?$char_traits@D@std@@V?$allocator@D@2@@std@@@2@V?$allocator@U?$pair@$$CBV?$basic_string@DU?$char_traits@D@std@@V?$allocator@D@2@@std@@V12@@std@@@2@$0A@@std@@@std@@IEAAXPEAU?$_Tree_node@U?$pair@$$CBV?$basic_string@DU?$char_traits@D@std@@V?$allocator@D@2@@std@@V12@@std@@PEAX@2@@Z 0000000180012ea4 f i XML_Node.obj
 0001:00011f04       ??1?$pair@V?$basic_string@DU?$char_traits@D@std@@V?$allocator@D@2@@std@@V12@@std@@QEAA@XZ 0000000180012f04 f i XMP_LibUtils.obj
 0001:00011f04       ??1?$pair@$$CBV?$basic_string@DU?$char_traits@D@std@@V?$allocator@D@2@@std@@V12@@std@@QEAA@XZ 0000000180012f04 f i XML_Node.obj
 0001:00011f98       ??$_Buynode@AEBUpiecewise_construct_t@std@@V?$tuple@AEBV?$basic_string@DU?$char_traits@D@std@@V?$allocator@D@2@@std@@@2@V?$tuple@$$V@2@@?$_Tree_comp_alloc@V?$_Tmap_traits@V?$basic_string@DU?$char_traits@D@std@@V?$allocator@D@2@@std@@V12@U?$less@V?$basic_string@DU?$char_traits@D@std@@V?$allocator@D@2@@std@@@2@V?$allocator@U?$pair@$$CBV?$basic_string@DU?$char_traits@D@std@@V?$allocator@D@2@@std@@V12@@std@@@2@$0A@@std@@@std@@QEAAPEAU?$_Tree_node@U?$pair@$$CBV?$basic_string@DU?$char_traits@D@std@@V?$allocator@D@2@@std@@V12@@std@@PEAX@1@AEBUpiecewise_construct_t@1@$$QEAV?$tuple@AEBV?$basic_string@DU?$char_traits@D@std@@V?$allocator@D@2@@std@@@1@$$QEAV?$tuple@$$V@1@@Z 0000000180012f98 f i XML_Node.obj
 0001:00012030       ??$_Insert_hint@AEAU?$pair@$$CBV?$basic_string@DU?$char_traits@D@std@@V?$allocator@D@2@@std@@V12@@std@@PEAU?$_Tree_node@U?$pair@$$CBV?$basic_string@DU?$char_traits@D@std@@V?$allocator@D@2@@std@@V12@@std@@PEAX@2@@?$_Tree@V?$_Tmap_traits@V?$basic_string@DU?$char_traits@D@std@@V?$allocator@D@2@@std@@V12@U?$less@V?$basic_string@DU?$char_traits@D@std@@V?$allocator@D@2@@std@@@2@V?$allocator@U?$pair@$$CBV?$basic_string@DU?$char_traits@D@std@@V?$allocator@D@2@@std@@V12@@std@@@2@$0A@@std@@@std@@IEAA?AV?$_Tree_iterator@V?$_Tree_val@U?$_Tree_simple_types@U?$pair@$$CBV?$basic_string@DU?$char_traits@D@std@@V?$allocator@D@2@@std@@V12@@std@@@std@@@std@@@1@V?$_Tree_const_iterator@V?$_Tree_val@U?$_Tree_simple_types@U?$pair@$$CBV?$basic_string@DU?$char_traits@D@std@@V?$allocator@D@2@@std@@V12@@std@@@std@@@std@@@1@AEAU?$pair@$$CBV?$basic_string@DU?$char_traits@D@std@@V?$allocator@D@2@@std@@V12@@1@PEAU?$_Tree_node@U?$pair@$$CBV?$basic_string@DU?$char_traits@D@std@@V?$allocator@D@2@@std@@V12@@std@@PEAX@1@@Z 0000000180013030 f i XML_Node.obj
 0001:000122cc       ?_Buynode0@?$_Tree_comp_alloc@V?$_Tmap_traits@UGUID_32@JPEG_MetaHandler@@V?$basic_string@DU?$char_traits@D@std@@V?$allocator@D@2@@std@@U?$less@UGUID_32@JPEG_MetaHandler@@@4@V?$allocator@U?$pair@$$CBUGUID_32@JPEG_MetaHandler@@V?$basic_string@DU?$char_traits@D@std@@V?$allocator@D@2@@std@@@std@@@4@$0A@@std@@@std@@QEAAPEAU?$_Tree_node@U?$pair@$$CBUGUID_32@JPEG_MetaHandler@@V?$basic_string@DU?$char_traits@D@std@@V?$allocator@D@2@@std@@@std@@PEAX@2@XZ 00000001800132cc f i JPEG_Handler.obj
 0001:000122cc       ?_Buynode0@?$_Tree_comp_alloc@V?$_Tmap_traits@V?$basic_string@DU?$char_traits@D@std@@V?$allocator@D@2@@std@@V12@U?$less@V?$basic_string@DU?$char_traits@D@std@@V?$allocator@D@2@@std@@@2@V?$allocator@U?$pair@$$CBV?$basic_string@DU?$char_traits@D@std@@V?$allocator@D@2@@std@@V12@@std@@@2@$0A@@std@@@std@@QEAAPEAU?$_Tree_node@U?$pair@$$CBV?$basic_string@DU?$char_traits@D@std@@V?$allocator@D@2@@std@@V12@@std@@PEAX@2@XZ 00000001800132cc f i XML_Node.obj
 0001:00012314       ??$_Insert_at@AEAU?$pair@$$CBV?$basic_string@DU?$char_traits@D@std@@V?$allocator@D@2@@std@@V12@@std@@PEAU?$_Tree_node@U?$pair@$$CBV?$basic_string@DU?$char_traits@D@std@@V?$allocator@D@2@@std@@V12@@std@@PEAX@2@@?$_Tree@V?$_Tmap_traits@V?$basic_string@DU?$char_traits@D@std@@V?$allocator@D@2@@std@@V12@U?$less@V?$basic_string@DU?$char_traits@D@std@@V?$allocator@D@2@@std@@@2@V?$allocator@U?$pair@$$CBV?$basic_string@DU?$char_traits@D@std@@V?$allocator@D@2@@std@@V12@@std@@@2@$0A@@std@@@std@@IEAA?AV?$_Tree_iterator@V?$_Tree_val@U?$_Tree_simple_types@U?$pair@$$CBV?$basic_string@DU?$char_traits@D@std@@V?$allocator@D@2@@std@@V12@@std@@@std@@@std@@@1@_NPEAU?$_Tree_node@U?$pair@$$CBV?$basic_string@DU?$char_traits@D@std@@V?$allocator@D@2@@std@@V12@@std@@PEAX@1@AEAU?$pair@$$CBV?$basic_string@DU?$char_traits@D@std@@V?$allocator@D@2@@std@@V12@@1@1@Z 0000000180013314 f i XML_Node.obj
 0001:000125a4       ??$_Insert_nohint@AEAU?$pair@$$CBV?$basic_string@DU?$char_traits@D@std@@V?$allocator@D@2@@std@@V12@@std@@PEAU?$_Tree_node@U?$pair@$$CBV?$basic_string@DU?$char_traits@D@std@@V?$allocator@D@2@@std@@V12@@std@@PEAX@2@@?$_Tree@V?$_Tmap_traits@V?$basic_string@DU?$char_traits@D@std@@V?$allocator@D@2@@std@@V12@U?$less@V?$basic_string@DU?$char_traits@D@std@@V?$allocator@D@2@@std@@@2@V?$allocator@U?$pair@$$CBV?$basic_string@DU?$char_traits@D@std@@V?$allocator@D@2@@std@@V12@@std@@@2@$0A@@std@@@std@@IEAA?AU?$pair@V?$_Tree_iterator@V?$_Tree_val@U?$_Tree_simple_types@U?$pair@$$CBV?$basic_string@DU?$char_traits@D@std@@V?$allocator@D@2@@std@@V12@@std@@@std@@@std@@@std@@_N@1@_NAEAU?$pair@$$CBV?$basic_string@DU?$char_traits@D@std@@V?$allocator@D@2@@std@@V12@@1@PEAU?$_Tree_node@U?$pair@$$CBV?$basic_string@DU?$char_traits@D@std@@V?$allocator@D@2@@std@@V12@@std@@PEAX@1@@Z 00000001800135a4 f i XML_Node.obj
 0001:0001270c       ??1XMP_AutoMutex@@QEAA@XZ  000000018001370c f i XMP_LibUtils.obj
 0001:00012730       ??1XMP_NamespaceTable@@UEAA@XZ 0000000180013730 f i XMP_LibUtils.obj
 0001:000127a4       ??_GXMP_NamespaceTable@@UEAAPEAXI@Z 00000001800137a4 f i XMP_LibUtils.obj
 0001:000127a4       ??_EXMP_NamespaceTable@@UEAAPEAXI@Z 00000001800137a4 f i * CIL library *:* CIL module *
 0001:0001287c       ??0XMP_ReadWriteLock@@QEAA@XZ 000000018001387c f   XMP_LibUtils.obj
 0001:000128dc       ??1XMP_ReadWriteLock@@QEAA@XZ 00000001800138dc f   XMP_LibUtils.obj
 0001:00012908       ??0XMP_WinXP_HGQueue@@QEAA@XZ 0000000180013908 f   XMP_LibUtils.obj
 0001:00012970       ??1XMP_WinXP_HGQueue@@QEAA@XZ 0000000180013970 f   XMP_LibUtils.obj
 0001:0001297c       ?Wait@XMP_WinXP_HGQueue@@QEAAXAEAU_RTL_CRITICAL_SECTION@@@Z 000000018001397c f   XMP_LibUtils.obj
 0001:00012a38       ?ReleaseAll@XMP_WinXP_HGQueue@@QEAAXXZ 0000000180013a38 f   XMP_LibUtils.obj
 0001:00012a80       ?Define@XMP_NamespaceTable@@QEAA_NPEBD0PEAPEBDPEAK@Z 0000000180013a80 f   XMP_LibUtils.obj
 0001:00012f90       ?GetPrefix@XMP_NamespaceTable@@QEBA_NPEBDPEAPEBDPEAK@Z 0000000180013f90 f   XMP_LibUtils.obj
 0001:0001310c       ?find@?$_Tree@V?$_Tmap_traits@V?$basic_string@DU?$char_traits@D@std@@V?$allocator@D@2@@std@@UOffsetStruct@@U?$less@V?$basic_string@DU?$char_traits@D@std@@V?$allocator@D@2@@std@@@2@V?$allocator@U?$pair@$$CBV?$basic_string@DU?$char_traits@D@std@@V?$allocator@D@2@@std@@UOffsetStruct@@@std@@@2@$0A@@std@@@std@@QEAA?AV?$_Tree_iterator@V?$_Tree_val@U?$_Tree_simple_types@U?$pair@$$CBV?$basic_string@DU?$char_traits@D@std@@V?$allocator@D@2@@std@@UOffsetStruct@@@std@@@std@@@std@@@2@AEBV?$basic_string@DU?$char_traits@D@std@@V?$allocator@D@2@@2@@Z 000000018001410c f i SVG_Adapter.obj
 0001:0001310c       ?find@?$_Tree@V?$_Tmap_traits@V?$basic_string@DU?$char_traits@D@std@@V?$allocator@D@2@@std@@V12@U?$less@V?$basic_string@DU?$char_traits@D@std@@V?$allocator@D@2@@std@@@2@V?$allocator@U?$pair@$$CBV?$basic_string@DU?$char_traits@D@std@@V?$allocator@D@2@@std@@V12@@std@@@2@$0A@@std@@@std@@QEBA?AV?$_Tree_const_iterator@V?$_Tree_val@U?$_Tree_simple_types@U?$pair@$$CBV?$basic_string@DU?$char_traits@D@std@@V?$allocator@D@2@@std@@V12@@std@@@std@@@std@@@2@AEBV?$basic_string@DU?$char_traits@D@std@@V?$allocator@D@2@@2@@Z 000000018001410c f i XMP_LibUtils.obj
 0001:00013194       ??$_Buynode@AEAU?$pair@V?$basic_string@DU?$char_traits@D@std@@V?$allocator@D@2@@std@@V12@@std@@@?$_Tree_comp_alloc@V?$_Tmap_traits@V?$basic_string@DU?$char_traits@D@std@@V?$allocator@D@2@@std@@V12@U?$less@V?$basic_string@DU?$char_traits@D@std@@V?$allocator@D@2@@std@@@2@V?$allocator@U?$pair@$$CBV?$basic_string@DU?$char_traits@D@std@@V?$allocator@D@2@@std@@V12@@std@@@2@$0A@@std@@@std@@QEAAPEAU?$_Tree_node@U?$pair@$$CBV?$basic_string@DU?$char_traits@D@std@@V?$allocator@D@2@@std@@V12@@std@@PEAX@1@AEAU?$pair@V?$basic_string@DU?$char_traits@D@std@@V?$allocator@D@2@@std@@V12@@1@@Z 0000000180014194 f i XMP_LibUtils.obj
 0001:00013240       ??0XMP_ProgressTracker@@QEAA@AEBUCallbackInfo@0@@Z 0000000180014240 f   XMP_ProgressTracker.obj
 0001:00013290       ?BeginWork@XMP_ProgressTracker@@QEAAXM@Z 0000000180014290 f   XMP_ProgressTracker.obj
 0001:000132d0       ?WorkComplete@XMP_ProgressTracker@@QEAAXXZ 00000001800142d0 f   XMP_ProgressTracker.obj
 0001:00013308       ?NotifyClient@XMP_ProgressTracker@@AEAAX_N@Z 0000000180014308 f   XMP_ProgressTracker.obj
 0001:00013448       ?NotifyClient@GenericErrorCallback@@QEBAXEAEAVXMP_Error@@PEBD@Z 0000000180014448 f i XMPFiles.obj
 0001:0001351c       ??_GGenericErrorCallback@@UEAAPEAXI@Z 000000018001451c f i XMPFiles.obj
 0001:0001351c       ??_EGenericErrorCallback@@UEAAPEAXI@Z 000000018001451c f i * CIL library *:* CIL module *
 0001:00013548       ?SetFilePath@XMPFiles@@QEAAXPEBD@Z 0000000180014548 f i XMPFiles.obj
 0001:000135b8       ??_GErrorCallbackInfo@XMPFiles@@UEAAPEAXI@Z 00000001800145b8 f i XMPFiles.obj
 0001:000135b8       ??_EErrorCallbackInfo@XMPFiles@@UEAAPEAXI@Z 00000001800145b8 f i * CIL library *:* CIL module *
 0001:00013644       ??1ErrorCallbackInfo@XMPFiles@@UEAA@XZ 0000000180014644 f i XMPFiles.obj
 0001:000136ac       ?GetVersionInfo@XMPFiles@@SAXPEAUXMP_VersionInfo@@@Z 00000001800146ac f   XMPFiles.obj
 0001:000136e8       ?Initialize@XMPFiles@@SA_NKPEBD0@Z 00000001800146e8 f   XMPFiles.obj
 0001:00013920       ?Terminate@XMPFiles@@SAXXZ 0000000180014920 f   XMPFiles.obj
 0001:00013a30       ??0XMPFiles@@QEAA@XZ       0000000180014a30 f   XMPFiles.obj
 0001:00013bc0       ??_GXMPFiles@@UEAAPEAXI@Z  0000000180014bc0 f i XMPFiles.obj
 0001:00013bc0       ??_EXMPFiles@@UEAAPEAXI@Z  0000000180014bc0 f i * CIL library *:* CIL module *
 0001:00013bf4       ??1XMPFiles@@UEAA@XZ       0000000180014bf4 f   XMPFiles.obj
 0001:00013d34       ?GetFormatInfo@XMPFiles@@SA_NKPEAK@Z 0000000180014d34 f   XMPFiles.obj
 0001:00013d94       ?CheckFileFormat@XMPFiles@@SAKPEBD@Z 0000000180014d94 f   XMPFiles.obj
 0001:00013e98       ?CheckPackageFormat@XMPFiles@@SAKPEBD@Z 0000000180014e98 f   XMPFiles.obj
 0001:00014200       ?GetFileModDate@XMPFiles@@SA_NPEBDPEAUXMP_DateTime@@PEAKK@Z 0000000180015200 f   XMPFiles.obj
 0001:00014434       ?GetFileModDate@XMPFiles@@SA_NAEBUXMPFileHandlerInfo@Common@@PEBDPEAUXMP_DateTime@@K@Z 0000000180015434 f   XMPFiles.obj
 0001:000146a8       ?GetAssociatedResources@XMPFiles@@SA_NPEBDPEAV?$vector@V?$basic_string@DU?$char_traits@D@std@@V?$allocator@D@2@@std@@V?$allocator@V?$basic_string@DU?$char_traits@D@std@@V?$allocator@D@2@@std@@@2@@std@@KK@Z 00000001800156a8 f   XMPFiles.obj
 0001:000147d0       ?GetAssociatedResources@XMPFiles@@SA_NAEBUXMPFileHandlerInfo@Common@@PEBDPEAV?$vector@V?$basic_string@DU?$char_traits@D@std@@V?$allocator@D@2@@std@@V?$allocator@V?$basic_string@DU?$char_traits@D@std@@V?$allocator@D@2@@std@@@2@@std@@K@Z 00000001800157d0 f   XMPFiles.obj
 0001:00014954       ?IsMetadataWritable@XMPFiles@@SA_NPEBDPEAEKK@Z 0000000180015954 f   XMPFiles.obj
 0001:00014b00       ?IsMetadataWritable@XMPFiles@@SA_NAEBUXMPFileHandlerInfo@Common@@PEBDPEAEK@Z 0000000180015b00 f   XMPFiles.obj
 0001:00015314       ?OpenFile@XMPFiles@@QEAA_NPEBDKK@Z 0000000180016314 f   XMPFiles.obj
 0001:00015344       ?OpenFile@XMPFiles@@QEAA_NAEBUXMPFileHandlerInfo@Common@@PEBDK@Z 0000000180016344 f   XMPFiles.obj
 0001:00015374       ?CloseFile@XMPFiles@@QEAAXK@Z 0000000180016374 f   XMPFiles.obj
 0001:000156a8       ?GetFileInfo@XMPFiles@@QEBA_NPEAPEBDPEAK111@Z 00000001800166a8 f   XMPFiles.obj
 0001:00015740       ?SetAbortProc@XMPFiles@@QEAAXP6A_NPEAX@Z0@Z 0000000180016740 f   XMPFiles.obj
 0001:00015750       ?GetXMP@XMPFiles@@QEAA_NPEAV?$TXMPMeta@V?$basic_string@DU?$char_traits@D@std@@V?$allocator@D@2@@std@@@@PEAPEBDPEAKPEAUXMP_PacketInfo@@@Z 0000000180016750 f   XMPFiles.obj
 0001:00015b1c       ?PutXMP@XMPFiles@@QEAAXAEBV?$TXMPMeta@V?$basic_string@DU?$char_traits@D@std@@V?$allocator@D@2@@std@@@@@Z 0000000180016b1c f   XMPFiles.obj
 0001:00015b3c       ?PutXMP@XMPFiles@@QEAAXPEBDK@Z 0000000180016b3c f   XMPFiles.obj
 0001:00015bb8       ?CanPutXMP@XMPFiles@@QEAA_NAEBV?$TXMPMeta@V?$basic_string@DU?$char_traits@D@std@@V?$allocator@D@2@@std@@@@@Z 0000000180016bb8 f   XMPFiles.obj
 0001:00015c44       ?CanPutXMP@XMPFiles@@QEAA_NPEBDK@Z 0000000180016c44 f   XMPFiles.obj
 0001:00015cc8       ?SetDefaultProgressCallback@XMPFiles@@SAXAEBUCallbackInfo@XMP_ProgressTracker@@@Z 0000000180016cc8 f   XMPFiles.obj
 0001:00015ce0       ?SetProgressCallback@XMPFiles@@QEAAXAEBUCallbackInfo@XMP_ProgressTracker@@@Z 0000000180016ce0 f   XMPFiles.obj
 0001:00015dac       ?SetDefaultErrorCallback@XMPFiles@@SAXP6AEP6A_NPEAXPEBDEJ1@Z01EJ1@Z20K@Z 0000000180016dac f   XMPFiles.obj
 0001:00015dcc       ?SetErrorCallback@XMPFiles@@QEAAXP6AEP6A_NPEAXPEBDEJ1@Z01EJ1@Z20K@Z 0000000180016dcc f   XMPFiles.obj
 0001:00015e58       ?ResetErrorCallbackLimit@XMPFiles@@QEAAXK@Z 0000000180016e58 f   XMPFiles.obj
 0001:00015edc       ?CanNotify@ErrorCallbackInfo@XMPFiles@@UEBA_NXZ 0000000180016edc f   XMPFiles.obj
 0001:00015ee8       ?ClientCallbackWrapper@ErrorCallbackInfo@XMPFiles@@UEBA_NPEBDEJ0@Z 0000000180016ee8 f   XMPFiles.obj
 0001:00015f30       ?ErrorCallbackForXMPMeta@@YA_NPEAXEJPEBD@Z 0000000180016f30 f   XMPFiles.obj
 0001:000160d4       ?FillPacketInfo@@YAXAEBV?$basic_string@DU?$char_traits@D@std@@V?$allocator@D@2@@std@@PEAUXMP_PacketInfo@@@Z 00000001800170d4 f   XMPFiles_Impl.obj
 0001:000161c8       ?GetFileModDate@XMPFileHandler@@UEAA_NPEAUXMP_DateTime@@@Z 00000001800171c8 f   XMPFiles_Impl.obj
 0001:00016254       ?FillMetadataFiles@XMPFileHandler@@UEAAXPEAV?$vector@V?$basic_string@DU?$char_traits@D@std@@V?$allocator@D@2@@std@@V?$allocator@V?$basic_string@DU?$char_traits@D@std@@V?$allocator@D@2@@std@@@2@@std@@@Z 0000000180017254 f   XMPFiles_Impl.obj
 0001:000163d0       ?FillAssociatedResources@XMPFileHandler@@UEAAXPEAV?$vector@V?$basic_string@DU?$char_traits@D@std@@V?$allocator@D@2@@std@@V?$allocator@V?$basic_string@DU?$char_traits@D@std@@V?$allocator@D@2@@std@@@2@@std@@@Z 00000001800173d0 f   XMPFiles_Impl.obj
 0001:0001654c       ?IsMetadataWritable@XMPFileHandler@@UEAA_NXZ 000000018001754c f   XMPFiles_Impl.obj
 0001:000165ec       ?ProcessXMP@XMPFileHandler@@UEAAXXZ 00000001800175ec f   XMPFiles_Impl.obj
 0001:00016670       ?GetSerializeOptions@XMPFileHandler@@UEAAKXZ 0000000180017670 f   XMPFiles_Impl.obj
 0001:00016678       ?NotifyClient@XMPFileHandler@@SAXPEAVGenericErrorCallback@@EAEAVXMP_Error@@@Z 0000000180017678 f   XMPFiles_Impl.obj
 0001:000166bc       ??0?$TXMPMeta@V?$basic_string@DU?$char_traits@D@std@@V?$allocator@D@2@@std@@@@QEAA@PEBDK@Z 00000001800176bc f i XMPFiles_Impl.obj
 0001:0001671c       ??0?$TXMPMeta@V?$basic_string@DU?$char_traits@D@std@@V?$allocator@D@2@@std@@@@QEAA@XZ 000000018001771c f i XMPFiles_Impl.obj
 0001:00016744       ??1?$TXMPMeta@V?$basic_string@DU?$char_traits@D@std@@V?$allocator@D@2@@std@@@@UEAA@XZ 0000000180017744 f i XMPFiles_Impl.obj
 0001:0001676c       ?RegisterNamespace@?$TXMPMeta@V?$basic_string@DU?$char_traits@D@std@@V?$allocator@D@2@@std@@@@SA_NPEBD0PEAV?$basic_string@DU?$char_traits@D@std@@V?$allocator@D@2@@std@@@Z 000000018001776c f i XMPFiles_Impl.obj
 0001:000167e8       ?GetProperty@?$TXMPMeta@V?$basic_string@DU?$char_traits@D@std@@V?$allocator@D@2@@std@@@@QEBA_NPEBD0PEAV?$basic_string@DU?$char_traits@D@std@@V?$allocator@D@2@@std@@PEAK@Z 00000001800177e8 f i XMPFiles_Impl.obj
 0001:0001686c       ?GetArrayItem@?$TXMPMeta@V?$basic_string@DU?$char_traits@D@std@@V?$allocator@D@2@@std@@@@QEBA_NPEBD0JPEAV?$basic_string@DU?$char_traits@D@std@@V?$allocator@D@2@@std@@PEAK@Z 000000018001786c f i XMPFiles_Impl.obj
 0001:000168f4       ?GetStructField@?$TXMPMeta@V?$basic_string@DU?$char_traits@D@std@@V?$allocator@D@2@@std@@@@QEBA_NPEBD000PEAV?$basic_string@DU?$char_traits@D@std@@V?$allocator@D@2@@std@@PEAK@Z 00000001800178f4 f i XMPFiles_Impl.obj
 0001:00016988       ?GetQualifier@?$TXMPMeta@V?$basic_string@DU?$char_traits@D@std@@V?$allocator@D@2@@std@@@@QEBA_NPEBD000PEAV?$basic_string@DU?$char_traits@D@std@@V?$allocator@D@2@@std@@PEAK@Z 0000000180017988 f i XMPFiles_Impl.obj
 0001:00016a28       ?SetProperty@?$TXMPMeta@V?$basic_string@DU?$char_traits@D@std@@V?$allocator@D@2@@std@@@@QEAAXPEBD00K@Z 0000000180017a28 f i XMPFiles_Impl.obj
 0001:00016a98       ?AppendArrayItem@?$TXMPMeta@V?$basic_string@DU?$char_traits@D@std@@V?$allocator@D@2@@std@@@@QEAAXPEBD0KAEBV?$basic_string@DU?$char_traits@D@std@@V?$allocator@D@2@@std@@K@Z 0000000180017a98 f i XMPFiles_Impl.obj
 0001:00016ac8       ?AppendArrayItem@?$TXMPMeta@V?$basic_string@DU?$char_traits@D@std@@V?$allocator@D@2@@std@@@@QEAAXPEBD0K0K@Z 0000000180017ac8 f i XMPFiles_Impl.obj
 0001:00016b4c       ?SetStructField@?$TXMPMeta@V?$basic_string@DU?$char_traits@D@std@@V?$allocator@D@2@@std@@@@QEAAXPEBD000AEBV?$basic_string@DU?$char_traits@D@std@@V?$allocator@D@2@@std@@K@Z 0000000180017b4c f i XMPFiles_Impl.obj
 0001:00016b80       ?SetStructField@?$TXMPMeta@V?$basic_string@DU?$char_traits@D@std@@V?$allocator@D@2@@std@@@@QEAAXPEBD0000K@Z 0000000180017b80 f i XMPFiles_Impl.obj
 0001:00016c10       ?DeleteProperty@?$TXMPMeta@V?$basic_string@DU?$char_traits@D@std@@V?$allocator@D@2@@std@@@@QEAAXPEBD0@Z 0000000180017c10 f i XMPFiles_Impl.obj
 0001:00016c70       ?DoesPropertyExist@?$TXMPMeta@V?$basic_string@DU?$char_traits@D@std@@V?$allocator@D@2@@std@@@@QEBA_NPEBD0@Z 0000000180017c70 f i XMPFiles_Impl.obj
 0001:00016cd4       ?DoesArrayItemExist@?$TXMPMeta@V?$basic_string@DU?$char_traits@D@std@@V?$allocator@D@2@@std@@@@QEBA_NPEBD0J@Z 0000000180017cd4 f i XMPFiles_Impl.obj
 0001:00016d40       ?DoesStructFieldExist@?$TXMPMeta@V?$basic_string@DU?$char_traits@D@std@@V?$allocator@D@2@@std@@@@QEBA_NPEBD000@Z 0000000180017d40 f i XMPFiles_Impl.obj
 0001:00016db0       ?GetProperty_Bool@?$TXMPMeta@V?$basic_string@DU?$char_traits@D@std@@V?$allocator@D@2@@std@@@@QEBA_NPEBD0PEA_NPEAK@Z 0000000180017db0 f i XMPFiles_Impl.obj
 0001:00016e4c       ?GetProperty_Int@?$TXMPMeta@V?$basic_string@DU?$char_traits@D@std@@V?$allocator@D@2@@std@@@@QEBA_NPEBD0PEAJPEAK@Z 0000000180017e4c f i XMPFiles_Impl.obj
 0001:00016eb8       ?GetProperty_Int64@?$TXMPMeta@V?$basic_string@DU?$char_traits@D@std@@V?$allocator@D@2@@std@@@@QEBA_NPEBD0PEA_JPEAK@Z 0000000180017eb8 f i XMPFiles_Impl.obj
 0001:00016f28       ?GetProperty_Date@?$TXMPMeta@V?$basic_string@DU?$char_traits@D@std@@V?$allocator@D@2@@std@@@@QEBA_NPEBD0PEAUXMP_DateTime@@PEAK@Z 0000000180017f28 f i XMPFiles_Impl.obj
 0001:00016f98       ?SetProperty_Bool@?$TXMPMeta@V?$basic_string@DU?$char_traits@D@std@@V?$allocator@D@2@@std@@@@QEAAXPEBD0_NK@Z 0000000180017f98 f i XMPFiles_Impl.obj
 0001:00017008       ?SetProperty_Int@?$TXMPMeta@V?$basic_string@DU?$char_traits@D@std@@V?$allocator@D@2@@std@@@@QEAAXPEBD0JK@Z 0000000180018008 f i XMPFiles_Impl.obj
 0001:00017070       ?SetProperty_Int64@?$TXMPMeta@V?$basic_string@DU?$char_traits@D@std@@V?$allocator@D@2@@std@@@@QEAAXPEBD0_JK@Z 0000000180018070 f i XMPFiles_Impl.obj
 0001:000170d8       ?SetProperty_Float@?$TXMPMeta@V?$basic_string@DU?$char_traits@D@std@@V?$allocator@D@2@@std@@@@QEAAXPEBD0NK@Z 00000001800180d8 f i XMPFiles_Impl.obj
 0001:00017140       ?SetProperty_Date@?$TXMPMeta@V?$basic_string@DU?$char_traits@D@std@@V?$allocator@D@2@@std@@@@QEAAXPEBD0AEBUXMP_DateTime@@K@Z 0000000180018140 f i XMPFiles_Impl.obj
 0001:000171a8       ?GetLocalizedText@?$TXMPMeta@V?$basic_string@DU?$char_traits@D@std@@V?$allocator@D@2@@std@@@@QEBA_NPEBD000PEAV?$basic_string@DU?$char_traits@D@std@@V?$allocator@D@2@@std@@1PEAK@Z 00000001800181a8 f i XMPFiles_Impl.obj
 0001:00017244       ?SetLocalizedText@?$TXMPMeta@V?$basic_string@DU?$char_traits@D@std@@V?$allocator@D@2@@std@@@@QEAAXPEBD0000K@Z 0000000180018244 f i XMPFiles_Impl.obj
 0001:000172d4       ?ParseFromBuffer@?$TXMPMeta@V?$basic_string@DU?$char_traits@D@std@@V?$allocator@D@2@@std@@@@QEAAXPEBDKK@Z 00000001800182d4 f i XMPFiles_Impl.obj
 0001:00017338       ?SerializeToBuffer@?$TXMPMeta@V?$basic_string@DU?$char_traits@D@std@@V?$allocator@D@2@@std@@@@QEBAXPEAV?$basic_string@DU?$char_traits@D@std@@V?$allocator@D@2@@std@@KK@Z 0000000180018338 f i XMPFiles_Impl.obj
 0001:000173c8       ?Erase@?$TXMPMeta@V?$basic_string@DU?$char_traits@D@std@@V?$allocator@D@2@@std@@@@QEAAXXZ 00000001800183c8 f i XMPFiles_Impl.obj
 0001:00017428       ?Clone@?$TXMPMeta@V?$basic_string@DU?$char_traits@D@std@@V?$allocator@D@2@@std@@@@QEBA?AV1@K@Z 0000000180018428 f i XMPFiles_Impl.obj
 0001:000174b4       ?CountArrayItems@?$TXMPMeta@V?$basic_string@DU?$char_traits@D@std@@V?$allocator@D@2@@std@@@@QEBAJPEBD0@Z 00000001800184b4 f i XMPFiles_Impl.obj
 0001:00017510       ?SetErrorCallback@?$TXMPMeta@V?$basic_string@DU?$char_traits@D@std@@V?$allocator@D@2@@std@@@@QEAAXP6A_NPEAXEJPEBD@Z0K@Z 0000000180018510 f i XMPFiles_Impl.obj
 0001:0001758c       ?SetClientString@?$TXMPMeta@V?$basic_string@DU?$char_traits@D@std@@V?$allocator@D@2@@std@@@@CAXPEAXPEBDK@Z 000000018001858c f i XMPFiles_Impl.obj
 0001:0001758c       ?SetClientString@?$TXMPUtils@V?$basic_string@DU?$char_traits@D@std@@V?$allocator@D@2@@std@@@@CAXPEAXPEBDK@Z 000000018001858c f i XMPFiles_Impl.obj
 0001:00017594       ?ComposeArrayItemPath@?$TXMPUtils@V?$basic_string@DU?$char_traits@D@std@@V?$allocator@D@2@@std@@@@SAXPEBD0JPEAV?$basic_string@DU?$char_traits@D@std@@V?$allocator@D@2@@std@@@Z 0000000180018594 f i XMPFiles_Impl.obj
 0001:00017600       ?ComposeStructFieldPath@?$TXMPUtils@V?$basic_string@DU?$char_traits@D@std@@V?$allocator@D@2@@std@@@@SAXPEBD000PEAV?$basic_string@DU?$char_traits@D@std@@V?$allocator@D@2@@std@@@Z 0000000180018600 f i XMPFiles_Impl.obj
 0001:00017680       ?ConvertFromInt@?$TXMPUtils@V?$basic_string@DU?$char_traits@D@std@@V?$allocator@D@2@@std@@@@SAXJPEBDPEAV?$basic_string@DU?$char_traits@D@std@@V?$allocator@D@2@@std@@@Z 0000000180018680 f i XMPFiles_Impl.obj
 0001:000176e8       ?ConvertFromInt64@?$TXMPUtils@V?$basic_string@DU?$char_traits@D@std@@V?$allocator@D@2@@std@@@@SAX_JPEBDPEAV?$basic_string@DU?$char_traits@D@std@@V?$allocator@D@2@@std@@@Z 00000001800186e8 f i XMPFiles_Impl.obj
 0001:00017758       ?ConvertFromFloat@?$TXMPUtils@V?$basic_string@DU?$char_traits@D@std@@V?$allocator@D@2@@std@@@@SAXNPEBDPEAV?$basic_string@DU?$char_traits@D@std@@V?$allocator@D@2@@std@@@Z 0000000180018758 f i XMPFiles_Impl.obj
 0001:000177c8       ?ConvertFromDate@?$TXMPUtils@V?$basic_string@DU?$char_traits@D@std@@V?$allocator@D@2@@std@@@@SAXAEBUXMP_DateTime@@PEAV?$basic_string@DU?$char_traits@D@std@@V?$allocator@D@2@@std@@@Z 00000001800187c8 f i XMPFiles_Impl.obj
 0001:0001782c       ?ConvertToBool@?$TXMPUtils@V?$basic_string@DU?$char_traits@D@std@@V?$allocator@D@2@@std@@@@SA_NAEBV?$basic_string@DU?$char_traits@D@std@@V?$allocator@D@2@@std@@@Z 000000018001882c f i XMPFiles_Impl.obj
 0001:00017894       ?ConvertToInt@?$TXMPUtils@V?$basic_string@DU?$char_traits@D@std@@V?$allocator@D@2@@std@@@@SAJPEBD@Z 0000000180018894 f i XMPFiles_Impl.obj
 0001:000178ec       ?ConvertToInt64@?$TXMPUtils@V?$basic_string@DU?$char_traits@D@std@@V?$allocator@D@2@@std@@@@SA_JPEBD@Z 00000001800188ec f i XMPFiles_Impl.obj
 0001:00017948       ?ConvertToDate@?$TXMPUtils@V?$basic_string@DU?$char_traits@D@std@@V?$allocator@D@2@@std@@@@SAXPEBDPEAUXMP_DateTime@@@Z 0000000180018948 f i XMPFiles_Impl.obj
 0001:000179a4       ?ConvertToUTCTime@?$TXMPUtils@V?$basic_string@DU?$char_traits@D@std@@V?$allocator@D@2@@std@@@@SAXPEAUXMP_DateTime@@@Z 00000001800189a4 f i XMPFiles_Impl.obj
 0001:00017a00       ?CompareDateTime@?$TXMPUtils@V?$basic_string@DU?$char_traits@D@std@@V?$allocator@D@2@@std@@@@SAHAEBUXMP_DateTime@@0@Z 0000000180018a00 f i XMPFiles_Impl.obj
 0001:00017a58       ?CatenateArrayItems@?$TXMPUtils@V?$basic_string@DU?$char_traits@D@std@@V?$allocator@D@2@@std@@@@SAXAEBV?$TXMPMeta@V?$basic_string@DU?$char_traits@D@std@@V?$allocator@D@2@@std@@@@PEBD111KPEAV?$basic_string@DU?$char_traits@D@std@@V?$allocator@D@2@@std@@@Z 0000000180018a58 f i XMPFiles_Impl.obj
 0001:00017af8       ?SeparateArrayItems@?$TXMPUtils@V?$basic_string@DU?$char_traits@D@std@@V?$allocator@D@2@@std@@@@SAXPEAV?$TXMPMeta@V?$basic_string@DU?$char_traits@D@std@@V?$allocator@D@2@@std@@@@PEBD1K1@Z 0000000180018af8 f i XMPFiles_Impl.obj
 0001:00017b94       ?ApplyTemplate@?$TXMPUtils@V?$basic_string@DU?$char_traits@D@std@@V?$allocator@D@2@@std@@@@SAXPEAV?$TXMPMeta@V?$basic_string@DU?$char_traits@D@std@@V?$allocator@D@2@@std@@@@AEBV2@K@Z 0000000180018b94 f i XMPFiles_Impl.obj
 0001:00017c28       ?RemoveProperties@?$TXMPUtils@V?$basic_string@DU?$char_traits@D@std@@V?$allocator@D@2@@std@@@@SAXPEAV?$TXMPMeta@V?$basic_string@DU?$char_traits@D@std@@V?$allocator@D@2@@std@@@@PEBD1K@Z 0000000180018c28 f i XMPFiles_Impl.obj
 0001:00017cc0       ?DuplicateSubtree@?$TXMPUtils@V?$basic_string@DU?$char_traits@D@std@@V?$allocator@D@2@@std@@@@SAXAEBV?$TXMPMeta@V?$basic_string@DU?$char_traits@D@std@@V?$allocator@D@2@@std@@@@PEAV2@PEBD222K@Z 0000000180018cc0 f i XMPFiles_Impl.obj
 0001:00017d70       ??_E?$TXMPMeta@V?$basic_string@DU?$char_traits@D@std@@V?$allocator@D@2@@std@@@@UEAAPEAXI@Z 0000000180018d70 f i * CIL library *:* CIL module *
 0001:00017d70       ??_G?$TXMPMeta@V?$basic_string@DU?$char_traits@D@std@@V?$allocator@D@2@@std@@@@UEAAPEAXI@Z 0000000180018d70 f i XMPFiles_Impl.obj
 0001:00017da4       ?clear@?$vector@V?$basic_string@DU?$char_traits@D@std@@V?$allocator@D@2@@std@@V?$allocator@V?$basic_string@DU?$char_traits@D@std@@V?$allocator@D@2@@std@@@2@@std@@QEAAXXZ 0000000180018da4 f i XMPFiles_Impl.obj
 0001:00017e24       ??1XMP_IO@@UEAA@XZ         0000000180018e24 f i XMPFiles_IO.obj
 0001:00017e30       ??_GXMP_IO@@UEAAPEAXI@Z    0000000180018e30 f i XMPFiles_IO.obj
 0001:00017e30       ??_EXMP_IO@@UEAAPEAXI@Z    0000000180018e30 f i * CIL library *:* CIL module *
 0001:00017e5c       ??_GXMPFiles_IO@@UEAAPEAXI@Z 0000000180018e5c f i XMPFiles_IO.obj
 0001:00017e5c       ??_EXMPFiles_IO@@UEAAPEAXI@Z 0000000180018e5c f i * CIL library *:* CIL module *
 0001:00017e90       ?New_XMPFiles_IO@XMPFiles_IO@@SAPEAV1@PEBD_NPEAVGenericErrorCallback@@PEAVXMP_ProgressTracker@@@Z 0000000180018e90 f   XMPFiles_IO.obj
 0001:00017f90       ??0XMPFiles_IO@@QEAA@PEAXPEBD_NPEAVGenericErrorCallback@@PEAVXMP_ProgressTracker@@@Z 0000000180018f90 f   XMPFiles_IO.obj
 0001:00018050       ??1XMPFiles_IO@@UEAA@XZ    0000000180019050 f   XMPFiles_IO.obj
 0001:00018110       ?Read@XMPFiles_IO@@UEAAKPEAXK_N@Z 0000000180019110 f   XMPFiles_IO.obj
 0001:00018244       ?Write@XMPFiles_IO@@UEAAXPEBXK@Z 0000000180019244 f   XMPFiles_IO.obj
 0001:000182e4       ?Seek@XMPFiles_IO@@UEAA_J_JW4SeekMode@@@Z 00000001800192e4 f   XMPFiles_IO.obj
 0001:000183c0       ?Length@XMPFiles_IO@@UEAA_JXZ 00000001800193c0 f   XMPFiles_IO.obj
 0001:000183c8       ?Truncate@XMPFiles_IO@@UEAAX_J@Z 00000001800193c8 f   XMPFiles_IO.obj
 0001:00018478       ?DeriveTemp@XMPFiles_IO@@UEAAPEAVXMP_IO@@XZ 0000000180019478 f   XMPFiles_IO.obj
 0001:00018614       ?AbsorbTemp@XMPFiles_IO@@UEAAXXZ 0000000180019614 f   XMPFiles_IO.obj
 0001:000186d0       ?DeleteTemp@XMPFiles_IO@@UEAAXXZ 00000001800196d0 f   XMPFiles_IO.obj
 0001:00018760       ?Close@XMPFiles_IO@@QEAAXXZ 0000000180019760 f   XMPFiles_IO.obj
 0001:00018790       ?Exists@Host_IO@@YA_NPEBD@Z 0000000180019790 f   Host_IO-Win.obj
 0001:00018820       ?Writable@Host_IO@@YA_NPEBD_N@Z 0000000180019820 f   Host_IO-Win.obj
 0001:00018a74       ?Create@Host_IO@@YA_NPEBD@Z 0000000180019a74 f   Host_IO-Win.obj
 0001:00018c10       ?GetModifyDate@Host_IO@@YA_NPEBDPEAUXMP_DateTime@@@Z 0000000180019c10 f   Host_IO-Win.obj
 0001:00018e80       ?CreateTemp@Host_IO@@YA?AV?$basic_string@DU?$char_traits@D@std@@V?$allocator@D@2@@std@@PEBD@Z 0000000180019e80 f   Host_IO-Win.obj
 0001:00018ef8       ?Open@Host_IO@@YAPEAXPEBD_N@Z 0000000180019ef8 f   Host_IO-Win.obj
 0001:00018fb8       ?Close@Host_IO@@YAXPEAX@Z  0000000180019fb8 f   Host_IO-Win.obj
 0001:00018ffc       ?SwapData@Host_IO@@YAXPEBD0@Z 0000000180019ffc f   Host_IO-Win.obj
 0001:000190f0       ?Rename@Host_IO@@YAXPEBD0@Z 000000018001a0f0 f   Host_IO-Win.obj
 0001:000192b8       ?Delete@Host_IO@@YAXPEBD@Z 000000018001a2b8 f   Host_IO-Win.obj
 0001:000193e4       ?Seek@Host_IO@@YA_JPEAX_JW4SeekMode@@@Z 000000018001a3e4 f   Host_IO-Win.obj
 0001:0001947c       ?Write@Host_IO@@YAXPEAXPEBXK@Z 000000018001a47c f   Host_IO-Win.obj
 0001:0001952c       ?Length@Host_IO@@YA_JPEAX@Z 000000018001a52c f   Host_IO-Win.obj
 0001:00019574       ?SetEOF@Host_IO@@YAXPEAX_J@Z 000000018001a574 f   Host_IO-Win.obj
 0001:000195f8       ?GetFileMode@Host_IO@@YAEPEBD@Z 000000018001a5f8 f   Host_IO-Win.obj
 0001:000196c4       ?GetChildMode@Host_IO@@YAEPEBD0@Z 000000018001a6c4 f   Host_IO-Win.obj
 0001:000197c0       ?OpenFolder@Host_IO@@YAPEAXPEBD@Z 000000018001a7c0 f   Host_IO-Win.obj
 0001:000199e0       ?GetNextChild@Host_IO@@YA_NPEAXPEAV?$basic_string@DU?$char_traits@D@std@@V?$allocator@D@2@@std@@@Z 000000018001a9e0 f   Host_IO-Win.obj
 0001:00019f50       ?find@?$basic_string@DU?$char_traits@D@std@@V?$allocator@D@2@@std@@QEBA_KPEBD_K1@Z 000000018001af50 f i Host_IO-Win.obj
 0001:0001a028       ??$?HDU?$char_traits@D@std@@V?$allocator@D@1@@std@@YA?AV?$basic_string@DU?$char_traits@D@std@@V?$allocator@D@2@@0@PEBDAEBV10@@Z 000000018001b028 f i Host_IO-Win.obj
 0001:0001a114       ??$?HDU?$char_traits@D@std@@V?$allocator@D@1@@std@@YA?AV?$basic_string@DU?$char_traits@D@std@@V?$allocator@D@2@@0@PEBD$$QEAV10@@Z 000000018001b114 f i Host_IO-Win.obj
 0001:0001a2a8       ?insert@?$basic_string@DU?$char_traits@D@std@@V?$allocator@D@2@@std@@QEAAAEAV12@_KAEBV12@00@Z 000000018001b2a8 f i Host_IO-Win.obj
 0001:0001a434       ??_GIChunkBehavior@IFF_RIFF@@UEAAPEAXI@Z 000000018001b434 f i AIFF_Handler.obj
 0001:0001a434       ??_EIChunkBehavior@IFF_RIFF@@UEAAPEAXI@Z 000000018001b434 f i * CIL library *:* CIL module *
 0001:0001a460       ?getInstance@BigEndian@@SAAEBV1@XZ 000000018001b460 f i AIFF_Handler.obj
 0001:0001a4d0       ?getUns16@BigEndian@@UEBAGPEBX@Z 000000018001b4d0 f i AIFF_Handler.obj
 0001:0001a4d8       ?getUns32@BigEndian@@UEBAKPEBX@Z 000000018001b4d8 f i AIFF_Handler.obj
 0001:0001a4e0       ?getUns64@BigEndian@@UEBA_KPEBX@Z 000000018001b4e0 f i AIFF_Handler.obj
 0001:0001a550       ?getFloat@BigEndian@@UEBAMPEBX@Z 000000018001b550 f i AIFF_Handler.obj
 0001:0001a560       ?getDouble@BigEndian@@UEBANPEBX@Z 000000018001b560 f i AIFF_Handler.obj
 0001:0001a5dc       ?putUns16@BigEndian@@UEBAXGPEAX@Z 000000018001b5dc f i AIFF_Handler.obj
 0001:0001a5e8       ?putUns32@BigEndian@@UEBAXKPEAX@Z 000000018001b5e8 f i AIFF_Handler.obj
 0001:0001a5f0       ?putUns64@BigEndian@@UEBAX_KPEAX@Z 000000018001b5f0 f i AIFF_Handler.obj
 0001:0001a65c       ?putFloat@BigEndian@@UEBAXMPEAX@Z 000000018001b65c f i AIFF_Handler.obj
 0001:0001a66c       ?putDouble@BigEndian@@UEBAXNPEAX@Z 000000018001b66c f i AIFF_Handler.obj
 0001:0001a6e4       ??0XMPFileHandler@@QEAA@XZ 000000018001b6e4 f i AIFF_Handler.obj
 0001:0001a758       ??1XMPFileHandler@@UEAA@XZ 000000018001b758 f i AIFF_Handler.obj
 0001:0001a7c0       ??_EXMPFileHandler@@UEAAPEAXI@Z 000000018001b7c0 f i * CIL library *:* CIL module *
 0001:0001a7c0       ??_GXMPFileHandler@@UEAAPEAXI@Z 000000018001b7c0 f i AIFF_Handler.obj
 0001:0001a7f4       ??_EAIFF_MetaHandler@@UEAAPEAXI@Z 000000018001b7f4 f i * CIL library *:* CIL module *
 0001:0001a7f4       ??_GAIFF_MetaHandler@@UEAAPEAXI@Z 000000018001b7f4 f i AIFF_Handler.obj
 0001:0001a8a8       ??_GAIFFBehavior@IFF_RIFF@@UEAAPEAXI@Z 000000018001b8a8 f i AIFF_Handler.obj
 0001:0001a8a8       ??_EAIFFBehavior@IFF_RIFF@@UEAAPEAXI@Z 000000018001b8a8 f i * CIL library *:* CIL module *
 0001:0001a8d4       ??_EAIFFReconcile@IFF_RIFF@@UEAAPEAXI@Z 000000018001b8d4 f i * CIL library *:* CIL module *
 0001:0001a8d4       ??_GAIFFReconcile@IFF_RIFF@@UEAAPEAXI@Z 000000018001b8d4 f i AIFF_Handler.obj
 0001:0001a8d4       ??_GIReconcile@@UEAAPEAXI@Z 000000018001b8d4 f i AIFF_Handler.obj
 0001:0001a8d4       ??_EIReconcile@@UEAAPEAXI@Z 000000018001b8d4 f i * CIL library *:* CIL module *
 0001:0001a8d4       ??_GWAVEReconcile@IFF_RIFF@@UEAAPEAXI@Z 000000018001b8d4 f i WAVE_Handler.obj
 0001:0001a8d4       ??_EWAVEReconcile@IFF_RIFF@@UEAAPEAXI@Z 000000018001b8d4 f i * CIL library *:* CIL module *
 0001:0001a900       ??1AIFFReconcile@IFF_RIFF@@UEAA@XZ 000000018001b900 f i AIFF_Handler.obj
 0001:0001a900       ??1WAVEReconcile@IFF_RIFF@@UEAA@XZ 000000018001b900 f i WAVE_Handler.obj
 0001:0001a90c       ?AIFF_MetaHandlerCTor@@YAPEAVXMPFileHandler@@PEAVXMPFiles@@@Z 000000018001b90c f   AIFF_Handler.obj
 0001:0001aa68       ?AIFF_CheckFormat@@YA_NKPEBDPEAVXMP_IO@@PEAVXMPFiles@@@Z 000000018001ba68 f   AIFF_Handler.obj
 0001:0001ab10       ?whatAIFFFormat@AIFF_MetaHandler@@SAKPEAE@Z 000000018001bb10 f   AIFF_Handler.obj
 0001:0001ab74       ??_GChunkController@IFF_RIFF@@QEAAPEAXI@Z 000000018001bb74 f i AIFF_Handler.obj
 0001:0001acac       ?CacheFileData@AIFF_MetaHandler@@UEAAXXZ 000000018001bcac f   AIFF_Handler.obj
 0001:0001aef0       ?ProcessXMP@AIFF_MetaHandler@@UEAAXXZ 000000018001bef0 f   AIFF_Handler.obj
 0001:0001b144       ?selectLastNonEmptyAnnoChunk@AIFF_MetaHandler@@AEAAPEAVIChunkData@IFF_RIFF@@AEBV?$vector@PEAVIChunkData@IFF_RIFF@@V?$allocator@PEAVIChunkData@IFF_RIFF@@@std@@@std@@@Z 000000018001c144 f   AIFF_Handler.obj
 0001:0001b280       ?UpdateFile@AIFF_MetaHandler@@UEAAX_N@Z 000000018001c280 f   AIFF_Handler.obj
 0001:0001b470       ?updateLegacyChunk@AIFF_MetaHandler@@AEAAXPEAPEAVIChunkData@IFF_RIFF@@KK@Z 000000018001c470 f   AIFF_Handler.obj
 0001:0001b630       ?WriteTempFile@AIFF_MetaHandler@@UEAAXPEAVXMP_IO@@@Z 000000018001c630 f   AIFF_Handler.obj
 0001:0001b660       ??1ObjectData@ASF_Support@@UEAA@XZ 000000018001c660 f i ASF_Handler.obj
 0001:0001b66c       ??1ObjectState@ASF_Support@@UEAA@XZ 000000018001c66c f i ASF_Handler.obj
 0001:0001b708       ??_EObjectData@ASF_Support@@UEAAPEAXI@Z 000000018001c708 f i * CIL library *:* CIL module *
 0001:0001b708       ??_GObjectData@ASF_Support@@UEAAPEAXI@Z 000000018001c708 f i ASF_Handler.obj
 0001:0001b734       ??_GObjectState@ASF_Support@@UEAAPEAXI@Z 000000018001c734 f i ASF_Handler.obj
 0001:0001b734       ??_EObjectState@ASF_Support@@UEAAPEAXI@Z 000000018001c734 f i * CIL library *:* CIL module *
 0001:0001b768       ?ASF_MetaHandlerCTor@@YAPEAVXMPFileHandler@@PEAVXMPFiles@@@Z 000000018001c768 f   ASF_Handler.obj
 0001:0001b818       ?ASF_CheckFormat@@YA_NKPEBDPEAVXMP_IO@@PEAVXMPFiles@@@Z 000000018001c818 f   ASF_Handler.obj
 0001:0001b898       ??_EASF_MetaHandler@@UEAAPEAXI@Z 000000018001c898 f i * CIL library *:* CIL module *
 0001:0001b898       ??_GASF_MetaHandler@@UEAAPEAXI@Z 000000018001c898 f i ASF_Handler.obj
 0001:0001b8cc       ??1ASF_MetaHandler@@UEAA@XZ 000000018001c8cc f   ASF_Handler.obj
 0001:0001b8f8       ?CacheFileData@ASF_MetaHandler@@UEAAXXZ 000000018001c8f8 f   ASF_Handler.obj
 0001:0001ba7c       ?ProcessXMP@ASF_MetaHandler@@UEAAXXZ 000000018001ca7c f   ASF_Handler.obj
 0001:0001bb08       ?UpdateFile@ASF_MetaHandler@@UEAAX_N@Z 000000018001cb08 f   ASF_Handler.obj
 0001:0001be68       ?WriteTempFile@ASF_MetaHandler@@UEAAXPEAVXMP_IO@@@Z 000000018001ce68 f   ASF_Handler.obj
 0001:0001c31c       ?SafeWriteFile@ASF_MetaHandler@@QEAA_NXZ 000000018001d31c f   ASF_Handler.obj
 0001:0001c38c       sprintf                    000000018001d38c f i AVCHD_Handler.obj
 0001:0001c3e4       ??1?$vector@EV?$allocator@E@std@@@std@@QEAA@XZ 000000018001d3e4 f i AVCHD_Handler.obj
 0001:0001c3e4       ?_Tidy@?$vector@EV?$allocator@E@std@@@std@@IEAAXXZ 000000018001d3e4 f i AVCHD_Handler.obj
 0001:0001c41c       ?push_back@?$basic_string@DU?$char_traits@D@std@@V?$allocator@D@2@@std@@QEAAXD@Z 000000018001d41c f i AVCHD_Handler.obj
 0001:0001c4b0       ?_Reallocate@?$vector@EV?$allocator@E@std@@@std@@IEAAX_K@Z 000000018001d4b0 f i AVCHD_Handler.obj
 0001:0001c568       ??$?HDU?$char_traits@D@std@@V?$allocator@D@1@@std@@YA?AV?$basic_string@DU?$char_traits@D@std@@V?$allocator@D@2@@0@$$QEAV10@AEBV10@@Z 000000018001d568 f i AVCHD_Handler.obj
 0001:0001c5a4       ??$?HDU?$char_traits@D@std@@V?$allocator@D@1@@std@@YA?AV?$basic_string@DU?$char_traits@D@std@@V?$allocator@D@2@@0@AEBV10@0@Z 000000018001d5a4 f i AVCHD_Handler.obj
 0001:0001c678       ??$?HDU?$char_traits@D@std@@V?$allocator@D@1@@std@@YA?AV?$basic_string@DU?$char_traits@D@std@@V?$allocator@D@2@@0@$$QEAV10@D@Z 000000018001d678 f i AVCHD_Handler.obj
 0001:0001c6b0       ??$?HDU?$char_traits@D@std@@V?$allocator@D@1@@std@@YA?AV?$basic_string@DU?$char_traits@D@std@@V?$allocator@D@2@@0@AEBV10@D@Z 000000018001d6b0 f i AVCHD_Handler.obj
 0001:0001c774       ??$?HDU?$char_traits@D@std@@V?$allocator@D@1@@std@@YA?AV?$basic_string@DU?$char_traits@D@std@@V?$allocator@D@2@@0@$$QEAV10@PEBD@Z 000000018001d774 f i AVCHD_Handler.obj
 0001:0001c7cc       ??$?HDU?$char_traits@D@std@@V?$allocator@D@1@@std@@YA?AV?$basic_string@DU?$char_traits@D@std@@V?$allocator@D@2@@0@AEBV10@PEBD@Z 000000018001d7cc f i AVCHD_Handler.obj
 0001:0001c8b8       ??_GBasic_MetaHandler@@UEAAPEAXI@Z 000000018001d8b8 f i Basic_Handler.obj
 0001:0001c8b8       ??_EBasic_MetaHandler@@UEAAPEAXI@Z 000000018001d8b8 f i * CIL library *:* CIL module *
 0001:0001c8f8       ?UpdateFile@Basic_MetaHandler@@UEAAX_N@Z 000000018001d8f8 f   Basic_Handler.obj
 0001:0001ca98       ?WriteTempFile@Basic_MetaHandler@@UEAAXPEAVXMP_IO@@@Z 000000018001da98 f   Basic_Handler.obj
 0001:0001cc80       ?ShuffleTrailingContent@Basic_MetaHandler@@IEAAXPEAVXMP_IO@@@Z 000000018001dc80 f   Basic_Handler.obj
 0001:0001cda4       ??_GFLV_MetaHandler@@UEAAPEAXI@Z 000000018001dda4 f i FLV_Handler.obj
 0001:0001cda4       ??_EFLV_MetaHandler@@UEAAPEAXI@Z 000000018001dda4 f i * CIL library *:* CIL module *
 0001:0001cdd8       ?FLV_CheckFormat@@YA_NKPEBDPEAVXMP_IO@@PEAVXMPFiles@@@Z 000000018001ddd8 f   FLV_Handler.obj
 0001:0001ce98       ?FLV_MetaHandlerCTor@@YAPEAVXMPFileHandler@@PEAVXMPFiles@@@Z 000000018001de98 f   FLV_Handler.obj
 0001:0001cf40       ??1FLV_MetaHandler@@UEAA@XZ 000000018001df40 f   FLV_Handler.obj
 0001:0001d16c       ?CacheFileData@FLV_MetaHandler@@UEAAXXZ 000000018001e16c f   FLV_Handler.obj
 0001:0001d564       ?MakeLegacyDigest@FLV_MetaHandler@@AEAAXPEAV?$basic_string@DU?$char_traits@D@std@@V?$allocator@D@2@@std@@@Z 000000018001e564 f   FLV_Handler.obj
 0001:0001d65c       ?ExtractLiveXML@FLV_MetaHandler@@AEAAXXZ 000000018001e65c f   FLV_Handler.obj
 0001:0001d7f0       ?ProcessXMP@FLV_MetaHandler@@UEAAXXZ 000000018001e7f0 f   FLV_Handler.obj
 0001:0001d9b8       ?UpdateFile@FLV_MetaHandler@@UEAAX_N@Z 000000018001e9b8 f   FLV_Handler.obj
 0001:0001dd58       ?WriteTempFile@FLV_MetaHandler@@UEAAXPEAVXMP_IO@@@Z 000000018001ed58 f   FLV_Handler.obj
 0001:0001e034       ?GIF_MetaHandlerCTor@@YAPEAVXMPFileHandler@@PEAVXMPFiles@@@Z 000000018001f034 f   GIF_Handler.obj
 0001:0001e098       ?GIF_CheckFormat@@YA_NKPEBDPEAVXMP_IO@@PEAVXMPFiles@@@Z 000000018001f098 f   GIF_Handler.obj
 0001:0001e118       ??_EGIF_MetaHandler@@UEAAPEAXI@Z 000000018001f118 f i * CIL library *:* CIL module *
 0001:0001e118       ??_GGIF_MetaHandler@@UEAAPEAXI@Z 000000018001f118 f i GIF_Handler.obj
 0001:0001e158       ?CacheFileData@GIF_MetaHandler@@UEAAXXZ 000000018001f158 f   GIF_Handler.obj
 0001:0001e1e4       ?ProcessXMP@PNG_MetaHandler@@UEAAXXZ 000000018001f1e4 f   PNG_Handler.obj
 0001:0001e1e4       ?ProcessXMP@GIF_MetaHandler@@UEAAXXZ 000000018001f1e4 f   GIF_Handler.obj
 0001:0001e220       ?ParseGIFBlocks@GIF_MetaHandler@@AEAA_NPEAVXMP_IO@@@Z 000000018001f220 f   GIF_Handler.obj
 0001:0001e564       ?SeekFile@GIF_MetaHandler@@AEAAXPEAVXMP_IO@@_JW4SeekMode@@@Z 000000018001f564 f   GIF_Handler.obj
 0001:0001e60c       ?UpdateFile@GIF_MetaHandler@@UEAAX_N@Z 000000018001f60c f   GIF_Handler.obj
 0001:0001e6c0       ?WriteTempFile@GIF_MetaHandler@@UEAAXPEAVXMP_IO@@@Z 000000018001f6c0 f   GIF_Handler.obj
 0001:0001e8a0       ?InDesign_MetaHandlerCTor@@YAPEAVXMPFileHandler@@PEAVXMPFiles@@@Z 000000018001f8a0 f   InDesign_Handler.obj
 0001:0001e918       ?InDesign_CheckFormat@@YA_NKPEBDPEAVXMP_IO@@PEAVXMPFiles@@@Z 000000018001f918 f   InDesign_Handler.obj
 0001:0001e9c0       ??_GInDesign_MetaHandler@@UEAAPEAXI@Z 000000018001f9c0 f i InDesign_Handler.obj
 0001:0001e9c0       ??_EInDesign_MetaHandler@@UEAAPEAXI@Z 000000018001f9c0 f i * CIL library *:* CIL module *
 0001:0001ea00       ?CacheFileData@InDesign_MetaHandler@@UEAAXXZ 000000018001fa00 f   InDesign_Handler.obj
 0001:0001ee7c       ?WriteXMPPrefix@InDesign_MetaHandler@@MEAAXPEAVXMP_IO@@@Z 000000018001fe7c f   InDesign_Handler.obj
 0001:0001ef34       ?WriteXMPSuffix@InDesign_MetaHandler@@MEAAXPEAVXMP_IO@@@Z 000000018001ff34 f   InDesign_Handler.obj
 0001:0001efc4       ?RestoreFileEnding@InDesign_MetaHandler@@MEAAXPEAVXMP_IO@@@Z 000000018001ffc4 f   InDesign_Handler.obj
 0001:0001f048       ??1TIFF_Manager@@UEAA@XZ   0000000180020048 f i JPEG_Handler.obj
 0001:0001f054       ?SetErrorCallback@TIFF_Manager@@UEAAXPEAVGenericErrorCallback@@@Z 0000000180020054 f i JPEG_Handler.obj
 0001:0001f05c       ??_GTIFF_Manager@@UEAAPEAXI@Z 000000018002005c f i JPEG_Handler.obj
 0001:0001f05c       ??_ETIFF_Manager@@UEAAPEAXI@Z 000000018002005c f i * CIL library *:* CIL module *
 0001:0001f088       ?HasExifIFD@TIFF_MemoryReader@@UEBA_NXZ 0000000180020088 f i JPEG_Handler.obj
 0001:0001f094       ?HasGPSInfoIFD@TIFF_MemoryReader@@UEBA_NXZ 0000000180020094 f i JPEG_Handler.obj
 0001:0001f0a0       ?DeleteTag@TIFF_MemoryReader@@UEAAXEG@Z 00000001800200a0 f i JPEG_Handler.obj
 0001:0001f0a0       ?UpdateFileStream@TIFF_MemoryReader@@UEAAXPEAVXMP_IO@@PEAVXMP_ProgressTracker@@@Z 00000001800200a0 f i JPEG_Handler.obj
 0001:0001f0a0       ?IntegrateFromPShop6@TIFF_MemoryReader@@UEAAXPEBX_K@Z 00000001800200a0 f i JPEG_Handler.obj
 0001:0001f0a0       ?SetTag_EncodedString@TIFF_MemoryReader@@UEAAXEGAEBV?$basic_string@DU?$char_traits@D@std@@V?$allocator@D@2@@std@@E@Z 00000001800200a0 f i JPEG_Handler.obj
 0001:0001f0a0       ?ParseFileStream@TIFF_MemoryReader@@UEAAXPEAVXMP_IO@@@Z 00000001800200a0 f i JPEG_Handler.obj
 0001:0001f0a0       ?SetTag@TIFF_MemoryReader@@UEAAXEGGKPEBX@Z 00000001800200a0 f i JPEG_Handler.obj
 0001:0001f0d0       ?GetMediaProMetadata@XDCAM_MetaHandler@@MEAA_NPEAV?$TXMPMeta@V?$basic_string@DU?$char_traits@D@std@@V?$allocator@D@2@@std@@@@AEBV?$basic_string@DU?$char_traits@D@std@@V?$allocator@D@2@@std@@_N@Z 00000001800200d0 f i XDCAMSAM_Handler.obj
 0001:0001f0d0       ?MakeClipFilePath@XDCAM_MetaHandler@@MEAA_NPEAV?$basic_string@DU?$char_traits@D@std@@V?$allocator@D@2@@std@@PEBD_N@Z 00000001800200d0 f i XDCAM_Handler.obj
 0001:0001f0d0       ?IsChanged@TIFF_MemoryReader@@UEAA_NXZ 00000001800200d0 f i JPEG_Handler.obj
 0001:0001f0d0       ?GetClipUmid@XDCAM_MetaHandler@@MEAA_NAEAV?$basic_string@DU?$char_traits@D@std@@V?$allocator@D@2@@std@@@Z 00000001800200d0 f i XDCAM_Handler.obj
 0001:0001f0d0       ?IsLegacyChanged@TIFF_MemoryReader@@UEAA_NXZ 00000001800200d0 f i JPEG_Handler.obj
 0001:0001f0d0       ?IsChanged@IPTC_Reader@@UEAA_NXZ 00000001800200d0 f i JPEG_Handler.obj
 0001:0001f0d0       ?IsChanged@PSIR_MemoryReader@@UEAA_NXZ 00000001800200d0 f i JPEG_Handler.obj
 0001:0001f0d0       ?IsLegacyChanged@PSIR_MemoryReader@@UEAA_NXZ 00000001800200d0 f i JPEG_Handler.obj
 0001:0001f0d4       ?UpdateMemoryStream@TIFF_MemoryReader@@UEAAKPEAPEAX_N@Z 00000001800200d4 f i JPEG_Handler.obj
 0001:0001f0e4       ??1TIFF_MemoryReader@@UEAA@XZ 00000001800200e4 f i JPEG_Handler.obj
 0001:0001f124       ??_ETIFF_MemoryReader@@UEAAPEAXI@Z 0000000180020124 f i * CIL library *:* CIL module *
 0001:0001f124       ??_GTIFF_MemoryReader@@UEAAPEAXI@Z 0000000180020124 f i JPEG_Handler.obj
 0001:0001f184       ??1PSIR_Manager@@UEAA@XZ   0000000180020184 f i JPEG_Handler.obj
 0001:0001f190       ??_EPSIR_Manager@@UEAAPEAXI@Z 0000000180020190 f i * CIL library *:* CIL module *
 0001:0001f190       ??_GPSIR_Manager@@UEAAPEAXI@Z 0000000180020190 f i JPEG_Handler.obj
 0001:0001f1bc       ?UpdateFileResources@PSIR_MemoryReader@@UEAAKPEAVXMP_IO@@0P6A_NPEAX@Z1PEAVXMP_ProgressTracker@@@Z 00000001800201bc f i JPEG_Handler.obj
 0001:0001f1bc       ?DeleteImgRsrc@PSIR_MemoryReader@@UEAAXG@Z 00000001800201bc f i JPEG_Handler.obj
 0001:0001f1bc       ?ParseFileResources@PSIR_MemoryReader@@UEAAXPEAVXMP_IO@@K@Z 00000001800201bc f i JPEG_Handler.obj
 0001:0001f1bc       ?SetImgRsrc@PSIR_MemoryReader@@UEAAXGPEBXK@Z 00000001800201bc f i JPEG_Handler.obj
 0001:0001f1ec       ?UpdateMemoryResources@PSIR_MemoryReader@@UEAAKPEAPEAX@Z 00000001800201ec f i JPEG_Handler.obj
 0001:0001f1fc       ??_GPSIR_MemoryReader@@UEAAPEAXI@Z 00000001800201fc f i JPEG_Handler.obj
 0001:0001f1fc       ??_EPSIR_MemoryReader@@UEAAPEAXI@Z 00000001800201fc f i * CIL library *:* CIL module *
 0001:0001f268       ?IsChanged@PSIR_FileWriter@@UEAA_NXZ 0000000180020268 f i JPEG_Handler.obj
 0001:0001f26c       ??1InternalRsrcInfo@PSIR_FileWriter@@QEAA@XZ 000000018002026c f i JPEG_Handler.obj
 0001:0001f2c0       ??_GPSIR_FileWriter@@UEAAPEAXI@Z 00000001800202c0 f i JPEG_Handler.obj
 0001:0001f2c0       ??_EPSIR_FileWriter@@UEAAPEAXI@Z 00000001800202c0 f i * CIL library *:* CIL module *
 0001:0001f2f4       ??_GIPTC_Reader@@UEAAPEAXI@Z 00000001800202f4 f i JPEG_Handler.obj
 0001:0001f2f4       ??_EIPTC_Reader@@UEAAPEAXI@Z 00000001800202f4 f i * CIL library *:* CIL module *
 0001:0001f2f4       ??_GIPTC_Manager@@UEAAPEAXI@Z 00000001800202f4 f i JPEG_Handler.obj
 0001:0001f2f4       ??_EIPTC_Manager@@UEAAPEAXI@Z 00000001800202f4 f i * CIL library *:* CIL module *
 0001:0001f384       ?SetDataSet_UTF8@IPTC_Reader@@UEAAXEPEBXKJ@Z 0000000180020384 f i JPEG_Handler.obj
 0001:0001f384       ?DeleteDataSet@IPTC_Reader@@UEAAXEJ@Z 0000000180020384 f i JPEG_Handler.obj
 0001:0001f384       ?UpdateMemoryDataSets@IPTC_Reader@@UEAAXXZ 0000000180020384 f i JPEG_Handler.obj
 0001:0001f3b4       ?IsChanged@IPTC_Writer@@UEAA_NXZ 00000001800203b4 f i JPEG_Handler.obj
 0001:0001f3b8       ??_GIPTC_Writer@@UEAAPEAXI@Z 00000001800203b8 f i JPEG_Handler.obj
 0001:0001f3b8       ??_EIPTC_Writer@@UEAAPEAXI@Z 00000001800203b8 f i * CIL library *:* CIL module *
 0001:0001f3ec       ??_EJPEG_MetaHandler@@UEAAPEAXI@Z 00000001800203ec f i * CIL library *:* CIL module *
 0001:0001f3ec       ??_GJPEG_MetaHandler@@UEAAPEAXI@Z 00000001800203ec f i JPEG_Handler.obj
 0001:0001f420       ?JPEG_MetaHandlerCTor@@YAPEAVXMPFileHandler@@PEAVXMPFiles@@@Z 0000000180020420 f   JPEG_Handler.obj
 0001:0001f4fc       ?JPEG_CheckFormat@@YA_NKPEBDPEAVXMP_IO@@PEAVXMPFiles@@@Z 00000001800204fc f   JPEG_Handler.obj
 0001:0001f5c8       ??1JPEG_MetaHandler@@UEAA@XZ 00000001800205c8 f   JPEG_Handler.obj
 0001:0001fa30       ??1ExtXMPContent@@QEAA@XZ  0000000180020a30 f i JPEG_Handler.obj
 0001:0001fa98       ??1?$pair@$$CBUGUID_32@JPEG_MetaHandler@@UExtXMPContent@@@std@@QEAA@XZ 0000000180020a98 f i JPEG_Handler.obj
 0001:0001fb00       ??1?$pair@$$CBKV?$basic_string@DU?$char_traits@D@std@@V?$allocator@D@2@@std@@@std@@QEAA@XZ 0000000180020b00 f i JPEG_Handler.obj
 0001:0001fb50       ?CacheFileData@JPEG_MetaHandler@@UEAAXXZ 0000000180020b50 f   JPEG_Handler.obj
 0001:00020188       ??1?$map@UGUID_32@JPEG_MetaHandler@@UExtXMPContent@@U?$less@UGUID_32@JPEG_MetaHandler@@@std@@V?$allocator@U?$pair@$$CBUGUID_32@JPEG_MetaHandler@@UExtXMPContent@@@std@@@5@@std@@QEAA@XZ 0000000180021188 f i JPEG_Handler.obj
 0001:00020188       ??1?$_Tree@V?$_Tmap_traits@UGUID_32@JPEG_MetaHandler@@UExtXMPContent@@U?$less@UGUID_32@JPEG_MetaHandler@@@std@@V?$allocator@U?$pair@$$CBUGUID_32@JPEG_MetaHandler@@UExtXMPContent@@@std@@@5@$0A@@std@@@std@@QEAA@XZ 0000000180021188 f i JPEG_Handler.obj
 0001:000201ec       ??1TimecodeTrackInfo@MPEG4_MetaHandler@@QEAA@XZ 00000001800211ec f i MPEG4_Handler.obj
 0001:000201ec       ??1?$pair@$$CBUGUID_32@JPEG_MetaHandler@@V?$basic_string@DU?$char_traits@D@std@@V?$allocator@D@2@@std@@@std@@QEAA@XZ 00000001800211ec f i JPEG_Handler.obj
 0001:0002054c       ??1?$map@GUTagInfo@TIFF_Manager@@U?$less@G@std@@V?$allocator@U?$pair@$$CBGUTagInfo@TIFF_Manager@@@std@@@4@@std@@QEAA@XZ 000000018002154c f i JPEG_Handler.obj
 0001:00020584       ?ProcessXMP@JPEG_MetaHandler@@UEAAXXZ 0000000180021584 f   JPEG_Handler.obj
 0001:00020c54       ?UpdateFile@JPEG_MetaHandler@@UEAAX_N@Z 0000000180021c54 f   JPEG_Handler.obj
 0001:00020e30       ?WriteTempFile@JPEG_MetaHandler@@UEAAXPEAVXMP_IO@@@Z 0000000180021e30 f   JPEG_Handler.obj
 0001:0002186c       ??F?$_Tree_iterator@V?$_Tree_val@U?$_Tree_simple_types@U?$pair@$$CBKV?$basic_string@DU?$char_traits@D@std@@V?$allocator@D@2@@std@@@std@@@std@@@std@@@std@@QEAAAEAV01@XZ 000000018002286c f i JPEG_Handler.obj
 0001:000218c4       ??1?$_Tree_comp_alloc@V?$_Tmap_traits@KV?$basic_string@DU?$char_traits@D@std@@V?$allocator@D@2@@std@@U?$less@K@2@V?$allocator@U?$pair@$$CBKV?$basic_string@DU?$char_traits@D@std@@V?$allocator@D@2@@std@@@std@@@2@$0A@@std@@@std@@QEAA@XZ 00000001800228c4 f i JPEG_Handler.obj
 0001:000218d8       ?erase@?$_Tree@V?$_Tmap_traits@GUDataSetInfo@IPTC_Manager@@U?$less@G@std@@V?$allocator@U?$pair@$$CBGUDataSetInfo@IPTC_Manager@@@std@@@4@$00@std@@@std@@QEAA?AV?$_Tree_iterator@V?$_Tree_val@U?$_Tree_simple_types@U?$pair@$$CBGUDataSetInfo@IPTC_Manager@@@std@@@std@@@std@@@2@V?$_Tree_const_iterator@V?$_Tree_val@U?$_Tree_simple_types@U?$pair@$$CBGUDataSetInfo@IPTC_Manager@@@std@@@std@@@std@@@2@0@Z 00000001800228d8 f i JPEG_Handler.obj
 0001:000219e8       ?erase@?$_Tree@V?$_Tmap_traits@GUInternalRsrcInfo@PSIR_FileWriter@@U?$less@G@std@@V?$allocator@U?$pair@$$CBGUInternalRsrcInfo@PSIR_FileWriter@@@std@@@4@$0A@@std@@@std@@QEAA?AV?$_Tree_iterator@V?$_Tree_val@U?$_Tree_simple_types@U?$pair@$$CBGUInternalRsrcInfo@PSIR_FileWriter@@@std@@@std@@@std@@@2@V?$_Tree_const_iterator@V?$_Tree_val@U?$_Tree_simple_types@U?$pair@$$CBGUInternalRsrcInfo@PSIR_FileWriter@@@std@@@std@@@std@@@2@0@Z 00000001800229e8 f i JPEG_Handler.obj
 0001:00021ac0       ?clear@?$_Tree@V?$_Tmap_traits@GUTagInfo@TIFF_Manager@@U?$less@G@std@@V?$allocator@U?$pair@$$CBGUTagInfo@TIFF_Manager@@@std@@@4@$0A@@std@@@std@@QEAAXXZ 0000000180022ac0 f i JPEG_Handler.obj
 0001:00021b40       ?erase@?$_Tree@V?$_Tmap_traits@GUDataSetInfo@IPTC_Manager@@U?$less@G@std@@V?$allocator@U?$pair@$$CBGUDataSetInfo@IPTC_Manager@@@std@@@4@$00@std@@@std@@QEAA?AV?$_Tree_iterator@V?$_Tree_val@U?$_Tree_simple_types@U?$pair@$$CBGUDataSetInfo@IPTC_Manager@@@std@@@std@@@std@@@2@V?$_Tree_const_iterator@V?$_Tree_val@U?$_Tree_simple_types@U?$pair@$$CBGUDataSetInfo@IPTC_Manager@@@std@@@std@@@std@@@2@@Z 0000000180022b40 f i JPEG_Handler.obj
 0001:00021fe4       ?erase@?$_Tree@V?$_Tmap_traits@GUInternalRsrcInfo@PSIR_FileWriter@@U?$less@G@std@@V?$allocator@U?$pair@$$CBGUInternalRsrcInfo@PSIR_FileWriter@@@std@@@4@$0A@@std@@@std@@QEAA?AV?$_Tree_iterator@V?$_Tree_val@U?$_Tree_simple_types@U?$pair@$$CBGUInternalRsrcInfo@PSIR_FileWriter@@@std@@@std@@@std@@@2@V?$_Tree_const_iterator@V?$_Tree_val@U?$_Tree_simple_types@U?$pair@$$CBGUInternalRsrcInfo@PSIR_FileWriter@@@std@@@std@@@std@@@2@@Z 0000000180022fe4 f i JPEG_Handler.obj
 0001:000224c0       ?_Buyheadnode@?$_Tree_comp_alloc@V?$_Tmap_traits@UGUID_32@JPEG_MetaHandler@@UExtXMPContent@@U?$less@UGUID_32@JPEG_MetaHandler@@@std@@V?$allocator@U?$pair@$$CBUGUID_32@JPEG_MetaHandler@@UExtXMPContent@@@std@@@5@$0A@@std@@@std@@QEAAPEAU?$_Tree_node@U?$pair@$$CBUGUID_32@JPEG_MetaHandler@@UExtXMPContent@@@std@@PEAX@2@XZ 00000001800234c0 f i JPEG_Handler.obj
 0001:000224fc       ?_Erase@?$_Tree@V?$_Tmap_traits@UGUID_32@JPEG_MetaHandler@@UExtXMPContent@@U?$less@UGUID_32@JPEG_MetaHandler@@@std@@V?$allocator@U?$pair@$$CBUGUID_32@JPEG_MetaHandler@@UExtXMPContent@@@std@@@5@$0A@@std@@@std@@IEAAXPEAU?$_Tree_node@U?$pair@$$CBUGUID_32@JPEG_MetaHandler@@UExtXMPContent@@@std@@PEAX@2@@Z 00000001800234fc f i JPEG_Handler.obj
 0001:000225a8       ?_Buyheadnode@?$_Tree_comp_alloc@V?$_Tmap_traits@KV?$basic_string@DU?$char_traits@D@std@@V?$allocator@D@2@@std@@U?$less@K@2@V?$allocator@U?$pair@$$CBKV?$basic_string@DU?$char_traits@D@std@@V?$allocator@D@2@@std@@@std@@@2@$0A@@std@@@std@@QEAAPEAU?$_Tree_node@U?$pair@$$CBKV?$basic_string@DU?$char_traits@D@std@@V?$allocator@D@2@@std@@@std@@PEAX@2@XZ 00000001800235a8 f i JPEG_Handler.obj
 0001:000225a8       ?_Buyheadnode@?$_Tree_comp_alloc@V?$_Tmap_traits@KUFileHandlerPair@XMP_PLUGIN@@U?$less@K@std@@V?$allocator@U?$pair@$$CBKUFileHandlerPair@XMP_PLUGIN@@@std@@@4@$0A@@std@@@std@@QEAAPEAU?$_Tree_node@U?$pair@$$CBKUFileHandlerPair@XMP_PLUGIN@@@std@@PEAX@2@XZ 00000001800235a8 f i PluginManager.obj
 0001:000225a8       ?_Buyheadnode@?$_Tree_comp_alloc@V?$_Tmap_traits@GUInternalRsrcInfo@PSIR_FileWriter@@U?$less@G@std@@V?$allocator@U?$pair@$$CBGUInternalRsrcInfo@PSIR_FileWriter@@@std@@@4@$0A@@std@@@std@@QEAAPEAU?$_Tree_node@U?$pair@$$CBGUInternalRsrcInfo@PSIR_FileWriter@@@std@@PEAX@2@XZ 00000001800235a8 f i JPEG_Handler.obj
 0001:000225a8       ?_Buyheadnode@?$_Tree_comp_alloc@V?$_Tmap_traits@V?$basic_string@DU?$char_traits@D@std@@V?$allocator@D@2@@std@@KUStringCompare@XMP_PLUGIN@@V?$allocator@U?$pair@$$CBV?$basic_string@DU?$char_traits@D@std@@V?$allocator@D@2@@std@@K@std@@@2@$0A@@std@@@std@@QEAAPEAU?$_Tree_node@U?$pair@$$CBV?$basic_string@DU?$char_traits@D@std@@V?$allocator@D@2@@std@@K@std@@PEAX@2@XZ 00000001800235a8 f i XMPAtoms.obj
 0001:000225a8       ?_Buyheadnode@?$_Tree_comp_alloc@V?$_Tmap_traits@V?$basic_string@DU?$char_traits@D@std@@V?$allocator@D@2@@std@@_JU?$less@V?$basic_string@DU?$char_traits@D@std@@V?$allocator@D@2@@std@@@2@V?$allocator@U?$pair@$$CBV?$basic_string@DU?$char_traits@D@std@@V?$allocator@D@2@@std@@_J@std@@@2@$00@std@@@std@@QEAAPEAU?$_Tree_node@U?$pair@$$CBV?$basic_string@DU?$char_traits@D@std@@V?$allocator@D@2@@std@@_J@std@@PEAX@2@XZ 00000001800235a8 f i SVG_Adapter.obj
 0001:000225e4       ?_Erase@?$_Tree@V?$_Tmap_traits@KV?$basic_string@DU?$char_traits@D@std@@V?$allocator@D@2@@std@@U?$less@K@2@V?$allocator@U?$pair@$$CBKV?$basic_string@DU?$char_traits@D@std@@V?$allocator@D@2@@std@@@std@@@2@$0A@@std@@@std@@IEAAXPEAU?$_Tree_node@U?$pair@$$CBKV?$basic_string@DU?$char_traits@D@std@@V?$allocator@D@2@@std@@@std@@PEAX@2@@Z 00000001800235e4 f i JPEG_Handler.obj
 0001:00022688       ?_Erase@?$_Tree@V?$_Tmap_traits@UGUID_32@JPEG_MetaHandler@@V?$basic_string@DU?$char_traits@D@std@@V?$allocator@D@2@@std@@U?$less@UGUID_32@JPEG_MetaHandler@@@4@V?$allocator@U?$pair@$$CBUGUID_32@JPEG_MetaHandler@@V?$basic_string@DU?$char_traits@D@std@@V?$allocator@D@2@@std@@@std@@@4@$0A@@std@@@std@@IEAAXPEAU?$_Tree_node@U?$pair@$$CBUGUID_32@JPEG_MetaHandler@@V?$basic_string@DU?$char_traits@D@std@@V?$allocator@D@2@@std@@@std@@PEAX@2@@Z 0000000180023688 f i JPEG_Handler.obj
 0001:0002272c       ?_Buyheadnode@?$_Tree_comp_alloc@V?$_Tmap_traits@GUDataSetInfo@IPTC_Manager@@U?$less@G@std@@V?$allocator@U?$pair@$$CBGUDataSetInfo@IPTC_Manager@@@std@@@4@$00@std@@@std@@QEAAPEAU?$_Tree_node@U?$pair@$$CBGUDataSetInfo@IPTC_Manager@@@std@@PEAX@2@XZ 000000018002372c f i JPEG_Handler.obj
 0001:00022768       ?_Erase@?$_Tree@V?$_Tmap_traits@GUDataSetInfo@IPTC_Manager@@U?$less@G@std@@V?$allocator@U?$pair@$$CBGUDataSetInfo@IPTC_Manager@@@std@@@4@$00@std@@@std@@IEAAXPEAU?$_Tree_node@U?$pair@$$CBGUDataSetInfo@IPTC_Manager@@@std@@PEAX@2@@Z 0000000180023768 f i JPEG_Handler.obj
 0001:000227c0       ?_Erase@?$_Tree@V?$_Tmap_traits@GUInternalRsrcInfo@PSIR_FileWriter@@U?$less@G@std@@V?$allocator@U?$pair@$$CBGUInternalRsrcInfo@PSIR_FileWriter@@@std@@@4@$0A@@std@@@std@@IEAAXPEAU?$_Tree_node@U?$pair@$$CBGUInternalRsrcInfo@PSIR_FileWriter@@@std@@PEAX@2@@Z 00000001800237c0 f i JPEG_Handler.obj
 0001:0002285c       ??$_Insert_hint@U?$pair@$$CBUGUID_32@JPEG_MetaHandler@@UExtXMPContent@@@std@@U_Nil@2@@?$_Tree@V?$_Tmap_traits@UGUID_32@JPEG_MetaHandler@@UExtXMPContent@@U?$less@UGUID_32@JPEG_MetaHandler@@@std@@V?$allocator@U?$pair@$$CBUGUID_32@JPEG_MetaHandler@@UExtXMPContent@@@std@@@5@$0A@@std@@@std@@IEAA?AV?$_Tree_iterator@V?$_Tree_val@U?$_Tree_simple_types@U?$pair@$$CBUGUID_32@JPEG_MetaHandler@@UExtXMPContent@@@std@@@std@@@std@@@1@V?$_Tree_const_iterator@V?$_Tree_val@U?$_Tree_simple_types@U?$pair@$$CBUGUID_32@JPEG_MetaHandler@@UExtXMPContent@@@std@@@std@@@std@@@1@$$QEAU?$pair@$$CBUGUID_32@JPEG_MetaHandler@@UExtXMPContent@@@1@U_Nil@1@@Z 000000018002385c f i JPEG_Handler.obj
 0001:00022b20       ??$_Insert_hint@U?$pair@$$CBKV?$basic_string@DU?$char_traits@D@std@@V?$allocator@D@2@@std@@@std@@U_Nil@2@@?$_Tree@V?$_Tmap_traits@KV?$basic_string@DU?$char_traits@D@std@@V?$allocator@D@2@@std@@U?$less@K@2@V?$allocator@U?$pair@$$CBKV?$basic_string@DU?$char_traits@D@std@@V?$allocator@D@2@@std@@@std@@@2@$0A@@std@@@std@@IEAA?AV?$_Tree_iterator@V?$_Tree_val@U?$_Tree_simple_types@U?$pair@$$CBKV?$basic_string@DU?$char_traits@D@std@@V?$allocator@D@2@@std@@@std@@@std@@@std@@@1@V?$_Tree_const_iterator@V?$_Tree_val@U?$_Tree_simple_types@U?$pair@$$CBKV?$basic_string@DU?$char_traits@D@std@@V?$allocator@D@2@@std@@@std@@@std@@@std@@@1@$$QEAU?$pair@$$CBKV?$basic_string@DU?$char_traits@D@std@@V?$allocator@D@2@@std@@@1@U_Nil@1@@Z 0000000180023b20 f i JPEG_Handler.obj
 0001:00022d48       ??$_Insert_nohint@U?$pair@$$CBUGUID_32@JPEG_MetaHandler@@V?$basic_string@DU?$char_traits@D@std@@V?$allocator@D@2@@std@@@std@@U_Nil@2@@?$_Tree@V?$_Tmap_traits@UGUID_32@JPEG_MetaHandler@@V?$basic_string@DU?$char_traits@D@std@@V?$allocator@D@2@@std@@U?$less@UGUID_32@JPEG_MetaHandler@@@4@V?$allocator@U?$pair@$$CBUGUID_32@JPEG_MetaHandler@@V?$basic_string@DU?$char_traits@D@std@@V?$allocator@D@2@@std@@@std@@@4@$0A@@std@@@std@@IEAA?AU?$pair@V?$_Tree_iterator@V?$_Tree_val@U?$_Tree_simple_types@U?$pair@$$CBUGUID_32@JPEG_MetaHandler@@V?$basic_string@DU?$char_traits@D@std@@V?$allocator@D@2@@std@@@std@@@std@@@std@@@std@@_N@1@_N$$QEAU?$pair@$$CBUGUID_32@JPEG_MetaHandler@@V?$basic_string@DU?$char_traits@D@std@@V?$allocator@D@2@@std@@@1@U_Nil@1@@Z 0000000180023d48 f i JPEG_Handler.obj
 0001:00022eac       ??$_Insert_at@U?$pair@$$CBUGUID_32@JPEG_MetaHandler@@UExtXMPContent@@@std@@U_Nil@2@@?$_Tree@V?$_Tmap_traits@UGUID_32@JPEG_MetaHandler@@UExtXMPContent@@U?$less@UGUID_32@JPEG_MetaHandler@@@std@@V?$allocator@U?$pair@$$CBUGUID_32@JPEG_MetaHandler@@UExtXMPContent@@@std@@@5@$0A@@std@@@std@@IEAA?AV?$_Tree_iterator@V?$_Tree_val@U?$_Tree_simple_types@U?$pair@$$CBUGUID_32@JPEG_MetaHandler@@UExtXMPContent@@@std@@@std@@@std@@@1@_NPEAU?$_Tree_node@U?$pair@$$CBUGUID_32@JPEG_MetaHandler@@UExtXMPContent@@@std@@PEAX@1@$$QEAU?$pair@$$CBUGUID_32@JPEG_MetaHandler@@UExtXMPContent@@@1@U_Nil@1@@Z 0000000180023eac f i JPEG_Handler.obj
 0001:0002313c       ??$_Insert_nohint@U?$pair@$$CBUGUID_32@JPEG_MetaHandler@@UExtXMPContent@@@std@@U_Nil@2@@?$_Tree@V?$_Tmap_traits@UGUID_32@JPEG_MetaHandler@@UExtXMPContent@@U?$less@UGUID_32@JPEG_MetaHandler@@@std@@V?$allocator@U?$pair@$$CBUGUID_32@JPEG_MetaHandler@@UExtXMPContent@@@std@@@5@$0A@@std@@@std@@IEAA?AU?$pair@V?$_Tree_iterator@V?$_Tree_val@U?$_Tree_simple_types@U?$pair@$$CBUGUID_32@JPEG_MetaHandler@@UExtXMPContent@@@std@@@std@@@std@@@std@@_N@1@_N$$QEAU?$pair@$$CBUGUID_32@JPEG_MetaHandler@@UExtXMPContent@@@1@U_Nil@1@@Z 000000018002413c f i JPEG_Handler.obj
 0001:000232a0       ??$_Insert_at@U?$pair@$$CBKV?$basic_string@DU?$char_traits@D@std@@V?$allocator@D@2@@std@@@std@@U_Nil@2@@?$_Tree@V?$_Tmap_traits@KV?$basic_string@DU?$char_traits@D@std@@V?$allocator@D@2@@std@@U?$less@K@2@V?$allocator@U?$pair@$$CBKV?$basic_string@DU?$char_traits@D@std@@V?$allocator@D@2@@std@@@std@@@2@$0A@@std@@@std@@IEAA?AV?$_Tree_iterator@V?$_Tree_val@U?$_Tree_simple_types@U?$pair@$$CBKV?$basic_string@DU?$char_traits@D@std@@V?$allocator@D@2@@std@@@std@@@std@@@std@@@1@_NPEAU?$_Tree_node@U?$pair@$$CBKV?$basic_string@DU?$char_traits@D@std@@V?$allocator@D@2@@std@@@std@@PEAX@1@$$QEAU?$pair@$$CBKV?$basic_string@DU?$char_traits@D@std@@V?$allocator@D@2@@std@@@1@U_Nil@1@@Z 00000001800242a0 f i JPEG_Handler.obj
 0001:00023530       ??$_Insert_nohint@U?$pair@$$CBKV?$basic_string@DU?$char_traits@D@std@@V?$allocator@D@2@@std@@@std@@U_Nil@2@@?$_Tree@V?$_Tmap_traits@KV?$basic_string@DU?$char_traits@D@std@@V?$allocator@D@2@@std@@U?$less@K@2@V?$allocator@U?$pair@$$CBKV?$basic_string@DU?$char_traits@D@std@@V?$allocator@D@2@@std@@@std@@@2@$0A@@std@@@std@@IEAA?AU?$pair@V?$_Tree_iterator@V?$_Tree_val@U?$_Tree_simple_types@U?$pair@$$CBKV?$basic_string@DU?$char_traits@D@std@@V?$allocator@D@2@@std@@@std@@@std@@@std@@@std@@_N@1@_N$$QEAU?$pair@$$CBKV?$basic_string@DU?$char_traits@D@std@@V?$allocator@D@2@@std@@@1@U_Nil@1@@Z 0000000180024530 f i JPEG_Handler.obj
 0001:00023648       ??$?0U?$_Wrap_alloc@V?$allocator@U?$_Tree_node@U?$pair@$$CBKV?$basic_string@DU?$char_traits@D@std@@V?$allocator@D@2@@std@@@std@@PEAX@std@@@std@@@std@@@?$_Tree@V?$_Tmap_traits@KV?$basic_string@DU?$char_traits@D@std@@V?$allocator@D@2@@std@@U?$less@K@2@V?$allocator@U?$pair@$$CBKV?$basic_string@DU?$char_traits@D@std@@V?$allocator@D@2@@std@@@std@@@2@$0A@@std@@@std@@QEAA@AEBV01@$$QEAU?$_Wrap_alloc@V?$allocator@U?$_Tree_node@U?$pair@$$CBKV?$basic_string@DU?$char_traits@D@std@@V?$allocator@D@2@@std@@@std@@PEAX@std@@@std@@@1@@Z 0000000180024648 f i JPEG_Handler.obj
 0001:00023704       ??$_Insert_at@U?$pair@$$CBUGUID_32@JPEG_MetaHandler@@V?$basic_string@DU?$char_traits@D@std@@V?$allocator@D@2@@std@@@std@@U_Nil@2@@?$_Tree@V?$_Tmap_traits@UGUID_32@JPEG_MetaHandler@@V?$basic_string@DU?$char_traits@D@std@@V?$allocator@D@2@@std@@U?$less@UGUID_32@JPEG_MetaHandler@@@4@V?$allocator@U?$pair@$$CBUGUID_32@JPEG_MetaHandler@@V?$basic_string@DU?$char_traits@D@std@@V?$allocator@D@2@@std@@@std@@@4@$0A@@std@@@std@@IEAA?AV?$_Tree_iterator@V?$_Tree_val@U?$_Tree_simple_types@U?$pair@$$CBUGUID_32@JPEG_MetaHandler@@V?$basic_string@DU?$char_traits@D@std@@V?$allocator@D@2@@std@@@std@@@std@@@std@@@1@_NPEAU?$_Tree_node@U?$pair@$$CBUGUID_32@JPEG_MetaHandler@@V?$basic_string@DU?$char_traits@D@std@@V?$allocator@D@2@@std@@@std@@PEAX@1@$$QEAU?$pair@$$CBUGUID_32@JPEG_MetaHandler@@V?$basic_string@DU?$char_traits@D@std@@V?$allocator@D@2@@std@@@1@U_Nil@1@@Z 0000000180024704 f i JPEG_Handler.obj
 0001:00023994       ??1?$pair@$$CBGUInternalRsrcInfo@PSIR_FileWriter@@@std@@QEAA@XZ 0000000180024994 f i JPEG_Handler.obj
 0001:000239e8       ??$_Buynode@U?$pair@$$CBUGUID_32@JPEG_MetaHandler@@UExtXMPContent@@@std@@@?$_Tree_comp_alloc@V?$_Tmap_traits@UGUID_32@JPEG_MetaHandler@@UExtXMPContent@@U?$less@UGUID_32@JPEG_MetaHandler@@@std@@V?$allocator@U?$pair@$$CBUGUID_32@JPEG_MetaHandler@@UExtXMPContent@@@std@@@5@$0A@@std@@@std@@QEAAPEAU?$_Tree_node@U?$pair@$$CBUGUID_32@JPEG_MetaHandler@@UExtXMPContent@@@std@@PEAX@1@$$QEAU?$pair@$$CBUGUID_32@JPEG_MetaHandler@@UExtXMPContent@@@1@@Z 00000001800249e8 f i JPEG_Handler.obj
 0001:00023a7c       ??$_Buynode@U?$pair@$$CBKV?$basic_string@DU?$char_traits@D@std@@V?$allocator@D@2@@std@@@std@@@?$_Tree_comp_alloc@V?$_Tmap_traits@KV?$basic_string@DU?$char_traits@D@std@@V?$allocator@D@2@@std@@U?$less@K@2@V?$allocator@U?$pair@$$CBKV?$basic_string@DU?$char_traits@D@std@@V?$allocator@D@2@@std@@@std@@@2@$0A@@std@@@std@@QEAAPEAU?$_Tree_node@U?$pair@$$CBKV?$basic_string@DU?$char_traits@D@std@@V?$allocator@D@2@@std@@@std@@PEAX@1@$$QEAU?$pair@$$CBKV?$basic_string@DU?$char_traits@D@std@@V?$allocator@D@2@@std@@@1@@Z 0000000180024a7c f i JPEG_Handler.obj
 0001:00023abc       ??$_Copy_nodes@U_Copy_tag@?$_Tree@V?$_Tmap_traits@KV?$basic_string@DU?$char_traits@D@std@@V?$allocator@D@2@@std@@U?$less@K@2@V?$allocator@U?$pair@$$CBKV?$basic_string@DU?$char_traits@D@std@@V?$allocator@D@2@@std@@@std@@@2@$0A@@std@@@std@@@?$_Tree@V?$_Tmap_traits@KV?$basic_string@DU?$char_traits@D@std@@V?$allocator@D@2@@std@@U?$less@K@2@V?$allocator@U?$pair@$$CBKV?$basic_string@DU?$char_traits@D@std@@V?$allocator@D@2@@std@@@std@@@2@$0A@@std@@@std@@IEAAPEAU?$_Tree_node@U?$pair@$$CBKV?$basic_string@DU?$char_traits@D@std@@V?$allocator@D@2@@std@@@std@@PEAX@1@PEAU21@0U_Copy_tag@01@@Z 0000000180024abc f i JPEG_Handler.obj
 0001:00023b58       ?_Buynode0@?$_Tree_comp_alloc@V?$_Tmap_traits@UGUID_32@JPEG_MetaHandler@@UExtXMPContent@@U?$less@UGUID_32@JPEG_MetaHandler@@@std@@V?$allocator@U?$pair@$$CBUGUID_32@JPEG_MetaHandler@@UExtXMPContent@@@std@@@5@$0A@@std@@@std@@QEAAPEAU?$_Tree_node@U?$pair@$$CBUGUID_32@JPEG_MetaHandler@@UExtXMPContent@@@std@@PEAX@2@XZ 0000000180024b58 f i JPEG_Handler.obj
 0001:00023ba0       ?_Buynode0@?$_Tree_comp_alloc@V?$_Tmap_traits@V?$basic_string@DU?$char_traits@D@std@@V?$allocator@D@2@@std@@_JU?$less@V?$basic_string@DU?$char_traits@D@std@@V?$allocator@D@2@@std@@@2@V?$allocator@U?$pair@$$CBV?$basic_string@DU?$char_traits@D@std@@V?$allocator@D@2@@std@@_J@std@@@2@$00@std@@@std@@QEAAPEAU?$_Tree_node@U?$pair@$$CBV?$basic_string@DU?$char_traits@D@std@@V?$allocator@D@2@@std@@_J@std@@PEAX@2@XZ 0000000180024ba0 f i SVG_Adapter.obj
 0001:00023ba0       ?_Buynode0@?$_Tree_comp_alloc@V?$_Tmap_traits@KUFileHandlerPair@XMP_PLUGIN@@U?$less@K@std@@V?$allocator@U?$pair@$$CBKUFileHandlerPair@XMP_PLUGIN@@@std@@@4@$0A@@std@@@std@@QEAAPEAU?$_Tree_node@U?$pair@$$CBKUFileHandlerPair@XMP_PLUGIN@@@std@@PEAX@2@XZ 0000000180024ba0 f i PluginManager.obj
 0001:00023ba0       ?_Buynode0@?$_Tree_comp_alloc@V?$_Tmap_traits@KV?$basic_string@DU?$char_traits@D@std@@V?$allocator@D@2@@std@@U?$less@K@2@V?$allocator@U?$pair@$$CBKV?$basic_string@DU?$char_traits@D@std@@V?$allocator@D@2@@std@@@std@@@2@$0A@@std@@@std@@QEAAPEAU?$_Tree_node@U?$pair@$$CBKV?$basic_string@DU?$char_traits@D@std@@V?$allocator@D@2@@std@@@std@@PEAX@2@XZ 0000000180024ba0 f i JPEG_Handler.obj
 0001:00023ba0       ?_Buynode0@?$_Tree_comp_alloc@V?$_Tmap_traits@V?$basic_string@DU?$char_traits@D@std@@V?$allocator@D@2@@std@@KUStringCompare@XMP_PLUGIN@@V?$allocator@U?$pair@$$CBV?$basic_string@DU?$char_traits@D@std@@V?$allocator@D@2@@std@@K@std@@@2@$0A@@std@@@std@@QEAAPEAU?$_Tree_node@U?$pair@$$CBV?$basic_string@DU?$char_traits@D@std@@V?$allocator@D@2@@std@@K@std@@PEAX@2@XZ 0000000180024ba0 f i XMPAtoms.obj
 0001:00023ba0       ?_Buynode0@?$_Tree_comp_alloc@V?$_Tmap_traits@GUInternalRsrcInfo@PSIR_FileWriter@@U?$less@G@std@@V?$allocator@U?$pair@$$CBGUInternalRsrcInfo@PSIR_FileWriter@@@std@@@4@$0A@@std@@@std@@QEAAPEAU?$_Tree_node@U?$pair@$$CBGUInternalRsrcInfo@PSIR_FileWriter@@@std@@PEAX@2@XZ 0000000180024ba0 f i PSIR_FileWriter.obj
 0001:00023be8       ??$_Buynode@U?$pair@$$CBUGUID_32@JPEG_MetaHandler@@V?$basic_string@DU?$char_traits@D@std@@V?$allocator@D@2@@std@@@std@@@?$_Tree_comp_alloc@V?$_Tmap_traits@UGUID_32@JPEG_MetaHandler@@V?$basic_string@DU?$char_traits@D@std@@V?$allocator@D@2@@std@@U?$less@UGUID_32@JPEG_MetaHandler@@@4@V?$allocator@U?$pair@$$CBUGUID_32@JPEG_MetaHandler@@V?$basic_string@DU?$char_traits@D@std@@V?$allocator@D@2@@std@@@std@@@4@$0A@@std@@@std@@QEAAPEAU?$_Tree_node@U?$pair@$$CBUGUID_32@JPEG_MetaHandler@@V?$basic_string@DU?$char_traits@D@std@@V?$allocator@D@2@@std@@@std@@PEAX@1@$$QEAU?$pair@$$CBUGUID_32@JPEG_MetaHandler@@V?$basic_string@DU?$char_traits@D@std@@V?$allocator@D@2@@std@@@1@@Z 0000000180024be8 f i JPEG_Handler.obj
 0001:00023c34       ??$_Buynode@AEAU?$pair@$$CBKV?$basic_string@DU?$char_traits@D@std@@V?$allocator@D@2@@std@@@std@@@?$_Tree_comp_alloc@V?$_Tmap_traits@KV?$basic_string@DU?$char_traits@D@std@@V?$allocator@D@2@@std@@U?$less@K@2@V?$allocator@U?$pair@$$CBKV?$basic_string@DU?$char_traits@D@std@@V?$allocator@D@2@@std@@@std@@@2@$0A@@std@@@std@@QEAAPEAU?$_Tree_node@U?$pair@$$CBKV?$basic_string@DU?$char_traits@D@std@@V?$allocator@D@2@@std@@@std@@PEAX@1@AEAU?$pair@$$CBKV?$basic_string@DU?$char_traits@D@std@@V?$allocator@D@2@@std@@@1@@Z 0000000180024c34 f i JPEG_Handler.obj
 0001:00023cb8       ?MP3_MetaHandlerCTor@@YAPEAVXMPFileHandler@@PEAVXMPFiles@@@Z 0000000180024cb8 f   MP3_Handler.obj
 0001:00023d88       ?MP3_CheckFormat@@YA_NKPEBDPEAVXMP_IO@@PEAVXMPFiles@@@Z 0000000180024d88 f   MP3_Handler.obj
 0001:00023f08       ??_GMP3_MetaHandler@@UEAAPEAXI@Z 0000000180024f08 f i MP3_Handler.obj
 0001:00023f08       ??_EMP3_MetaHandler@@UEAAPEAXI@Z 0000000180024f08 f i * CIL library *:* CIL module *
 0001:00024000       ?CacheFileData@MP3_MetaHandler@@UEAAXXZ 0000000180025000 f   MP3_Handler.obj
 0001:00024638       ?ProcessXMP@MP3_MetaHandler@@UEAAXXZ 0000000180025638 f   MP3_Handler.obj
 0001:00024d74       ?UpdateFile@MP3_MetaHandler@@UEAAX_N@Z 0000000180025d74 f   MP3_Handler.obj
 0001:00025838       ?WriteTempFile@MP3_MetaHandler@@UEAAXPEAVXMP_IO@@@Z 0000000180026838 f   MP3_Handler.obj
 0001:00025868       ??1?$_Tree@V?$_Tmap_traits@KPEAVValueObject@@U?$less@K@std@@V?$allocator@U?$pair@$$CBKPEAVValueObject@@@std@@@3@$0A@@std@@@std@@QEAA@XZ 0000000180026868 f i IMetadata.cpp.obj
 0001:00025868       ??1?$_Tree@V?$_Tmap_traits@KPEAUHostAPI@XMP_PLUGIN@@U?$less@K@std@@V?$allocator@U?$pair@$$CBKPEAUHostAPI@XMP_PLUGIN@@@std@@@4@$0A@@std@@@std@@QEAA@XZ 0000000180026868 f i PluginManager.obj
 0001:00025868       ??1?$_Tree@V?$_Tmap_traits@_KPEAULayoutInfo@@U?$less@_K@std@@V?$allocator@U?$pair@$$CB_KPEAULayoutInfo@@@std@@@3@$0A@@std@@@std@@QEAA@XZ 0000000180026868 f i MPEG4_Handler.obj
 0001:00025868       ??1?$_Tree@V?$_Tmap_traits@KPEAVID3v2Frame@ID3_Support@@U?$less@K@std@@V?$allocator@U?$pair@$$CBKPEAVID3v2Frame@ID3_Support@@@std@@@4@$0A@@std@@@std@@QEAA@XZ 0000000180026868 f i MP3_Handler.obj
 0001:00025868       ??1?$_Tree@V?$_Tmap_traits@KPEAVValueChunk@RIFF@@U?$less@K@std@@V?$allocator@U?$pair@$$CBKPEAVValueChunk@RIFF@@@std@@@4@$0A@@std@@@std@@QEAA@XZ 0000000180026868 f i RIFF.obj
 0001:00025868       ??1?$_Tree@V?$_Tmap_traits@PEBDPEBDVCharStarLess@@V?$allocator@U?$pair@QEBDPEBD@std@@@std@@$0A@@std@@@std@@QEAA@XZ 0000000180026868 f i ID3_Support.obj
 0001:000258fc       ?_Buyheadnode@?$_Tree_comp_alloc@V?$_Tmap_traits@KPEAVValueObject@@U?$less@K@std@@V?$allocator@U?$pair@$$CBKPEAVValueObject@@@std@@@3@$0A@@std@@@std@@QEAAPEAU?$_Tree_node@U?$pair@$$CBKPEAVValueObject@@@std@@PEAX@2@XZ 00000001800268fc f i IMetadata.cpp.obj
 0001:000258fc       ?_Buyheadnode@?$_Tree_comp_alloc@V?$_Tmap_traits@PEBDPEBDVCharStarLess@@V?$allocator@U?$pair@QEBDPEBD@std@@@std@@$0A@@std@@@std@@QEAAPEAU?$_Tree_node@U?$pair@QEBDPEBD@std@@PEAX@2@XZ 00000001800268fc f i ID3_Support.obj
 0001:000258fc       ?_Buyheadnode@?$_Tree_comp_alloc@V?$_Tmap_traits@KPEAUHostAPI@XMP_PLUGIN@@U?$less@K@std@@V?$allocator@U?$pair@$$CBKPEAUHostAPI@XMP_PLUGIN@@@std@@@4@$0A@@std@@@std@@QEAAPEAU?$_Tree_node@U?$pair@$$CBKPEAUHostAPI@XMP_PLUGIN@@@std@@PEAX@2@XZ 00000001800268fc f i PluginManager.obj
 0001:000258fc       ?_Buyheadnode@?$_Tree_comp_alloc@V?$_Tmap_traits@KPEAVID3v2Frame@ID3_Support@@U?$less@K@std@@V?$allocator@U?$pair@$$CBKPEAVID3v2Frame@ID3_Support@@@std@@@4@$0A@@std@@@std@@QEAAPEAU?$_Tree_node@U?$pair@$$CBKPEAVID3v2Frame@ID3_Support@@@std@@PEAX@2@XZ 00000001800268fc f i MP3_Handler.obj
 0001:000258fc       ?_Buyheadnode@?$_Tree_comp_alloc@V?$_Tmap_traits@_KPEAULayoutInfo@@U?$less@_K@std@@V?$allocator@U?$pair@$$CB_KPEAULayoutInfo@@@std@@@3@$0A@@std@@@std@@QEAAPEAU?$_Tree_node@U?$pair@$$CB_KPEAULayoutInfo@@@std@@PEAX@2@XZ 00000001800268fc f i MPEG4_Handler.obj
 0001:000258fc       ?_Buyheadnode@?$_Tree_comp_alloc@V?$_Tmap_traits@KPEAVValueChunk@RIFF@@U?$less@K@std@@V?$allocator@U?$pair@$$CBKPEAVValueChunk@RIFF@@@std@@@4@$0A@@std@@@std@@QEAAPEAU?$_Tree_node@U?$pair@$$CBKPEAVValueChunk@RIFF@@@std@@PEAX@2@XZ 00000001800268fc f i RIFF.obj
 0001:000258fc       ?_Buyheadnode@?$_Tree_comp_alloc@V?$_Tmap_traits@PEAXPEAVFileHandlerInstance@XMP_PLUGIN@@U?$less@PEAX@std@@V?$allocator@U?$pair@QEAXPEAVFileHandlerInstance@XMP_PLUGIN@@@std@@@4@$0A@@std@@@std@@QEAAPEAU?$_Tree_node@U?$pair@QEAXPEAVFileHandlerInstance@XMP_PLUGIN@@@std@@PEAX@2@XZ 00000001800268fc f i PluginManager.obj
 0001:00025938       ?_Erase@?$_Tree@V?$_Tmap_traits@KPEAUHostAPI@XMP_PLUGIN@@U?$less@K@std@@V?$allocator@U?$pair@$$CBKPEAUHostAPI@XMP_PLUGIN@@@std@@@4@$0A@@std@@@std@@IEAAXPEAU?$_Tree_node@U?$pair@$$CBKPEAUHostAPI@XMP_PLUGIN@@@std@@PEAX@2@@Z 0000000180026938 f i PluginManager.obj
 0001:00025938       ?_Erase@?$_Tree@V?$_Tmap_traits@PEAXPEAVFileHandlerInstance@XMP_PLUGIN@@U?$less@PEAX@std@@V?$allocator@U?$pair@QEAXPEAVFileHandlerInstance@XMP_PLUGIN@@@std@@@4@$0A@@std@@@std@@IEAAXPEAU?$_Tree_node@U?$pair@QEAXPEAVFileHandlerInstance@XMP_PLUGIN@@@std@@PEAX@2@@Z 0000000180026938 f i PluginManager.obj
 0001:00025938       ?_Erase@?$_Tree@V?$_Tmap_traits@KPEAVValueObject@@U?$less@K@std@@V?$allocator@U?$pair@$$CBKPEAVValueObject@@@std@@@3@$0A@@std@@@std@@IEAAXPEAU?$_Tree_node@U?$pair@$$CBKPEAVValueObject@@@std@@PEAX@2@@Z 0000000180026938 f i IMetadata.cpp.obj
 0001:00025938       ?_Erase@?$_Tree@V?$_Tmap_traits@KPEAVValueChunk@RIFF@@U?$less@K@std@@V?$allocator@U?$pair@$$CBKPEAVValueChunk@RIFF@@@std@@@4@$0A@@std@@@std@@IEAAXPEAU?$_Tree_node@U?$pair@$$CBKPEAVValueChunk@RIFF@@@std@@PEAX@2@@Z 0000000180026938 f i RIFF.obj
 0001:00025938       ?_Erase@?$_Tree@V?$_Tmap_traits@PEBDPEBDVCharStarLess@@V?$allocator@U?$pair@QEBDPEBD@std@@@std@@$0A@@std@@@std@@IEAAXPEAU?$_Tree_node@U?$pair@QEBDPEBD@std@@PEAX@2@@Z 0000000180026938 f i ID3_Support.obj
 0001:00025938       ?_Erase@?$_Tree@V?$_Tmap_traits@_KPEAULayoutInfo@@U?$less@_K@std@@V?$allocator@U?$pair@$$CB_KPEAULayoutInfo@@@std@@@3@$0A@@std@@@std@@IEAAXPEAU?$_Tree_node@U?$pair@$$CB_KPEAULayoutInfo@@@std@@PEAX@2@@Z 0000000180026938 f i MPEG4_Handler.obj
 0001:00025938       ?_Erase@?$_Tree@V?$_Tmap_traits@KPEAVID3v2Frame@ID3_Support@@U?$less@K@std@@V?$allocator@U?$pair@$$CBKPEAVID3v2Frame@ID3_Support@@@std@@@4@$0A@@std@@@std@@IEAAXPEAU?$_Tree_node@U?$pair@$$CBKPEAVID3v2Frame@ID3_Support@@@std@@PEAX@2@@Z 0000000180026938 f i MP3_Handler.obj
 0001:00025990       ?MPEG2_MetaHandlerCTor@@YAPEAVXMPFileHandler@@PEAVXMPFiles@@@Z 0000000180026990 f   MPEG2_Handler.obj
 0001:00025aa0       ?MPEG2_CheckFormat@@YA_NKPEBDPEAVXMP_IO@@PEAVXMPFiles@@@Z 0000000180026aa0 f   MPEG2_Handler.obj
 0001:00025ac0       ??_EMPEG2_MetaHandler@@UEAAPEAXI@Z 0000000180026ac0 f i * CIL library *:* CIL module *
 0001:00025ac0       ??_GMPEG2_MetaHandler@@UEAAPEAXI@Z 0000000180026ac0 f i MPEG2_Handler.obj
 0001:00025b54       ?GetFileModDate@MPEG2_MetaHandler@@UEAA_NPEAUXMP_DateTime@@@Z 0000000180026b54 f   MPEG2_Handler.obj
 0001:00025ba0       ?FillAssociatedResources@MPEG2_MetaHandler@@UEAAXPEAV?$vector@V?$basic_string@DU?$char_traits@D@std@@V?$allocator@D@2@@std@@V?$allocator@V?$basic_string@DU?$char_traits@D@std@@V?$allocator@D@2@@std@@@2@@std@@@Z 0000000180026ba0 f   MPEG2_Handler.obj
 0001:00025bdc       ?IsMetadataWritable@MPEG2_MetaHandler@@UEAA_NXZ 0000000180026bdc f   MPEG2_Handler.obj
 0001:00025bf4       ?CacheFileData@MPEG2_MetaHandler@@UEAAXXZ 0000000180026bf4 f   MPEG2_Handler.obj
 0001:00025d78       ?UpdateFile@MPEG2_MetaHandler@@UEAAX_N@Z 0000000180026d78 f   MPEG2_Handler.obj
 0001:00025e5c       ?WriteTempFile@MPEG2_MetaHandler@@UEAAXPEAVXMP_IO@@@Z 0000000180026e5c f   MPEG2_Handler.obj
 0001:00025e8c       __local_stdio_scanf_options 0000000180026e8c f i MPEG4_Handler.obj
 0001:00025e94       sscanf                     0000000180026e94 f i MPEG4_Handler.obj
 0001:00025ee0       ??1MOOV_Manager@@UEAA@XZ   0000000180026ee0 f i MPEG4_Handler.obj
 0001:00025f58       ??_EMOOV_Manager@@UEAAPEAXI@Z 0000000180026f58 f i * CIL library *:* CIL module *
 0001:00025f58       ??_GMOOV_Manager@@UEAAPEAXI@Z 0000000180026f58 f i MPEG4_Handler.obj
 0001:00025f8c       ??1BoxNode@MOOV_Manager@@QEAA@XZ 0000000180026f8c f i MPEG4_Handler.obj
 0001:00025fd0       ??_EMPEG4_MetaHandler@@UEAAPEAXI@Z 0000000180026fd0 f i * CIL library *:* CIL module *
 0001:00025fd0       ??_GMPEG4_MetaHandler@@UEAAPEAXI@Z 0000000180026fd0 f i MPEG4_Handler.obj
 0001:00026004       ?MPEG4_CheckFormat@@YA_NKPEBDPEAVXMP_IO@@PEAVXMPFiles@@@Z 0000000180027004 f   MPEG4_Handler.obj
 0001:00026350       ?MPEG4_MetaHandlerCTor@@YAPEAVXMPFileHandler@@PEAVXMPFiles@@@Z 0000000180027350 f   MPEG4_Handler.obj
 0001:0002649c       ??1MPEG4_MetaHandler@@UEAA@XZ 000000018002749c f   MPEG4_Handler.obj
 0001:000265dc       ?IsLeapYear@ASF_LegacyManager@@CA_NJ@Z 00000001800275dc f   ASF_Support.obj
 0001:0002a10c       ?CacheFileData@MPEG4_MetaHandler@@UEAAXXZ 000000018002b10c f   MPEG4_Handler.obj
 0001:0002a418       ?ProcessXMP@MPEG4_MetaHandler@@UEAAXXZ 000000018002b418 f   MPEG4_Handler.obj
 0001:0002a968       ?ParseTimecodeTrack@MPEG4_MetaHandler@@AEAA_NXZ 000000018002b968 f   MPEG4_Handler.obj
 0001:0002b014       ?UpdateTopLevelBox@MPEG4_MetaHandler@@AEAAX_KKPEBEK@Z 000000018002c014 f   MPEG4_Handler.obj
 0001:0002b41c       ?OptimizeFileLayout@MPEG4_MetaHandler@@AEAAXXZ 000000018002c41c f   MPEG4_Handler.obj
 0001:0002bf44       ??1?$map@KPEAVValueChunk@RIFF@@U?$less@K@std@@V?$allocator@U?$pair@$$CBKPEAVValueChunk@RIFF@@@std@@@4@@std@@QEAA@XZ 000000018002cf44 f i RIFF.obj
 0001:0002bf44       ??1?$map@KPEAUHostAPI@XMP_PLUGIN@@U?$less@K@std@@V?$allocator@U?$pair@$$CBKPEAUHostAPI@XMP_PLUGIN@@@std@@@4@@std@@QEAA@XZ 000000018002cf44 f i PluginManager.obj
 0001:0002bf44       ??1?$map@_KPEAULayoutInfo@@U?$less@_K@std@@V?$allocator@U?$pair@$$CB_KPEAULayoutInfo@@@std@@@3@@std@@QEAA@XZ 000000018002cf44 f i MPEG4_Handler.obj
 0001:0002bf4c       ?UpdateFile@MPEG4_MetaHandler@@UEAAX_N@Z 000000018002cf4c f   MPEG4_Handler.obj
 0001:0002c2ec       ?WriteTempFile@MPEG4_MetaHandler@@UEAAXPEAVXMP_IO@@@Z 000000018002d2ec f   MPEG4_Handler.obj
 0001:0002c3cc       ??1?$vector@ULayoutInfo@@V?$allocator@ULayoutInfo@@@std@@@std@@QEAA@XZ 000000018002d3cc f i MPEG4_Handler.obj
 0001:0002c408       ??1?$vector@USpaceInfo@@V?$allocator@USpaceInfo@@@std@@@std@@QEAA@XZ 000000018002d408 f i MPEG4_Handler.obj
 0001:0002c408       ??1?$vector@U?$pair@PEBDPEBD@std@@V?$allocator@U?$pair@PEBDPEBD@std@@@2@@std@@QEAA@XZ 000000018002d408 f i WAVEReconcile.obj
 0001:0002c444       ??1?$vector@USnipInfo@XMPScanner@@V?$allocator@USnipInfo@XMPScanner@@@std@@@std@@QEAA@XZ 000000018002d444 f i PostScript_Handler.obj
 0001:0002c444       ??1?$vector@UBoxInfo@MOOV_Manager@@V?$allocator@UBoxInfo@MOOV_Manager@@@std@@@std@@QEAA@XZ 000000018002d444 f i MPEG4_Handler.obj
 0001:0002c498       ??1?$_Tree@V?$_Tmap_traits@KUParsedBoxInfo@TradQT_Manager@@U?$less@K@std@@V?$allocator@U?$pair@$$CBKUParsedBoxInfo@TradQT_Manager@@@std@@@4@$0A@@std@@@std@@QEAA@XZ 000000018002d498 f i MPEG4_Handler.obj
 0001:0002c534       ??1?$vector@UValueInfo@TradQT_Manager@@V?$allocator@UValueInfo@TradQT_Manager@@@std@@@std@@QEAA@XZ 000000018002d534 f i MPEG4_Handler.obj
 0001:0002c534       ??1?$vector@UCheckFormat@XMP_PLUGIN@@V?$allocator@UCheckFormat@XMP_PLUGIN@@@std@@@std@@QEAA@XZ 000000018002d534 f i XMPAtoms.obj
 0001:0002c608       ??1?$vector@UBoxNode@MOOV_Manager@@V?$allocator@UBoxNode@MOOV_Manager@@@std@@@std@@QEAA@XZ 000000018002d608 f i MPEG4_Handler.obj
 0001:0002c610       ?_Reserve@?$vector@UBoxInfo@MOOV_Manager@@V?$allocator@UBoxInfo@MOOV_Manager@@@std@@@std@@IEAAX_K@Z 000000018002d610 f i MPEG4_Handler.obj
 0001:0002c610       ?_Reserve@?$vector@USnipInfo@XMPScanner@@V?$allocator@USnipInfo@XMPScanner@@@std@@@std@@IEAAX_K@Z 000000018002d610 f i XMPScanner.obj
 0001:0002c6cc       ?_Tidy@?$vector@UBoxNode@MOOV_Manager@@V?$allocator@UBoxNode@MOOV_Manager@@@std@@@std@@IEAAXXZ 000000018002d6cc f i MPEG4_Handler.obj
 0001:0002c760       ?_Reallocate@?$vector@ULayoutInfo@@V?$allocator@ULayoutInfo@@@std@@@std@@IEAAX_K@Z 000000018002d760 f i MPEG4_Handler.obj
 0001:0002c83c       ?_Reallocate@?$vector@USnipInfo@XMPScanner@@V?$allocator@USnipInfo@XMPScanner@@@std@@@std@@IEAAX_K@Z 000000018002d83c f i XMPScanner.obj
 0001:0002c83c       ?_Reallocate@?$vector@UBoxInfo@MOOV_Manager@@V?$allocator@UBoxInfo@MOOV_Manager@@@std@@@std@@IEAAX_K@Z 000000018002d83c f i MPEG4_Handler.obj
 0001:0002c94c       ?_Insert_n@?$vector@EV?$allocator@E@std@@@std@@IEAA?AV?$_Vector_iterator@V?$_Vector_val@U?$_Simple_types@E@std@@@std@@@2@V?$_Vector_const_iterator@V?$_Vector_val@U?$_Simple_types@E@std@@@std@@@2@_KAEBE@Z 000000018002d94c f i MPEG4_Handler.obj
 0001:0002cb88       ?erase@?$_Tree@V?$_Tmap_traits@KUParsedBoxInfo@TradQT_Manager@@U?$less@K@std@@V?$allocator@U?$pair@$$CBKUParsedBoxInfo@TradQT_Manager@@@std@@@4@$0A@@std@@@std@@QEAA?AV?$_Tree_iterator@V?$_Tree_val@U?$_Tree_simple_types@U?$pair@$$CBKUParsedBoxInfo@TradQT_Manager@@@std@@@std@@@std@@@2@V?$_Tree_const_iterator@V?$_Tree_val@U?$_Tree_simple_types@U?$pair@$$CBKUParsedBoxInfo@TradQT_Manager@@@std@@@std@@@std@@@2@@Z 000000018002db88 f i MPEG4_Handler.obj
 0001:0002d034       ?_Buyheadnode@?$_Tree_comp_alloc@V?$_Tmap_traits@GVInternalTagInfo@TIFF_FileWriter@@U?$less@G@std@@V?$allocator@U?$pair@$$CBGVInternalTagInfo@TIFF_FileWriter@@@std@@@4@$0A@@std@@@std@@QEAAPEAU?$_Tree_node@U?$pair@$$CBGVInternalTagInfo@TIFF_FileWriter@@@std@@PEAX@2@XZ 000000018002e034 f i TIFF_FileWriter.obj
 0001:0002d034       ?_Buyheadnode@?$_Tree_comp_alloc@V?$_Tmap_traits@KUParsedBoxInfo@TradQT_Manager@@U?$less@K@std@@V?$allocator@U?$pair@$$CBKUParsedBoxInfo@TradQT_Manager@@@std@@@4@$0A@@std@@@std@@QEAAPEAU?$_Tree_node@U?$pair@$$CBKUParsedBoxInfo@TradQT_Manager@@@std@@PEAX@2@XZ 000000018002e034 f i MPEG4_Handler.obj
 0001:0002d070       ?_Erase@?$_Tree@V?$_Tmap_traits@KUParsedBoxInfo@TradQT_Manager@@U?$less@K@std@@V?$allocator@U?$pair@$$CBKUParsedBoxInfo@TradQT_Manager@@@std@@@4@$0A@@std@@@std@@IEAAXPEAU?$_Tree_node@U?$pair@$$CBKUParsedBoxInfo@TradQT_Manager@@@std@@PEAX@2@@Z 000000018002e070 f i MPEG4_Handler.obj
 0001:0002d0d0       ??$?9DU?$char_traits@D@std@@V?$allocator@D@1@@std@@YA_NAEBV?$basic_string@DU?$char_traits@D@std@@V?$allocator@D@2@@0@0@Z 000000018002e0d0 f i MPEG4_Handler.obj
 0001:0002d138       ??$_Insert_hint@U?$pair@$$CB_KPEAULayoutInfo@@@std@@U_Nil@2@@?$_Tree@V?$_Tmap_traits@_KPEAULayoutInfo@@U?$less@_K@std@@V?$allocator@U?$pair@$$CB_KPEAULayoutInfo@@@std@@@3@$0A@@std@@@std@@IEAA?AV?$_Tree_iterator@V?$_Tree_val@U?$_Tree_simple_types@U?$pair@$$CB_KPEAULayoutInfo@@@std@@@std@@@std@@@1@V?$_Tree_const_iterator@V?$_Tree_val@U?$_Tree_simple_types@U?$pair@$$CB_KPEAULayoutInfo@@@std@@@std@@@std@@@1@$$QEAU?$pair@$$CB_KPEAULayoutInfo@@@1@U_Nil@1@@Z 000000018002e138 f i MPEG4_Handler.obj
 0001:0002d360       ??$_Insert_at@U?$pair@$$CB_KPEAULayoutInfo@@@std@@U_Nil@2@@?$_Tree@V?$_Tmap_traits@_KPEAULayoutInfo@@U?$less@_K@std@@V?$allocator@U?$pair@$$CB_KPEAULayoutInfo@@@std@@@3@$0A@@std@@@std@@IEAA?AV?$_Tree_iterator@V?$_Tree_val@U?$_Tree_simple_types@U?$pair@$$CB_KPEAULayoutInfo@@@std@@@std@@@std@@@1@_NPEAU?$_Tree_node@U?$pair@$$CB_KPEAULayoutInfo@@@std@@PEAX@1@$$QEAU?$pair@$$CB_KPEAULayoutInfo@@@1@U_Nil@1@@Z 000000018002e360 f i MPEG4_Handler.obj
 0001:0002d5f0       ??$_Insert_nohint@U?$pair@$$CB_KPEAULayoutInfo@@@std@@U_Nil@2@@?$_Tree@V?$_Tmap_traits@_KPEAULayoutInfo@@U?$less@_K@std@@V?$allocator@U?$pair@$$CB_KPEAULayoutInfo@@@std@@@3@$0A@@std@@@std@@IEAA?AU?$pair@V?$_Tree_iterator@V?$_Tree_val@U?$_Tree_simple_types@U?$pair@$$CB_KPEAULayoutInfo@@@std@@@std@@@std@@@std@@_N@1@_N$$QEAU?$pair@$$CB_KPEAULayoutInfo@@@1@U_Nil@1@@Z 000000018002e5f0 f i MPEG4_Handler.obj
 0001:0002d708       ??1?$pair@$$CBKUParsedBoxInfo@TradQT_Manager@@@std@@QEAA@XZ 000000018002e708 f i MPEG4_Handler.obj
 0001:0002d714       ??1ParsedBoxInfo@TradQT_Manager@@QEAA@XZ 000000018002e714 f i MPEG4_Handler.obj
 0001:0002d720       ??$_Buynode@U?$pair@$$CB_KPEAULayoutInfo@@@std@@@?$_Tree_comp_alloc@V?$_Tmap_traits@_KPEAULayoutInfo@@U?$less@_K@std@@V?$allocator@U?$pair@$$CB_KPEAULayoutInfo@@@std@@@3@$0A@@std@@@std@@QEAAPEAU?$_Tree_node@U?$pair@$$CB_KPEAULayoutInfo@@@std@@PEAX@1@$$QEAU?$pair@$$CB_KPEAULayoutInfo@@@1@@Z 000000018002e720 f i MPEG4_Handler.obj
 0001:0002d720       ??$_Buynode@AEAU?$pair@QEBDPEBD@std@@@?$_Tree_comp_alloc@V?$_Tmap_traits@PEBDPEBDVCharStarLess@@V?$allocator@U?$pair@QEBDPEBD@std@@@std@@$0A@@std@@@std@@QEAAPEAU?$_Tree_node@U?$pair@QEBDPEBD@std@@PEAX@1@AEAU?$pair@QEBDPEBD@1@@Z 000000018002e720 f i ID3_Support.obj
 0001:0002d74c       ??$_Uninitialized_move_al_unchecked1@PEAULayoutInfo@@PEAU1@V?$allocator@ULayoutInfo@@@std@@@std@@YAPEAULayoutInfo@@PEAU1@00AEAU?$_Wrap_alloc@V?$allocator@ULayoutInfo@@@std@@@0@U_General_ptr_iterator_tag@0@U_Any_tag@0@@Z 000000018002e74c f i MPEG4_Handler.obj
 0001:0002d774       ??$_Uninitialized_move_al_unchecked1@PEAUBoxInfo@MOOV_Manager@@PEAU12@V?$allocator@UBoxInfo@MOOV_Manager@@@std@@@std@@YAPEAUBoxInfo@MOOV_Manager@@PEAU12@00AEAU?$_Wrap_alloc@V?$allocator@UBoxInfo@MOOV_Manager@@@std@@@0@U_General_ptr_iterator_tag@0@U_Any_tag@0@@Z 000000018002e774 f i MPEG4_Handler.obj
 0001:0002d774       ??$_Uninitialized_move_al_unchecked1@PEAUSnipInfo@XMPScanner@@PEAU12@V?$allocator@USnipInfo@XMPScanner@@@std@@@std@@YAPEAUSnipInfo@XMPScanner@@PEAU12@00AEAU?$_Wrap_alloc@V?$allocator@USnipInfo@XMPScanner@@@std@@@0@U_General_ptr_iterator_tag@0@U_Any_tag@0@@Z 000000018002e774 f i XMPScanner.obj
 0001:0002d7a8       ??1ValueInfo@TradQT_Manager@@QEAA@XZ 000000018002e7a8 f i MPEG4_Handler.obj
 0001:0002d7a8       ??1CheckFormat@XMP_PLUGIN@@QEAA@XZ 000000018002e7a8 f i PluginManager.obj
 0001:0002d7f8       ?GetSerializeOptions@XDCAMEX_MetaHandler@@UEAAKXZ 000000018002e7f8 f i XDCAMEX_Handler.obj
 0001:0002d7f8       ?GetSerializeOptions@P2_MetaHandler@@UEAAKXZ 000000018002e7f8 f i P2_Handler.obj
 0001:0002d7f8       ?GetSerializeOptions@SonyHDV_MetaHandler@@UEAAKXZ 000000018002e7f8 f i SonyHDV_Handler.obj
 0001:0002d7f8       ?GetSerializeOptions@XDCAM_MetaHandler@@UEAAKXZ 000000018002e7f8 f i XDCAMFAM_Handler.obj
 0001:0002d800       ??_EP2_MetaHandler@@UEAAPEAXI@Z 000000018002e800 f i * CIL library *:* CIL module *
 0001:0002d800       ??_GP2_MetaHandler@@UEAAPEAXI@Z 000000018002e800 f i P2_Handler.obj
 0001:0002d98c       ?P2_CheckFormat@@YA_NKAEBV?$basic_string@DU?$char_traits@D@std@@V?$allocator@D@2@@std@@000PEAVXMPFiles@@@Z 000000018002e98c f   P2_Handler.obj
 0001:0002e134       ?P2_MetaHandlerCTor@@YAPEAVXMPFileHandler@@PEAVXMPFiles@@@Z 000000018002f134 f   P2_Handler.obj
 0001:0002e168       ??0P2_MetaHandler@@QEAA@PEAVXMPFiles@@@Z 000000018002f168 f   P2_Handler.obj
 0001:0002e4c0       ??1P2_MetaHandler@@UEAA@XZ 000000018002f4c0 f   P2_Handler.obj
 0001:0002e5b0       ?MakeClipFilePath@P2_MetaHandler@@AEAA_NPEAV?$basic_string@DU?$char_traits@D@std@@V?$allocator@D@2@@std@@PEBD_N@Z 000000018002f5b0 f   P2_Handler.obj
 0001:0002e5fc       ?SetXMPPropertyFromLegacyXML@P2_MetaHandler@@AEAAX_NPEAV?$basic_string@DU?$char_traits@D@std@@V?$allocator@D@2@@std@@PEBD20@Z 000000018002f5fc f   P2_Handler.obj
 0001:0002e6b0       ?SetXMPPropertyFromLegacyXML@P2_MetaHandler@@AEAAX_NPEAVXML_Node@@PEBD220@Z 000000018002f6b0 f   P2_Handler.obj
 0001:0002e768       ?SetRelationsFromLegacyXML@P2_MetaHandler@@AEAAX_N@Z 000000018002f768 f   P2_Handler.obj
 0001:0002eb94       ?SetAudioInfoFromLegacyXML@P2_MetaHandler@@AEAAX_N@Z 000000018002fb94 f   P2_Handler.obj
 0001:0002edec       ?SetVideoInfoFromLegacyXML@P2_MetaHandler@@AEAAX_N@Z 000000018002fdec f   P2_Handler.obj
 0001:0002eeb4       ?SetDurationFromLegacyXML@P2_MetaHandler@@AEAAX_N@Z 000000018002feb4 f   P2_Handler.obj
 0001:0002f074       ??_D?$basic_ostringstream@DU?$char_traits@D@std@@V?$allocator@D@2@@std@@QEAAXXZ 0000000180030074 f i P2_Handler.obj
 0001:0002f0d8       ?SetVideoFrameInfoFromLegacyXML@P2_MetaHandler@@AEAAXPEAVXML_Node@@_N@Z 00000001800300d8 f   P2_Handler.obj
 0001:0002fae4       ?SetStartTimecodeFromLegacyXML@P2_MetaHandler@@AEAAXPEAVXML_Node@@_N@Z 0000000180030ae4 f   P2_Handler.obj
 0001:0002ff80       ?AdjustTimeCode@P2_MetaHandler@@AEAAXAEAV?$basic_string@DU?$char_traits@D@std@@V?$allocator@D@2@@std@@AEBE@Z 0000000180030f80 f   P2_Handler.obj
 0001:00030324       ??_D?$basic_stringstream@DU?$char_traits@D@std@@V?$allocator@D@2@@std@@QEAAXXZ 0000000180031324 f i P2_Handler.obj
 0001:00030388       ?SetGPSPropertyFromLegacyXML@P2_MetaHandler@@AEAAXPEAVXML_Node@@_NPEBD2@Z 0000000180031388 f   P2_Handler.obj
 0001:00030578       ?SetAltitudeFromLegacyXML@P2_MetaHandler@@AEAAXPEAVXML_Node@@_N@Z 0000000180031578 f   P2_Handler.obj
 0001:00030754       ?ForceChildElement@P2_MetaHandler@@AEAAPEAVXML_Node@@PEAV2@PEBDJE@Z 0000000180031754 f   P2_Handler.obj
 0001:000309e4       ?IsMetadataWritable@P2_MetaHandler@@UEAA_NXZ 00000001800319e4 f   P2_Handler.obj
 0001:00030cb8       ?FillAssociatedResources@P2_MetaHandler@@UEAAXPEAV?$vector@V?$basic_string@DU?$char_traits@D@std@@V?$allocator@D@2@@std@@V?$allocator@V?$basic_string@DU?$char_traits@D@std@@V?$allocator@D@2@@std@@@2@@std@@@Z 0000000180031cb8 f   P2_Handler.obj
 0001:00031314       ?CacheFileData@P2_MetaHandler@@UEAAXXZ 0000000180032314 f   P2_Handler.obj
 0001:00031514       ?ProcessXMP@P2_MetaHandler@@UEAAXXZ 0000000180032514 f   P2_Handler.obj
 0001:00031c84       ?UpdateFile@P2_MetaHandler@@UEAAX_N@Z 0000000180032c84 f   P2_Handler.obj
 0001:000323b4       ?WriteTempFile@P2_MetaHandler@@UEAAXPEAVXMP_IO@@@Z 00000001800333b4 f   P2_Handler.obj
 0001:000323e4       ?compare@?$basic_string@DU?$char_traits@D@std@@V?$allocator@D@2@@std@@QEBAH_K0PEBD@Z 00000001800333e4 f i P2_Handler.obj
 0001:00032498       ?str@?$basic_stringstream@DU?$char_traits@D@std@@V?$allocator@D@2@@std@@QEBA?AV?$basic_string@DU?$char_traits@D@std@@V?$allocator@D@2@@2@XZ 0000000180033498 f i P2_Handler.obj
 0001:000324b8       ?str@?$basic_ostringstream@DU?$char_traits@D@std@@V?$allocator@D@2@@std@@QEBA?AV?$basic_string@DU?$char_traits@D@std@@V?$allocator@D@2@@2@XZ 00000001800334b8 f i P2_Handler.obj
 0001:000324d8       ??0?$basic_ostringstream@DU?$char_traits@D@std@@V?$allocator@D@2@@std@@QEAA@H@Z 00000001800334d8 f i P2_Handler.obj
 0001:00032588       ?seekpos@?$basic_stringbuf@DU?$char_traits@D@std@@V?$allocator@D@2@@std@@MEAA?AV?$fpos@U_Mbstatet@@@2@V32@H@Z 0000000180033588 f i P2_Handler.obj
 0001:00032698       ?seekoff@?$basic_stringbuf@DU?$char_traits@D@std@@V?$allocator@D@2@@std@@MEAA?AV?$fpos@U_Mbstatet@@@2@_JHH@Z 0000000180033698 f i P2_Handler.obj
 0001:00032814       ?underflow@?$basic_stringbuf@DU?$char_traits@D@std@@V?$allocator@D@2@@std@@MEAAHXZ 0000000180033814 f i P2_Handler.obj
 0001:00032874       ?pbackfail@?$basic_stringbuf@DU?$char_traits@D@std@@V?$allocator@D@2@@std@@MEAAHH@Z 0000000180033874 f i P2_Handler.obj
 0001:000328c0       ?overflow@?$basic_stringbuf@DU?$char_traits@D@std@@V?$allocator@D@2@@std@@MEAAHH@Z 00000001800338c0 f i P2_Handler.obj
 0001:00032b0c       ??1?$basic_stringbuf@DU?$char_traits@D@std@@V?$allocator@D@2@@std@@UEAA@XZ 0000000180033b0c f i P2_Handler.obj
 0001:00032ba8       ??_E?$basic_stringstream@DU?$char_traits@D@std@@V?$allocator@D@2@@std@@UEAAPEAXI@Z 0000000180033ba8 f i * CIL library *:* CIL module *
 0001:00032ba8       ??_G?$basic_stringstream@DU?$char_traits@D@std@@V?$allocator@D@2@@std@@UEAAPEAXI@Z 0000000180033ba8 f i P2_Handler.obj
 0001:00032c34       ??_E?$basic_ostringstream@DU?$char_traits@D@std@@V?$allocator@D@2@@std@@UEAAPEAXI@Z 0000000180033c34 f i * CIL library *:* CIL module *
 0001:00032c34       ??_G?$basic_ostringstream@DU?$char_traits@D@std@@V?$allocator@D@2@@std@@UEAAPEAXI@Z 0000000180033c34 f i P2_Handler.obj
 0001:00032cc0       ??_E?$basic_stringbuf@DU?$char_traits@D@std@@V?$allocator@D@2@@std@@UEAAPEAXI@Z 0000000180033cc0 f i * CIL library *:* CIL module *
 0001:00032cc0       ??_G?$basic_stringbuf@DU?$char_traits@D@std@@V?$allocator@D@2@@std@@UEAAPEAXI@Z 0000000180033cc0 f i P2_Handler.obj
 0001:00032cf4       ??1sentry@?$basic_ostream@DU?$char_traits@D@std@@@std@@QEAA@XZ 0000000180033cf4 f i P2_Handler.obj
 0001:00032d3c       ??0sentry@?$basic_ostream@DU?$char_traits@D@std@@@std@@QEAA@AEAV12@@Z 0000000180033d3c f i P2_Handler.obj
 0001:00032db8       ?str@?$basic_stringbuf@DU?$char_traits@D@std@@V?$allocator@D@2@@std@@QEBA?AV?$basic_string@DU?$char_traits@D@std@@V?$allocator@D@2@@2@XZ 0000000180033db8 f i P2_Handler.obj
 0001:00032f18       ??1_Sentry_base@?$basic_ostream@DU?$char_traits@D@std@@@std@@QEAA@XZ 0000000180033f18 f i P2_Handler.obj
 0001:00032f48       ?_Init@?$basic_stringbuf@DU?$char_traits@D@std@@V?$allocator@D@2@@std@@IEAAXPEBD_KH@Z 0000000180033f48 f i P2_Handler.obj
 0001:0003304c       ??$?6U?$char_traits@D@std@@@std@@YAAEAV?$basic_ostream@DU?$char_traits@D@std@@@0@AEAV10@D@Z 000000018003404c f i P2_Handler.obj
 0001:000331a4       ??$?6DU?$char_traits@D@std@@V?$allocator@D@1@@std@@YAAEAV?$basic_ostream@DU?$char_traits@D@std@@@0@AEAV10@AEBV?$basic_string@DU?$char_traits@D@std@@V?$allocator@D@2@@0@@Z 00000001800341a4 f i P2_Handler.obj
 0001:0003332c       ??$_Insert@V?$_Vector_iterator@V?$_Vector_val@U?$_Simple_types@PEAVXML_Node@@@std@@@std@@@std@@@?$vector@PEAVXML_Node@@V?$allocator@PEAVXML_Node@@@std@@@std@@QEAAXV?$_Vector_const_iterator@V?$_Vector_val@U?$_Simple_types@PEAVXML_Node@@@std@@@std@@@1@V?$_Vector_iterator@V?$_Vector_val@U?$_Simple_types@PEAVXML_Node@@@std@@@std@@@1@1Uforward_iterator_tag@1@@Z 000000018003432c f i P2_Handler.obj
 0001:0003355c       ??_E?$basic_stringstream@DU?$char_traits@D@std@@V?$allocator@D@2@@std@@$4PPPPPPPM@A@EAAPEAXI@Z 000000018003455c f i P2_Handler.obj
 0001:00033568       ??_E?$basic_ostringstream@DU?$char_traits@D@std@@V?$allocator@D@2@@std@@$4PPPPPPPM@A@EAAPEAXI@Z 0000000180034568 f i P2_Handler.obj
 0001:00033574       ??1ChunkData@PNG_Support@@UEAA@XZ 0000000180034574 f i PNG_Handler.obj
 0001:00033580       ??_GChunkData@PNG_Support@@UEAAPEAXI@Z 0000000180034580 f i PNG_Handler.obj
 0001:00033580       ??_EChunkData@PNG_Support@@UEAAPEAXI@Z 0000000180034580 f i * CIL library *:* CIL module *
 0001:000335ac       ??1ChunkState@PNG_Support@@UEAA@XZ 00000001800345ac f i PNG_Handler.obj
 0001:00033630       ??_EChunkState@PNG_Support@@UEAAPEAXI@Z 0000000180034630 f i * CIL library *:* CIL module *
 0001:00033630       ??_GChunkState@PNG_Support@@UEAAPEAXI@Z 0000000180034630 f i PNG_Handler.obj
 0001:00033664       ?PNG_MetaHandlerCTor@@YAPEAVXMPFileHandler@@PEAVXMPFiles@@@Z 0000000180034664 f   PNG_Handler.obj
 0001:000336bc       ?PNG_CheckFormat@@YA_NKPEBDPEAVXMP_IO@@PEAVXMPFiles@@@Z 00000001800346bc f   PNG_Handler.obj
 0001:0003373c       ??_EPNG_MetaHandler@@UEAAPEAXI@Z 000000018003473c f i * CIL library *:* CIL module *
 0001:0003373c       ??_GPNG_MetaHandler@@UEAAPEAXI@Z 000000018003473c f i PNG_Handler.obj
 0001:0003377c       ?CacheFileData@PNG_MetaHandler@@UEAAXXZ 000000018003477c f   PNG_Handler.obj
 0001:000338d8       ?UpdateFile@PNG_MetaHandler@@UEAAX_N@Z 00000001800348d8 f   PNG_Handler.obj
 0001:00033a30       ?WriteTempFile@PNG_MetaHandler@@UEAAXPEAVXMP_IO@@@Z 0000000180034a30 f   PNG_Handler.obj
 0001:00033b8c       ?SafeWriteFile@PNG_MetaHandler@@QEAA_NXZ 0000000180034b8c f   PNG_Handler.obj
 0001:00033bfc       ??_EPSD_MetaHandler@@UEAAPEAXI@Z 0000000180034bfc f i * CIL library *:* CIL module *
 0001:00033bfc       ??_GPSD_MetaHandler@@UEAAPEAXI@Z 0000000180034bfc f i PSD_Handler.obj
 0001:00033c30       ?PSD_CheckFormat@@YA_NKPEBDPEAVXMP_IO@@PEAVXMPFiles@@@Z 0000000180034c30 f   PSD_Handler.obj
 0001:00033cbc       ?PSD_MetaHandlerCTor@@YAPEAVXMPFileHandler@@PEAVXMPFiles@@@Z 0000000180034cbc f   PSD_Handler.obj
 0001:00033d78       ??1PSD_MetaHandler@@UEAA@XZ 0000000180034d78 f   PSD_Handler.obj
 0001:00033dd4       ?CacheFileData@PSD_MetaHandler@@UEAAXXZ 0000000180034dd4 f   PSD_Handler.obj
 0001:00033f70       ?ProcessXMP@PSD_MetaHandler@@UEAAXXZ 0000000180034f70 f   PSD_Handler.obj
 0001:0003431c       ?UpdateFile@PSD_MetaHandler@@UEAAX_N@Z 000000018003531c f   PSD_Handler.obj
 0001:000344f4       ?WriteTempFile@PSD_MetaHandler@@UEAAXPEAVXMP_IO@@@Z 00000001800354f4 f   PSD_Handler.obj
 0001:000348ac       ?PostScript_MetaHandlerCTor@@YAPEAVXMPFileHandler@@PEAVXMPFiles@@@Z 00000001800358ac f   PostScript_Handler.obj
 0001:00034994       ?PostScript_CheckFormat@@YA_NKPEBDPEAVXMP_IO@@PEAVXMPFiles@@@Z 0000000180035994 f   PostScript_Handler.obj
 0001:000349b0       ??_EPostScript_MetaHandler@@UEAAPEAXI@Z 00000001800359b0 f i * CIL library *:* CIL module *
 0001:000349b0       ??_GPostScript_MetaHandler@@UEAAPEAXI@Z 00000001800359b0 f i PostScript_Handler.obj
 0001:00034a18       ?FindFirstPacket@PostScript_MetaHandler@@IEAA_NXZ 0000000180035a18 f   PostScript_Handler.obj
 0001:00034cb8       ?FindLastPacket@PostScript_MetaHandler@@IEAA_NXZ 0000000180035cb8 f   PostScript_Handler.obj
 0001:00034f94       ?setTokenInfo@PostScript_MetaHandler@@IEAAXW4TokenFlag@@_J1@Z 0000000180035f94 f   PostScript_Handler.obj
 0001:00034fc8       ?getTokenInfo@PostScript_MetaHandler@@IEAAAEAUTokenLocation@1@W4TokenFlag@@@Z 0000000180035fc8 f   PostScript_Handler.obj
 0001:00034ff4       ?ExtractDSCCommentValue@PostScript_MetaHandler@@IEAA_NAEAUIOBuffer@@W4NativeMetadataIndex@@@Z 0000000180035ff4 f   PostScript_Handler.obj
 0001:000350f4       ?ExtractContainsXMPHint@PostScript_MetaHandler@@IEAA_NAEAUIOBuffer@@_J@Z 00000001800360f4 f   PostScript_Handler.obj
 0001:00035350       ?ExtractDocInfoDict@PostScript_MetaHandler@@IEAA_NAEAUIOBuffer@@@Z 0000000180036350 f   PostScript_Handler.obj
 0001:00035760       ?ParsePSFile@PostScript_MetaHandler@@IEAAXXZ 0000000180036760 f   PostScript_Handler.obj
 0001:000364e0       ?ReadXMPPacket@PostScript_MetaHandler@@IEAAXAEAV?$basic_string@DU?$char_traits@D@std@@V?$allocator@D@2@@std@@@Z 00000001800374e0 f   PostScript_Handler.obj
 0001:000365d0       ?RegisterKeyValue@PostScript_MetaHandler@@IEAAXAEAV?$basic_string@DU?$char_traits@D@std@@V?$allocator@D@2@@std@@0@Z 00000001800375d0 f   PostScript_Handler.obj
 0001:00036860       ?ReconcileXMP@PostScript_MetaHandler@@IEAAXAEBV?$basic_string@DU?$char_traits@D@std@@V?$allocator@D@2@@std@@PEAV23@@Z 0000000180037860 f   PostScript_Handler.obj
 0001:00036ca8       ?CacheFileData@PostScript_MetaHandler@@UEAAXXZ 0000000180037ca8 f   PostScript_Handler.obj
 0001:00036cfc       ?ProcessXMP@PostScript_MetaHandler@@UEAAXXZ 0000000180037cfc f   PostScript_Handler.obj
 0001:00036df8       ?modifyHeader@PostScript_MetaHandler@@IEAAXPEAVXMP_IO@@_J1@Z 0000000180037df8 f   PostScript_Handler.obj
 0001:00036fa8       ?DetermineUpdateMethod@PostScript_MetaHandler@@IEAA?AW4UpdateMethod@@AEAV?$basic_string@DU?$char_traits@D@std@@V?$allocator@D@2@@std@@@Z 0000000180037fa8 f   PostScript_Handler.obj
 0001:00037094       ?InplaceUpdate@PostScript_MetaHandler@@IEAAXAEAV?$basic_string@DU?$char_traits@D@std@@V?$allocator@D@2@@std@@AEAPEAVXMP_IO@@_N@Z 0000000180038094 f   PostScript_Handler.obj
 0001:00037218       ?ExpandingSFDFilterUpdate@PostScript_MetaHandler@@IEAAXAEAV?$basic_string@DU?$char_traits@D@std@@V?$allocator@D@2@@std@@AEAPEAVXMP_IO@@_N@Z 0000000180038218 f   PostScript_Handler.obj
 0001:00037670       ?DetermineInsertionOffsets@PostScript_MetaHandler@@IEAAXAEA_J00@Z 0000000180038670 f   PostScript_Handler.obj
 0001:00037964       ?InsertNewUpdate@PostScript_MetaHandler@@IEAAXAEAV?$basic_string@DU?$char_traits@D@std@@V?$allocator@D@2@@std@@AEAPEAVXMP_IO@@_N@Z 0000000180038964 f   PostScript_Handler.obj
 0001:00037e30       ?UpdateFile@PostScript_MetaHandler@@UEAAX_N@Z 0000000180038e30 f   PostScript_Handler.obj
 0001:00037fdc       ?WriteTempFile@PostScript_MetaHandler@@UEAAXPEAVXMP_IO@@@Z 0000000180038fdc f   PostScript_Handler.obj
 0001:000380c0       ??1?$vector@UIOBuffer@@V?$allocator@UIOBuffer@@@std@@@std@@QEAA@XZ 00000001800390c0 f i PostScript_Handler.obj
 0001:00038114       ??0?$vector@UIOBuffer@@V?$allocator@UIOBuffer@@@std@@@std@@QEAA@_K@Z 0000000180039114 f i PostScript_Handler.obj
 0001:000381cc       ??0?$vector@USnipInfo@XMPScanner@@V?$allocator@USnipInfo@XMPScanner@@@std@@@std@@QEAA@_K@Z 00000001800391cc f i PostScript_Handler.obj
 0001:00038284       ??$_Uninitialized_default_fill_n1@PEAUIOBuffer@@_KV?$allocator@UIOBuffer@@@std@@@std@@YAXPEAUIOBuffer@@_KAEAU?$_Wrap_alloc@V?$allocator@UIOBuffer@@@std@@@0@U?$integral_constant@_N$0A@@0@@Z 0000000180039284 f i PostScript_Handler.obj
 0001:000382b4       ??$_Uninitialized_default_fill_n1@PEAUSnipInfo@XMPScanner@@_KV?$allocator@USnipInfo@XMPScanner@@@std@@@std@@YAXPEAUSnipInfo@XMPScanner@@_KAEAU?$_Wrap_alloc@V?$allocator@USnipInfo@XMPScanner@@@std@@@0@U?$integral_constant@_N$0A@@0@@Z 00000001800392b4 f i PostScript_Handler.obj
 0001:000382f4       ?RIFF_MetaHandlerCTor@@YAPEAVXMPFileHandler@@PEAVXMPFiles@@@Z 00000001800392f4 f   RIFF_Handler.obj
 0001:000383c0       ?RIFF_CheckFormat@@YA_NKPEBDPEAVXMP_IO@@PEAVXMPFiles@@@Z 00000001800393c0 f   RIFF_Handler.obj
 0001:00038494       ??_ERIFF_MetaHandler@@UEAAPEAXI@Z 0000000180039494 f i * CIL library *:* CIL module *
 0001:00038494       ??_GRIFF_MetaHandler@@UEAAPEAXI@Z 0000000180039494 f i RIFF_Handler.obj
 0001:00038538       ?CacheFileData@RIFF_MetaHandler@@UEAAXXZ 0000000180039538 f   RIFF_Handler.obj
 0001:00038890       ?ProcessXMP@RIFF_MetaHandler@@UEAAXXZ 0000000180039890 f   RIFF_Handler.obj
 0001:000388e4       ?UpdateFile@RIFF_MetaHandler@@UEAAX_N@Z 00000001800398e4 f   RIFF_Handler.obj
 0001:0003901c       ?WriteTempFile@RIFF_MetaHandler@@UEAAXPEAVXMP_IO@@@Z 000000018003a01c f   RIFF_Handler.obj
 0001:0003904c       ??_ESVG_MetaHandler@@UEAAPEAXI@Z 000000018003a04c f i * CIL library *:* CIL module *
 0001:0003904c       ??_GSVG_MetaHandler@@UEAAPEAXI@Z 000000018003a04c f i SVG_Handler.obj
 0001:00039080       ?SVG_CheckFormat@@YA_NKPEBDPEAVXMP_IO@@PEAVXMPFiles@@@Z 000000018003a080 f   SVG_Handler.obj
 0001:000391e0       ?SVG_MetaHandlerCTor@@YAPEAVXMPFileHandler@@PEAVXMPFiles@@@Z 000000018003a1e0 f   SVG_Handler.obj
 0001:00039248       ??1SVG_MetaHandler@@UEAA@XZ 000000018003a248 f   SVG_Handler.obj
 0001:00039280       ?GetSerializeOptions@SVG_MetaHandler@@UEAAKXZ 000000018003a280 f   SVG_Handler.obj
 0001:00039288       ?CacheFileData@SVG_MetaHandler@@UEAAXXZ 000000018003a288 f   SVG_Handler.obj
 0001:00039a38       ??1OffsetStruct@@QEAA@XZ   000000018003aa38 f i SVG_Handler.obj
 0001:00039a38       ??1CandidateInfo@@QEAA@XZ  000000018003aa38 f i Scanner_Handler.obj
 0001:00039a88       ?ProcessXMP@SVG_MetaHandler@@UEAAXXZ 000000018003aa88 f   SVG_Handler.obj
 0001:00039bfc       ?ProcessTitle@SVG_MetaHandler@@AEAAXPEAVXMP_IO@@0AEBV?$basic_string@DU?$char_traits@D@std@@V?$allocator@D@2@@std@@AEA_JAEBUOffsetStruct@@@Z 000000018003abfc f   SVG_Handler.obj
 0001:00039d38       ?ProcessDescription@SVG_MetaHandler@@AEAAXPEAVXMP_IO@@0AEBV?$basic_string@DU?$char_traits@D@std@@V?$allocator@D@2@@std@@AEA_JAEBUOffsetStruct@@@Z 000000018003ad38 f   SVG_Handler.obj
 0001:00039e74       ?InsertNewTitle@SVG_MetaHandler@@AEAAXPEAVXMP_IO@@AEBV?$basic_string@DU?$char_traits@D@std@@V?$allocator@D@2@@std@@@Z 000000018003ae74 f   SVG_Handler.obj
 0001:00039f84       ?InsertNewDescription@SVG_MetaHandler@@AEAAXPEAVXMP_IO@@AEBV?$basic_string@DU?$char_traits@D@std@@V?$allocator@D@2@@std@@@Z 000000018003af84 f   SVG_Handler.obj
 0001:0003a094       ?InsertNewMetadata@SVG_MetaHandler@@AEAAXPEAVXMP_IO@@AEBV?$basic_string@DU?$char_traits@D@std@@V?$allocator@D@2@@std@@@Z 000000018003b094 f   SVG_Handler.obj
 0001:0003a1a4       ?UpdateFile@SVG_MetaHandler@@UEAAX_N@Z 000000018003b1a4 f   SVG_Handler.obj
 0001:0003a4a8       ?WriteTempFile@SVG_MetaHandler@@UEAAXPEAVXMP_IO@@@Z 000000018003b4a8 f   SVG_Handler.obj
 0001:0003ade8       ??_GSWF_MetaHandler@@UEAAPEAXI@Z 000000018003bde8 f i SWF_Handler.obj
 0001:0003ade8       ??_ESWF_MetaHandler@@UEAAPEAXI@Z 000000018003bde8 f i * CIL library *:* CIL module *
 0001:0003ae1c       ?SWF_MetaHandlerCTor@@YAPEAVXMPFileHandler@@PEAVXMPFiles@@@Z 000000018003be1c f   SWF_Handler.obj
 0001:0003aeb8       ?SWF_CheckFormat@@YA_NKPEBDPEAVXMP_IO@@PEAVXMPFiles@@@Z 000000018003beb8 f   SWF_Handler.obj
 0001:0003af28       ??1SWF_MetaHandler@@UEAA@XZ 000000018003bf28 f   SWF_Handler.obj
 0001:0003af7c       ?CacheFileData@SWF_MetaHandler@@UEAAXXZ 000000018003bf7c f   SWF_Handler.obj
 0001:0003b1c0       ?ProcessXMP@SWF_MetaHandler@@UEAAXXZ 000000018003c1c0 f   SWF_Handler.obj
 0001:0003b1f8       ?GetSerializeOptions@SWF_MetaHandler@@UEAAKXZ 000000018003c1f8 f   SWF_Handler.obj
 0001:0003b200       ?UpdateFile@SWF_MetaHandler@@UEAAX_N@Z 000000018003c200 f   SWF_Handler.obj
 0001:0003b634       ?WriteTempFile@SWF_MetaHandler@@UEAAXPEAVXMP_IO@@@Z 000000018003c634 f   SWF_Handler.obj
 0001:0003b664       ??_ETrivial_MetaHandler@@UEAAPEAXI@Z 000000018003c664 f i * CIL library *:* CIL module *
 0001:0003b664       ??_EScanner_MetaHandler@@UEAAPEAXI@Z 000000018003c664 f i * CIL library *:* CIL module *
 0001:0003b664       ??_GScanner_MetaHandler@@UEAAPEAXI@Z 000000018003c664 f i Scanner_Handler.obj
 0001:0003b664       ??_GTrivial_MetaHandler@@UEAAPEAXI@Z 000000018003c664 f i Scanner_Handler.obj
 0001:0003b6a4       ?Scanner_MetaHandlerCTor@@YAPEAVXMPFileHandler@@PEAVXMPFiles@@@Z 000000018003c6a4 f   Scanner_Handler.obj
 0001:0003bc40       ?CacheFileData@Scanner_MetaHandler@@UEAAXXZ 000000018003cc40 f   Scanner_Handler.obj
 0001:0003c47c       ??1?$_Vb_val@V?$allocator@_N@std@@@std@@QEAA@XZ 000000018003d47c f i Scanner_Handler.obj
 0001:0003c47c       ??1?$vector@KV?$allocator@K@std@@@std@@QEAA@XZ 000000018003d47c f i WAVE_Handler.obj
 0001:0003c47c       ??1?$vector@_NV?$allocator@_N@std@@@std@@QEAA@XZ 000000018003d47c f i Scanner_Handler.obj
 0001:0003c4b8       ??1?$vector@UCandidateInfo@@V?$allocator@UCandidateInfo@@@std@@@std@@QEAA@XZ 000000018003d4b8 f i Scanner_Handler.obj
 0001:0003c574       ?_Reallocate@?$vector@UCandidateInfo@@V?$allocator@UCandidateInfo@@@std@@@std@@IEAAX_K@Z 000000018003d574 f i Scanner_Handler.obj
 0001:0003c6c0       ?_Destroy@?$vector@UCandidateInfo@@V?$allocator@UCandidateInfo@@@std@@@std@@IEAAXPEAUCandidateInfo@@0@Z 000000018003d6c0 f i Scanner_Handler.obj
 0001:0003c734       ?_Construct_n@?$vector@IV?$allocator@_N@std@@@std@@QEAAX_KPEBI@Z 000000018003d734 f i Scanner_Handler.obj
 0001:0003c804       ??$_Uninit_alloc_fill_n1@PEAI_KV?$allocator@I@std@@@std@@YAXPEAI_KPEBIAEAU?$_Wrap_alloc@V?$allocator@I@std@@@0@U?$integral_constant@_N$0A@@0@@Z 000000018003d804 f i Scanner_Handler.obj
 0001:0003c804       ??$_Uninit_alloc_fill_n1@PEAK_KV?$allocator@K@std@@@std@@YAXPEAK_KPEBKAEAU?$_Wrap_alloc@V?$allocator@K@std@@@0@U?$integral_constant@_N$0A@@0@@Z 000000018003d804 f i ReconcileTIFF.obj
 0001:0003c820       ??$_Uninitialized_move_al_unchecked1@PEAUCandidateInfo@@PEAU1@V?$allocator@UCandidateInfo@@@std@@@std@@YAPEAUCandidateInfo@@PEAU1@00AEAU?$_Wrap_alloc@V?$allocator@UCandidateInfo@@@std@@@0@U_General_ptr_iterator_tag@0@U_Any_tag@0@@Z 000000018003d820 f i Scanner_Handler.obj
 0001:0003c894       ??_ESonyHDV_MetaHandler@@UEAAPEAXI@Z 000000018003d894 f i * CIL library *:* CIL module *
 0001:0003c894       ??_GSonyHDV_MetaHandler@@UEAAPEAXI@Z 000000018003d894 f i SonyHDV_Handler.obj
 0001:0003c8c8       ?SonyHDV_CheckFormat@@YA_NKAEBV?$basic_string@DU?$char_traits@D@std@@V?$allocator@D@2@@std@@000PEAVXMPFiles@@@Z 000000018003d8c8 f   SonyHDV_Handler.obj
 0001:0003dc74       ?SonyHDV_MetaHandlerCTor@@YAPEAVXMPFileHandler@@PEAVXMPFiles@@@Z 000000018003ec74 f   SonyHDV_Handler.obj
 0001:0003dd9c       ??1SonyHDV_MetaHandler@@UEAA@XZ 000000018003ed9c f   SonyHDV_Handler.obj
 0001:0003de6c       ?MakeClipFilePath@SonyHDV_MetaHandler@@AEAA_NPEAV?$basic_string@DU?$char_traits@D@std@@V?$allocator@D@2@@std@@PEBD_N@Z 000000018003ee6c f   SonyHDV_Handler.obj
 0001:0003dffc       ?MakeIndexFilePath@SonyHDV_MetaHandler@@AEAA_NAEAV?$basic_string@DU?$char_traits@D@std@@V?$allocator@D@2@@std@@AEBV23@1@Z 000000018003effc f   SonyHDV_Handler.obj
 0001:0003e3e0       ?MakeLegacyDigest@SonyHDV_MetaHandler@@AEAAXPEAV?$basic_string@DU?$char_traits@D@std@@V?$allocator@D@2@@std@@@Z 000000018003f3e0 f   SonyHDV_Handler.obj
 0001:0003e558       ?GetFileModDate@SonyHDV_MetaHandler@@UEAA_NPEAUXMP_DateTime@@@Z 000000018003f558 f   SonyHDV_Handler.obj
 0001:0003e6dc       ?FillMetadataFiles@SonyHDV_MetaHandler@@UEAAXPEAV?$vector@V?$basic_string@DU?$char_traits@D@std@@V?$allocator@D@2@@std@@V?$allocator@V?$basic_string@DU?$char_traits@D@std@@V?$allocator@D@2@@std@@@2@@std@@@Z 000000018003f6dc f   SonyHDV_Handler.obj
 0001:0003e988       ?IsMetadataWritable@SonyHDV_MetaHandler@@UEAA_NXZ 000000018003f988 f   SonyHDV_Handler.obj
 0001:0003e9d8       ?FillAssociatedResources@SonyHDV_MetaHandler@@UEAAXPEAV?$vector@V?$basic_string@DU?$char_traits@D@std@@V?$allocator@D@2@@std@@V?$allocator@V?$basic_string@DU?$char_traits@D@std@@V?$allocator@D@2@@std@@@2@@std@@@Z 000000018003f9d8 f   SonyHDV_Handler.obj
 0001:0003ed3c       ?CacheFileData@SonyHDV_MetaHandler@@UEAAXXZ 000000018003fd3c f   SonyHDV_Handler.obj
 0001:0003ef2c       ?ProcessXMP@SonyHDV_MetaHandler@@UEAAXXZ 000000018003ff2c f   SonyHDV_Handler.obj
 0001:0003f13c       ?UpdateFile@SonyHDV_MetaHandler@@UEAAX_N@Z 000000018004013c f   SonyHDV_Handler.obj
 0001:0003f31c       ?WriteTempFile@SonyHDV_MetaHandler@@UEAAXPEAVXMP_IO@@@Z 000000018004031c f   SonyHDV_Handler.obj
 0001:0003f34c       ??_ETIFF_MetaHandler@@UEAAPEAXI@Z 000000018004034c f i * CIL library *:* CIL module *
 0001:0003f34c       ??_GTIFF_MetaHandler@@UEAAPEAXI@Z 000000018004034c f i TIFF_Handler.obj
 0001:0003f380       ?TIFF_CheckFormat@@YA_NKPEBDPEAVXMP_IO@@PEAVXMPFiles@@@Z 0000000180040380 f   TIFF_Handler.obj
 0001:0003f424       ?TIFF_MetaHandlerCTor@@YAPEAVXMPFileHandler@@PEAVXMPFiles@@@Z 0000000180040424 f   TIFF_Handler.obj
 0001:0003f498       ??1TIFF_MetaHandler@@UEAA@XZ 0000000180040498 f   TIFF_Handler.obj
 0001:0003f4f0       ?CacheFileData@TIFF_MetaHandler@@UEAAXXZ 00000001800404f0 f   TIFF_Handler.obj
 0001:0003f668       ?ProcessXMP@TIFF_MetaHandler@@UEAAXXZ 0000000180040668 f   TIFF_Handler.obj
 0001:0003fab4       ?UpdateFile@TIFF_MetaHandler@@UEAAX_N@Z 0000000180040ab4 f   TIFF_Handler.obj
 0001:0003fcfc       ?WriteTempFile@TIFF_MetaHandler@@UEAAXPEAVXMP_IO@@@Z 0000000180040cfc f   TIFF_Handler.obj
 0001:0003fe18       ?UpdateFile@Trivial_MetaHandler@@UEAAX_N@Z 0000000180040e18 f   Trivial_Handler.obj
 0001:0003fe70       ?WriteTempFile@Trivial_MetaHandler@@UEAAXPEAVXMP_IO@@@Z 0000000180040e70 f   Trivial_Handler.obj
 0001:0003fea0       ?read@FileHeader@UCF_MetaHandler@@QEAAXPEAVXMP_IO@@@Z 0000000180040ea0 f i UCF_Handler.obj
 0001:0003ff98       ??1FileHeader@UCF_MetaHandler@@QEAA@XZ 0000000180040f98 f i UCF_Handler.obj
 0001:0003ffd8       ??0CDFileHeader@UCF_MetaHandler@@QEAA@AEBV01@@Z 0000000180040fd8 f i UCF_Handler.obj
 0001:000400dc       ?read@CDFileHeader@UCF_MetaHandler@@QEAAXPEAVXMP_IO@@@Z 00000001800410dc f i UCF_Handler.obj
 0001:00040364       ??1CDFileHeader@UCF_MetaHandler@@QEAA@XZ 0000000180041364 f i UCF_Handler.obj
 0001:000403d4       ?UCF_MetaHandlerCTor@@YAPEAVXMPFileHandler@@PEAVXMPFiles@@@Z 00000001800413d4 f   UCF_Handler.obj
 0001:00040580       ?UCF_CheckFormat@@YA_NKPEBDPEAVXMP_IO@@PEAVXMPFiles@@@Z 0000000180041580 f   UCF_Handler.obj
 0001:00040808       ??_GUCF_MetaHandler@@UEAAPEAXI@Z 0000000180041808 f i UCF_Handler.obj
 0001:00040808       ??_EUCF_MetaHandler@@UEAAPEAXI@Z 0000000180041808 f i * CIL library *:* CIL module *
 0001:0004093c       ?CacheFileData@UCF_MetaHandler@@UEAAXXZ 000000018004193c f   UCF_Handler.obj
 0001:000417bc       ?ProcessXMP@UCF_MetaHandler@@UEAAXXZ 00000001800427bc f   UCF_Handler.obj
 0001:000417c4       ?UpdateFile@UCF_MetaHandler@@UEAAX_N@Z 00000001800427c4 f   UCF_Handler.obj
 0001:00042318       ?WriteTempFile@UCF_MetaHandler@@UEAAXPEAVXMP_IO@@@Z 0000000180043318 f   UCF_Handler.obj
 0001:00042348       ?writeOut@UCF_MetaHandler@@AEAAXPEAVXMP_IO@@0_N1@Z 0000000180043348 f   UCF_Handler.obj
 0001:0004281c       ?push_back@?$vector@VCDFileHeader@UCF_MetaHandler@@V?$allocator@VCDFileHeader@UCF_MetaHandler@@@std@@@std@@QEAAXAEBVCDFileHeader@UCF_MetaHandler@@@Z 000000018004381c f i UCF_Handler.obj
 0001:000428d0       ?_Reserve@?$vector@VCDFileHeader@UCF_MetaHandler@@V?$allocator@VCDFileHeader@UCF_MetaHandler@@@std@@@std@@IEAAX_K@Z 00000001800438d0 f i UCF_Handler.obj
 0001:0004298c       ?_Reallocate@?$vector@VCDFileHeader@UCF_MetaHandler@@V?$allocator@VCDFileHeader@UCF_MetaHandler@@@std@@@std@@IEAAX_K@Z 000000018004398c f i UCF_Handler.obj
 0001:00042ac8       ??$_Uninitialized_move_al_unchecked1@PEAVCDFileHeader@UCF_MetaHandler@@PEAV12@V?$allocator@VCDFileHeader@UCF_MetaHandler@@@std@@@std@@YAPEAVCDFileHeader@UCF_MetaHandler@@PEAV12@00AEAU?$_Wrap_alloc@V?$allocator@VCDFileHeader@UCF_MetaHandler@@@std@@@0@U_General_ptr_iterator_tag@0@U_Any_tag@0@@Z 0000000180043ac8 f i UCF_Handler.obj
 0001:00042b28       ??_EWAVE_MetaHandler@@UEAAPEAXI@Z 0000000180043b28 f i * CIL library *:* CIL module *
 0001:00042b28       ??_GWAVE_MetaHandler@@UEAAPEAXI@Z 0000000180043b28 f i WAVE_Handler.obj
 0001:00042c34       ??1WAVEBehavior@IFF_RIFF@@UEAA@XZ 0000000180043c34 f i WAVE_Handler.obj
 0001:00042cbc       ??_GWAVEBehavior@IFF_RIFF@@UEAAPEAXI@Z 0000000180043cbc f i WAVE_Handler.obj
 0001:00042cbc       ??_EWAVEBehavior@IFF_RIFF@@UEAAPEAXI@Z 0000000180043cbc f i * CIL library *:* CIL module *
 0001:00042cf0       ?WAVE_MetaHandlerCTor@@YAPEAVXMPFileHandler@@PEAVXMPFiles@@@Z 0000000180043cf0 f   WAVE_Handler.obj
 0001:00042d24       ?WAVE_CheckFormat@@YA_NKPEBDPEAVXMP_IO@@PEAVXMPFiles@@@Z 0000000180043d24 f   WAVE_Handler.obj
 0001:00042dc8       ?whatRIFFFormat@WAVE_MetaHandler@@SAKPEAE@Z 0000000180043dc8 f   WAVE_Handler.obj
 0001:00042e2c       ??0WAVE_MetaHandler@@QEAA@PEAVXMPFiles@@@Z 0000000180043e2c f   WAVE_Handler.obj
 0001:0004303c       ?CacheFileData@WAVE_MetaHandler@@UEAAXXZ 000000018004403c f   WAVE_Handler.obj
 0001:00043334       ?ProcessXMP@WAVE_MetaHandler@@UEAAXXZ 0000000180044334 f   WAVE_Handler.obj
 0001:000435b8       ?UpdateFile@WAVE_MetaHandler@@UEAAX_N@Z 00000001800445b8 f   WAVE_Handler.obj
 0001:00043870       ?updateLegacyChunk@WAVE_MetaHandler@@AEAAXPEAPEAVIChunkData@IFF_RIFF@@KKAEAVIMetadata@@@Z 0000000180044870 f   WAVE_Handler.obj
 0001:00043940       ?WriteTempFile@WAVE_MetaHandler@@UEAAXPEAVXMP_IO@@@Z 0000000180044940 f   WAVE_Handler.obj
 0001:00043970       ??_EXDCAMEX_MetaHandler@@UEAAPEAXI@Z 0000000180044970 f i * CIL library *:* CIL module *
 0001:00043970       ??_GXDCAMEX_MetaHandler@@UEAAPEAXI@Z 0000000180044970 f i XDCAMEX_Handler.obj
 0001:000439a4       ?XDCAMEX_CheckFormat@@YA_NKAEBV?$basic_string@DU?$char_traits@D@std@@V?$allocator@D@2@@std@@000PEAVXMPFiles@@@Z 00000001800449a4 f   XDCAMEX_Handler.obj
 0001:00044214       ?XDCAMEX_MetaHandlerCTor@@YAPEAVXMPFileHandler@@PEAVXMPFiles@@@Z 0000000180045214 f   XDCAMEX_Handler.obj
 0001:00044394       ??1XDCAMEX_MetaHandler@@UEAA@XZ 0000000180045394 f   XDCAMEX_Handler.obj
 0001:00044518       ?MakeClipFilePath@XDCAMEX_MetaHandler@@AEAA_NPEAV?$basic_string@DU?$char_traits@D@std@@V?$allocator@D@2@@std@@PEBD_N@Z 0000000180045518 f   XDCAMEX_Handler.obj
 0001:00044654       ?MakeMediaproPath@XDCAMEX_MetaHandler@@AEAA_NPEAV?$basic_string@DU?$char_traits@D@std@@V?$allocator@D@2@@std@@_N@Z 0000000180045654 f   XDCAMEX_Handler.obj
 0001:00044700       ?MakeLegacyDigest@XDCAMEX_MetaHandler@@AEAAXPEAV?$basic_string@DU?$char_traits@D@std@@V?$allocator@D@2@@std@@@Z 0000000180045700 f   XDCAMEX_Handler.obj
 0001:0004494c       ?CleanupLegacyXML@XDCAMEX_MetaHandler@@AEAAXXZ 000000018004594c f   XDCAMEX_Handler.obj
 0001:00044984       ?GetFileModDate@XDCAMEX_MetaHandler@@UEAA_NPEAUXMP_DateTime@@@Z 0000000180045984 f   XDCAMEX_Handler.obj
 0001:00044fac       ?FillAssociatedResources@XDCAMEX_MetaHandler@@UEAAXPEAV?$vector@V?$basic_string@DU?$char_traits@D@std@@V?$allocator@D@2@@std@@V?$allocator@V?$basic_string@DU?$char_traits@D@std@@V?$allocator@D@2@@std@@@2@@std@@@Z 0000000180045fac f   XDCAMEX_Handler.obj
 0001:000455f8       ?FillMetadataFiles@XDCAMEX_MetaHandler@@UEAAXPEAV?$vector@V?$basic_string@DU?$char_traits@D@std@@V?$allocator@D@2@@std@@V?$allocator@V?$basic_string@DU?$char_traits@D@std@@V?$allocator@D@2@@std@@@2@@std@@@Z 00000001800465f8 f   XDCAMEX_Handler.obj
 0001:000459a4       ?IsMetadataWritable@XDCAMEX_MetaHandler@@UEAA_NXZ 00000001800469a4 f   XDCAMEX_Handler.obj
 0001:00045a34       ?CacheFileData@XDCAMEX_MetaHandler@@UEAAXXZ 0000000180046a34 f   XDCAMEX_Handler.obj
 0001:00045c2c       ?GetTakeDuration@XDCAMEX_MetaHandler@@AEAAXAEBV?$basic_string@DU?$char_traits@D@std@@V?$allocator@D@2@@std@@AEAV23@@Z 0000000180046c2c f   XDCAMEX_Handler.obj
 0001:00045f6c       ?GetMediaProMetadata@XDCAMEX_MetaHandler@@AEAA_NPEAV?$TXMPMeta@V?$basic_string@DU?$char_traits@D@std@@V?$allocator@D@2@@std@@@@AEBV?$basic_string@DU?$char_traits@D@std@@V?$allocator@D@2@@std@@_N@Z 0000000180046f6c f   XDCAMEX_Handler.obj
 0001:00046000       ?GetTakeUMID@XDCAMEX_MetaHandler@@AEAAXAEBV?$basic_string@DU?$char_traits@D@std@@V?$allocator@D@2@@std@@AEAV23@1@Z 0000000180047000 f   XDCAMEX_Handler.obj
 0001:000463fc       ?ProcessXMP@XDCAMEX_MetaHandler@@UEAAXXZ 00000001800473fc f   XDCAMEX_Handler.obj
 0001:00046b28       ?UpdateFile@XDCAMEX_MetaHandler@@UEAAX_N@Z 0000000180047b28 f   XDCAMEX_Handler.obj
 0001:00046ea8       ?WriteTempFile@XDCAMEX_MetaHandler@@UEAAXPEAVXMP_IO@@@Z 0000000180047ea8 f   XDCAMEX_Handler.obj
 0001:00046ed8       ?rfind@?$basic_string@DU?$char_traits@D@std@@V?$allocator@D@2@@std@@QEBA_KPEBD_K1@Z 0000000180047ed8 f i XDCAMEX_Handler.obj
 0001:00046f74       ??_GXDCAMFAM_MetaHandler@@UEAAPEAXI@Z 0000000180047f74 f i XDCAMFAM_Handler.obj
 0001:00046f74       ??_EXDCAMFAM_MetaHandler@@UEAAPEAXI@Z 0000000180047f74 f i * CIL library *:* CIL module *
 0001:00046fb4       ?XDCAMFAM_CheckFormat@@YA_NKAEBV?$basic_string@DU?$char_traits@D@std@@V?$allocator@D@2@@std@@000PEAVXMPFiles@@@Z 0000000180047fb4 f   XDCAMFAM_Handler.obj
 0001:00047404       ?XDCAMFAM_MetaHandlerCTor@@YAPEAVXMPFileHandler@@PEAVXMPFiles@@@Z 0000000180048404 f   XDCAMFAM_Handler.obj
 0001:00047474       ?SetPathVariables@XDCAMFAM_MetaHandler@@EEAAXAEBV?$basic_string@DU?$char_traits@D@std@@V?$allocator@D@2@@std@@@Z 0000000180048474 f   XDCAMFAM_Handler.obj
 0001:0004796c       ?FillAssociatedResources@XDCAMFAM_MetaHandler@@UEAAXPEAV?$vector@V?$basic_string@DU?$char_traits@D@std@@V?$allocator@D@2@@std@@V?$allocator@V?$basic_string@DU?$char_traits@D@std@@V?$allocator@D@2@@std@@@2@@std@@@Z 000000018004896c f   XDCAMFAM_Handler.obj
 0001:00048928       ?MakeClipFilePath@XDCAMFAM_MetaHandler@@EEAA_NPEAV?$basic_string@DU?$char_traits@D@std@@V?$allocator@D@2@@std@@PEBD_N@Z 0000000180049928 f   XDCAMFAM_Handler.obj
 0001:00048a08       ?GetMediaProMetadata@XDCAMFAM_MetaHandler@@EEAA_NPEAV?$TXMPMeta@V?$basic_string@DU?$char_traits@D@std@@V?$allocator@D@2@@std@@@@AEBV?$basic_string@DU?$char_traits@D@std@@V?$allocator@D@2@@std@@_N@Z 0000000180049a08 f   XDCAMFAM_Handler.obj
 0001:00048a9c       ?GetPlanningFiles@XDCAMFAM_MetaHandler@@AEAA_NAEAV?$vector@V?$basic_string@DU?$char_traits@D@std@@V?$allocator@D@2@@std@@V?$allocator@V?$basic_string@DU?$char_traits@D@std@@V?$allocator@D@2@@std@@@2@@std@@V?$basic_string@DU?$char_traits@D@std@@V?$allocator@D@2@@3@@Z 0000000180049a9c f   XDCAMFAM_Handler.obj
 0001:00048d70       ?IsClipsPlanning@XDCAMFAM_MetaHandler@@AEAA_NV?$basic_string@DU?$char_traits@D@std@@V?$allocator@D@2@@std@@PEBD@Z 0000000180049d70 f   XDCAMFAM_Handler.obj
 0001:00048fdc       ?GetInfoFiles@XDCAMFAM_MetaHandler@@AEAA_NAEAV?$vector@V?$basic_string@DU?$char_traits@D@std@@V?$allocator@D@2@@std@@V?$allocator@V?$basic_string@DU?$char_traits@D@std@@V?$allocator@D@2@@std@@@2@@std@@V?$basic_string@DU?$char_traits@D@std@@V?$allocator@D@2@@3@@Z 0000000180049fdc f   XDCAMFAM_Handler.obj
 0001:00049294       ?GetClipUmid@XDCAMFAM_MetaHandler@@EEAA_NAEAV?$basic_string@DU?$char_traits@D@std@@V?$allocator@D@2@@std@@@Z 000000018004a294 f   XDCAMFAM_Handler.obj
 0001:000495ec       ?erase@?$basic_string@DU?$char_traits@D@std@@V?$allocator@D@2@@std@@QEAA?AV?$_String_iterator@V?$_String_val@U?$_Simple_types@D@std@@@std@@@2@V?$_String_const_iterator@V?$_String_val@U?$_Simple_types@D@std@@@std@@@2@0@Z 000000018004a5ec f i XDCAMFAM_Handler.obj
 0001:00049648       ??$?HDU?$char_traits@D@std@@V?$allocator@D@1@@std@@YA?AV?$basic_string@DU?$char_traits@D@std@@V?$allocator@D@2@@0@DAEBV10@@Z 000000018004a648 f i XDCAMFAM_Handler.obj
 0001:0004970c       ??_GXDCAMSAM_MetaHandler@@UEAAPEAXI@Z 000000018004a70c f i XDCAMSAM_Handler.obj
 0001:0004970c       ??_EXDCAMSAM_MetaHandler@@UEAAPEAXI@Z 000000018004a70c f i * CIL library *:* CIL module *
 0001:0004974c       ?XDCAMSAM_CheckFormat@@YA_NKAEBV?$basic_string@DU?$char_traits@D@std@@V?$allocator@D@2@@std@@000PEAVXMPFiles@@@Z 000000018004a74c f   XDCAMSAM_Handler.obj
 0001:00049ba4       ?XDCAMSAM_MetaHandlerCTor@@YAPEAVXMPFileHandler@@PEAVXMPFiles@@@Z 000000018004aba4 f   XDCAMSAM_Handler.obj
 0001:00049c0c       ?SetPathVariables@XDCAMSAM_MetaHandler@@EEAAXAEBV?$basic_string@DU?$char_traits@D@std@@V?$allocator@D@2@@std@@@Z 000000018004ac0c f   XDCAMSAM_Handler.obj
 0001:0004a074       ?FillAssociatedResources@XDCAMSAM_MetaHandler@@UEAAXPEAV?$vector@V?$basic_string@DU?$char_traits@D@std@@V?$allocator@D@2@@std@@V?$allocator@V?$basic_string@DU?$char_traits@D@std@@V?$allocator@D@2@@std@@@2@@std@@@Z 000000018004b074 f   XDCAMSAM_Handler.obj
 0001:0004a7b8       ?MakeClipFilePath@XDCAMSAM_MetaHandler@@EEAA_NPEAV?$basic_string@DU?$char_traits@D@std@@V?$allocator@D@2@@std@@PEBD_N@Z 000000018004b7b8 f   XDCAMSAM_Handler.obj
 0001:0004a8f4       ?GetEditInfoFiles@XDCAMSAM_MetaHandler@@AEAA_NAEAV?$vector@V?$basic_string@DU?$char_traits@D@std@@V?$allocator@D@2@@std@@V?$allocator@V?$basic_string@DU?$char_traits@D@std@@V?$allocator@D@2@@std@@@2@@std@@@Z 000000018004b8f4 f   XDCAMSAM_Handler.obj
 0001:0004ae04       ?GetClipUmid@XDCAMSAM_MetaHandler@@EEAA_NAEAV?$basic_string@DU?$char_traits@D@std@@V?$allocator@D@2@@std@@@Z 000000018004be04 f   XDCAMSAM_Handler.obj
 0001:0004b0c0       ??_GXDCAM_MetaHandler@@UEAAPEAXI@Z 000000018004c0c0 f i XDCAM_Handler.obj
 0001:0004b0c0       ??_EXDCAM_MetaHandler@@UEAAPEAXI@Z 000000018004c0c0 f i * CIL library *:* CIL module *
 0001:0004b0f4       ??0XDCAM_MetaHandler@@QEAA@PEAVXMPFiles@@@Z 000000018004c0f4 f   XDCAM_Handler.obj
 0001:0004b1fc       ??1XDCAM_MetaHandler@@UEAA@XZ 000000018004c1fc f   XDCAM_Handler.obj
 0001:0004b3f4       ?MakeMediaproPath@XDCAM_MetaHandler@@IEAA_NPEAV?$basic_string@DU?$char_traits@D@std@@V?$allocator@D@2@@std@@_N@Z 000000018004c3f4 f   XDCAM_Handler.obj
 0001:0004b474       ?MakeLegacyDigest@XDCAM_MetaHandler@@AEAAXPEAV?$basic_string@DU?$char_traits@D@std@@V?$allocator@D@2@@std@@@Z 000000018004c474 f   XDCAM_Handler.obj
 0001:0004b6c0       ?CleanupLegacyXML@XDCAM_MetaHandler@@AEAAXXZ 000000018004c6c0 f   XDCAM_Handler.obj
 0001:0004b6f8       ?readXMLFile@XDCAM_MetaHandler@@IEAAXPEBDAEAPEAVExpatAdapter@@@Z 000000018004c6f8 f   XDCAM_Handler.obj
 0001:0004b824       ?GetFileModDate@XDCAM_MetaHandler@@UEAA_NPEAUXMP_DateTime@@@Z 000000018004c824 f   XDCAM_Handler.obj
 0001:0004ba10       ?RefersClipUmid@XDCAM_MetaHandler@@IEAA_NV?$basic_string@DU?$char_traits@D@std@@V?$allocator@D@2@@std@@PEBD@Z 000000018004ca10 f   XDCAM_Handler.obj
 0001:0004bd08       ?IsMetadataWritable@XDCAM_MetaHandler@@UEAA_NXZ 000000018004cd08 f   XDCAM_Handler.obj
 0001:0004bd98       ?FillMetadataFiles@XDCAM_MetaHandler@@EEAAXPEAV?$vector@V?$basic_string@DU?$char_traits@D@std@@V?$allocator@D@2@@std@@V?$allocator@V?$basic_string@DU?$char_traits@D@std@@V?$allocator@D@2@@std@@@2@@std@@@Z 000000018004cd98 f   XDCAM_Handler.obj
 0001:0004bdd0       ?CacheFileData@XDCAM_MetaHandler@@UEAAXXZ 000000018004cdd0 f   XDCAM_Handler.obj
 0001:0004bf64       ?ProcessXMP@XDCAM_MetaHandler@@UEAAXXZ 000000018004cf64 f   XDCAM_Handler.obj
 0001:0004c248       ?UpdateFile@XDCAM_MetaHandler@@UEAAX_N@Z 000000018004d248 f   XDCAM_Handler.obj
 0001:0004c590       ?WriteTempFile@XDCAM_MetaHandler@@UEAAXPEAVXMP_IO@@@Z 000000018004d590 f   XDCAM_Handler.obj
 0001:0004c5c0       ?getRealSize@AIFFBehavior@IFF_RIFF@@UEAA_K_KAEBUChunkIdentifier@2@AEAVIChunkContainer@2@PEAVXMP_IO@@@Z 000000018004d5c0 f   AIFFBehavior.obj
 0001:0004c604       ?isValidTopLevelChunk@AIFFBehavior@IFF_RIFF@@UEAA_NAEBUChunkIdentifier@2@K@Z 000000018004d604 f   AIFFBehavior.obj
 0001:0004c62c       ?getMaxChunkSize@AIFFBehavior@IFF_RIFF@@UEBA_KXZ 000000018004d62c f   AIFFBehavior.obj
 0001:0004c634       ?fixHierarchy@AIFFBehavior@IFF_RIFF@@UEAAXAEAVIChunkContainer@2@@Z 000000018004d634 f   AIFFBehavior.obj
 0001:0004c8b4       ?insertChunk@AIFFBehavior@IFF_RIFF@@UEAAXAEAVIChunkContainer@2@AEAVChunk@2@@Z 000000018004d8b4 f   AIFFBehavior.obj
 0001:0004c984       ?removeChunk@AIFFBehavior@IFF_RIFF@@UEAA_NAEAVIChunkContainer@2@AEAVChunk@2@@Z 000000018004d984 f   AIFFBehavior.obj
 0001:0004cba0       ?isFREEChunk@AIFFBehavior@IFF_RIFF@@EEBAEAEBVChunk@2@@Z 000000018004dba0 f   AIFFBehavior.obj
 0001:0004cc9c       ?createFREE@AIFFBehavior@IFF_RIFF@@EEAAPEAVChunk@2@_K@Z 000000018004dc9c f   AIFFBehavior.obj
 0001:0004cd78       ?getMinFREESize@WAVEBehavior@IFF_RIFF@@MEBA_KXZ 000000018004dd78 f   WAVEBehavior.obj
 0001:0004cd78       ?getMinFREESize@AIFFBehavior@IFF_RIFF@@EEBA_KXZ 000000018004dd78 f   AIFFBehavior.obj
 0001:0004cd80       ??_EAIFFMetadata@IFF_RIFF@@UEAAPEAXI@Z 000000018004dd80 f i * CIL library *:* CIL module *
 0001:0004cd80       ??_GAIFFMetadata@IFF_RIFF@@UEAAPEAXI@Z 000000018004dd80 f i AIFFMetadata.obj
 0001:0004cdc0       ??1AIFFMetadata@IFF_RIFF@@UEAA@XZ 000000018004ddc0 f   AIFFMetadata.obj
 0001:0004cdd0       ?isEmptyValue@INFOMetadata@IFF_RIFF@@MEAA_NKAEAVValueObject@@@Z 000000018004ddd0 f   INFOMetadata.obj
 0001:0004cdd0       ?isEmptyValue@AIFFMetadata@IFF_RIFF@@MEAA_NKAEAVValueObject@@@Z 000000018004ddd0 f   AIFFMetadata.obj
 0001:0004cdd0       ?isEmptyValue@DISPMetadata@IFF_RIFF@@MEAA_NKAEAVValueObject@@@Z 000000018004ddd0 f   DISPMetadata.obj
 0001:0004ce0c       ?importToXMP@AIFFReconcile@IFF_RIFF@@UEAAEAEAV?$TXMPMeta@V?$basic_string@DU?$char_traits@D@std@@V?$allocator@D@2@@std@@@@AEBVMetadataSet@@@Z 000000018004de0c f   AIFFReconcile.obj
 0001:0004ce4c       ?exportFromXMP@AIFFReconcile@IFF_RIFF@@UEAAEAEAVMetadataSet@@AEAV?$TXMPMeta@V?$basic_string@DU?$char_traits@D@std@@V?$allocator@D@2@@std@@@@@Z 000000018004de4c f   AIFFReconcile.obj
 0001:0004ce8c       ??$get@VAIFFMetadata@IFF_RIFF@@@MetadataSet@@QEBAPEAVAIFFMetadata@IFF_RIFF@@XZ 000000018004de8c f i AIFFReconcile.obj
 0001:0004cef4       ??_EIChunkData@IFF_RIFF@@UEAAPEAXI@Z 000000018004def4 f i * CIL library *:* CIL module *
 0001:0004cef4       ??_GIChunkData@IFF_RIFF@@UEAAPEAXI@Z 000000018004def4 f i Chunk.obj
 0001:0004cf20       ??_EIChunkContainer@IFF_RIFF@@UEAAPEAXI@Z 000000018004df20 f i * CIL library *:* CIL module *
 0001:0004cf20       ??_GIChunkContainer@IFF_RIFF@@UEAAPEAXI@Z 000000018004df20 f i Chunk.obj
 0001:0004cf4c       ?getID@Chunk@IFF_RIFF@@UEBAKXZ 000000018004df4c f i Chunk.obj
 0001:0004cf50       ?getType@Chunk@IFF_RIFF@@UEBAKXZ 000000018004df50 f i Chunk.obj
 0001:0004cf54       ?getIdentifier@Chunk@IFF_RIFF@@UEBAAEBUChunkIdentifier@2@XZ 000000018004df54 f i Chunk.obj
 0001:0004cf5c       ?getSize@Chunk@IFF_RIFF@@UEBA_K_N@Z 000000018004df5c f i Chunk.obj
 0001:0004cf6c       ?createChunk@Chunk@IFF_RIFF@@SAPEAV12@AEBVIEndian@@@Z 000000018004df6c f   Chunk.obj
 0001:0004cfdc       ?createUnknownChunk@Chunk@IFF_RIFF@@SAPEAV12@AEBVIEndian@@KK_K11@Z 000000018004dfdc f   Chunk.obj
 0001:0004d090       ?createHeaderChunk@Chunk@IFF_RIFF@@SAPEAV12@AEBVIEndian@@KK@Z 000000018004e090 f   Chunk.obj
 0001:0004d150       ??_EChunk@IFF_RIFF@@UEAAPEAXI@Z 000000018004e150 f i * CIL library *:* CIL module *
 0001:0004d150       ??_GChunk@IFF_RIFF@@UEAAPEAXI@Z 000000018004e150 f i Chunk.obj
 0001:0004d218       ?getData@Chunk@IFF_RIFF@@UEBA_KPEAPEBE@Z 000000018004e218 f   Chunk.obj
 0001:0004d25c       ?setData@Chunk@IFF_RIFF@@UEAAXQEBE_KE@Z 000000018004e25c f   Chunk.obj
 0001:0004d3a8       ?getUns32@Chunk@IFF_RIFF@@UEBAK_K@Z 000000018004e3a8 f   Chunk.obj
 0001:0004d3a8       ?getInt32@Chunk@IFF_RIFF@@UEBAJ_K@Z 000000018004e3a8 f   Chunk.obj
 0001:0004d3f8       ?setUns32@Chunk@IFF_RIFF@@UEAAXK_K@Z 000000018004e3f8 f   Chunk.obj
 0001:0004d3f8       ?setInt32@Chunk@IFF_RIFF@@UEAAXJ_K@Z 000000018004e3f8 f   Chunk.obj
 0001:0004d490       ?getInt64@Chunk@IFF_RIFF@@UEBA_J_K@Z 000000018004e490 f   Chunk.obj
 0001:0004d490       ?getUns64@Chunk@IFF_RIFF@@UEBA_K_K@Z 000000018004e490 f   Chunk.obj
 0001:0004d4e0       ?setInt64@Chunk@IFF_RIFF@@UEAAX_J_K@Z 000000018004e4e0 f   Chunk.obj
 0001:0004d4e0       ?setUns64@Chunk@IFF_RIFF@@UEAAX_K0@Z 000000018004e4e0 f   Chunk.obj
 0001:0004d57c       ?getString@Chunk@IFF_RIFF@@UEBA?AV?$basic_string@DU?$char_traits@D@std@@V?$allocator@D@2@@std@@_K0@Z 000000018004e57c f   Chunk.obj
 0001:0004d5f8       ?setString@Chunk@IFF_RIFF@@UEAAXV?$basic_string@DU?$char_traits@D@std@@V?$allocator@D@2@@std@@_K@Z 000000018004e5f8 f   Chunk.obj
 0001:0004d6f0       ?setType@Chunk@IFF_RIFF@@QEAAXK@Z 000000018004e6f0 f   Chunk.obj
 0001:0004d740       ?calculateWriteSize@Chunk@IFF_RIFF@@QEBA_JXZ 000000018004e740 f   Chunk.obj
 0001:0004d7c0       ?resetChanges@Chunk@IFF_RIFF@@QEAAXXZ 000000018004e7c0 f   Chunk.obj
 0001:0004d7f8       ?toString@Chunk@IFF_RIFF@@UEAA?AV?$basic_string@DU?$char_traits@D@std@@V?$allocator@D@2@@std@@V34@E@Z 000000018004e7f8 f   Chunk.obj
 0001:0004da68       ?readChunk@Chunk@IFF_RIFF@@QEAAXPEAVXMP_IO@@@Z 000000018004ea68 f   Chunk.obj
 0001:0004dbfc       ?cacheChunkData@Chunk@IFF_RIFF@@QEAAXPEAVXMP_IO@@@Z 000000018004ebfc f   Chunk.obj
 0001:0004dd04       ?writeChunk@Chunk@IFF_RIFF@@QEAAXPEAVXMP_IO@@@Z 000000018004ed04 f   Chunk.obj
 0001:0004de84       ?numChildren@Chunk@IFF_RIFF@@UEBAKXZ 000000018004ee84 f   Chunk.obj
 0001:0004de94       ?getChildAt@Chunk@IFF_RIFF@@UEBAPEAV12@K@Z 000000018004ee94 f   Chunk.obj
 0001:0004ded0       ?appendChild@Chunk@IFF_RIFF@@UEAAXPEAV12@E@Z 000000018004eed0 f   Chunk.obj
 0001:0004e020       ?insertChildAt@Chunk@IFF_RIFF@@UEAAXKPEAV12@@Z 000000018004f020 f   Chunk.obj
 0001:0004e1b8       ?removeChildAt@Chunk@IFF_RIFF@@UEAAPEAV12@K@Z 000000018004f1b8 f   Chunk.obj
 0001:0004e268       ?replaceChildAt@Chunk@IFF_RIFF@@UEAAPEAV12@KPEAV12@@Z 000000018004f268 f   Chunk.obj
 0001:0004e384       ?setChanged@Chunk@IFF_RIFF@@QEAAXXZ 000000018004f384 f   Chunk.obj
 0001:0004e3a0       ?adjustInternalBuffer@Chunk@IFF_RIFF@@AEAAX_K@Z 000000018004f3a0 f   Chunk.obj
 0001:0004e400       ?adjustSize@Chunk@IFF_RIFF@@AEAAX_J@Z 000000018004f400 f   Chunk.obj
 0001:0004e474       ?_Insert_n@?$vector@PEAVChunk@IFF_RIFF@@V?$allocator@PEAVChunk@IFF_RIFF@@@std@@@std@@IEAA?AV?$_Vector_iterator@V?$_Vector_val@U?$_Simple_types@PEAVChunk@IFF_RIFF@@@std@@@std@@@2@V?$_Vector_const_iterator@V?$_Vector_val@U?$_Simple_types@PEAVChunk@IFF_RIFF@@@std@@@std@@@2@_KAEBQEAVChunk@IFF_RIFF@@@Z 000000018004f474 f i Chunk.obj
 0001:0004e474       ?_Insert_n@?$vector@PEAVChunk@RIFF@@V?$allocator@PEAVChunk@RIFF@@@std@@@std@@IEAA?AV?$_Vector_iterator@V?$_Vector_val@U?$_Simple_types@PEAVChunk@RIFF@@@std@@@std@@@2@V?$_Vector_const_iterator@V?$_Vector_val@U?$_Simple_types@PEAVChunk@RIFF@@@std@@@std@@@2@_KAEBQEAVChunk@RIFF@@@Z 000000018004f474 f i RIFF.obj
 0001:0004e708       ??$_Uninit_alloc_fill_n1@PEAPEAVChunk@IFF_RIFF@@_KV?$allocator@PEAVChunk@IFF_RIFF@@@std@@@std@@YAXPEAPEAVChunk@IFF_RIFF@@_KPEBQEAV12@AEAU?$_Wrap_alloc@V?$allocator@PEAVChunk@IFF_RIFF@@@std@@@0@U?$integral_constant@_N$0A@@0@@Z 000000018004f708 f i Chunk.obj
 0001:0004e708       ??$_Uninit_alloc_fill_n1@PEAUChunkIdentifier@IFF_RIFF@@_KV?$allocator@UChunkIdentifier@IFF_RIFF@@@std@@@std@@YAXPEAUChunkIdentifier@IFF_RIFF@@_KPEBU12@AEAU?$_Wrap_alloc@V?$allocator@UChunkIdentifier@IFF_RIFF@@@std@@@0@U?$integral_constant@_N$0A@@0@@Z 000000018004f708 f i ChunkPath.obj
 0001:0004e708       ??$_Uninit_alloc_fill_n1@PEAPEAVChunk@RIFF@@_KV?$allocator@PEAVChunk@RIFF@@@std@@@std@@YAXPEAPEAVChunk@RIFF@@_KPEBQEAV12@AEAU?$_Wrap_alloc@V?$allocator@PEAVChunk@RIFF@@@std@@@0@U?$integral_constant@_N$0A@@0@@Z 000000018004f708 f i RIFF.obj
 0001:0004e724       ??_EChunk@IFF_RIFF@@W7EAAPEAXI@Z 000000018004f724 f i Chunk.obj
 0001:0004e730       ?toString@Chunk@IFF_RIFF@@W7EAA?AV?$basic_string@DU?$char_traits@D@std@@V?$allocator@D@2@@std@@V34@E@Z 000000018004f730 f i Chunk.obj
 0001:0004e73c       ??0ChunkController@IFF_RIFF@@QEAA@PEAVIChunkBehavior@1@E@Z 000000018004f73c f   ChunkController.obj
 0001:0004e7e8       ?addChunkPath@ChunkController@IFF_RIFF@@QEAAXAEBVChunkPath@2@@Z 000000018004f7e8 f   ChunkController.obj
 0001:0004e8a0       ?parseChunks@ChunkController@IFF_RIFF@@IEAAXPEAVXMP_IO@@AEAVChunkPath@2@PEAKPEAVChunk@2@@Z 000000018004f8a0 f   ChunkController.obj
 0001:0004ef8c       ?parseFile@ChunkController@IFF_RIFF@@QEAAXPEAVXMP_IO@@PEAK@Z 000000018004ff8c f   ChunkController.obj
 0001:0004f028       ?writeFile@ChunkController@IFF_RIFF@@QEAAXPEAVXMP_IO@@PEAVXMP_ProgressTracker@@@Z 0000000180050028 f   ChunkController.obj
 0001:0004f24c       ?getChunk@ChunkController@IFF_RIFF@@QEBAPEAVIChunkData@2@AEBVChunkPath@2@E@Z 000000018005024c f   ChunkController.obj
 0001:0004f2e0       ?findChunk@ChunkController@IFF_RIFF@@IEBAPEAVChunk@2@AEBVChunkPath@2@AEAV42@AEBV32@E@Z 00000001800502e0 f   ChunkController.obj
 0001:0004f424       ?getChunks@ChunkController@IFF_RIFF@@QEAAAEBV?$vector@PEAVIChunkData@IFF_RIFF@@V?$allocator@PEAVIChunkData@IFF_RIFF@@@std@@@std@@AEBVChunkPath@2@@Z 0000000180050424 f   ChunkController.obj
 0001:0004f4b8       ?getTopLevelTypes@ChunkController@IFF_RIFF@@QEAA?BV?$vector@KV?$allocator@K@std@@@std@@XZ 00000001800504b8 f   ChunkController.obj
 0001:0004f688       ?findChunks@ChunkController@IFF_RIFF@@IEAAXAEBVChunkPath@2@AEAV32@AEBVChunk@2@@Z 0000000180050688 f   ChunkController.obj
 0001:0004f780       ?cleanupTree@ChunkController@IFF_RIFF@@IEAAXXZ 0000000180050780 f   ChunkController.obj
 0001:0004f80c       ?createChunk@ChunkController@IFF_RIFF@@QEAAPEAVIChunkData@2@KK@Z 000000018005080c f   ChunkController.obj
 0001:0004f864       ?insertChunk@ChunkController@IFF_RIFF@@QEAAXPEAVIChunkData@2@@Z 0000000180050864 f   ChunkController.obj
 0001:0004f904       ?removeChunk@ChunkController@IFF_RIFF@@QEAAXPEAVIChunkData@2@@Z 0000000180050904 f   ChunkController.obj
 0001:0004f9b0       ??1?$vector@VChunkPath@IFF_RIFF@@V?$allocator@VChunkPath@IFF_RIFF@@@std@@@std@@QEAA@XZ 00000001800509b0 f i ChunkController.obj
 0001:0004fa30       ?_Reserve@?$vector@VChunkPath@IFF_RIFF@@V?$allocator@VChunkPath@IFF_RIFF@@@std@@@std@@IEAAX_K@Z 0000000180050a30 f i ChunkController.obj
 0001:0004faec       ?_Reallocate@?$vector@KV?$allocator@K@std@@@std@@IEAAX_K@Z 0000000180050aec f i ChunkController.obj
 0001:0004fbc8       ?_Reallocate@?$vector@VChunkPath@IFF_RIFF@@V?$allocator@VChunkPath@IFF_RIFF@@@std@@@std@@IEAAX_K@Z 0000000180050bc8 f i ChunkController.obj
 0001:0004fd0c       ??$_Uninitialized_move_al_unchecked1@PEAVChunkPath@IFF_RIFF@@PEAV12@V?$allocator@VChunkPath@IFF_RIFF@@@std@@@std@@YAPEAVChunkPath@IFF_RIFF@@PEAV12@00AEAU?$_Wrap_alloc@V?$allocator@VChunkPath@IFF_RIFF@@@std@@@0@U_General_ptr_iterator_tag@0@U_Any_tag@0@@Z 0000000180050d0c f i ChunkController.obj
 0001:0004fd6c       ??0ChunkPath@IFF_RIFF@@QEAA@AEBV01@@Z 0000000180050d6c f   ChunkPath.obj
 0001:0004fdf8       ??1ChunkPath@IFF_RIFF@@QEAA@XZ 0000000180050df8 f   ChunkPath.obj
 0001:0004fe3c       ?append@ChunkPath@IFF_RIFF@@QEAAXPEBUChunkIdentifier@2@K@Z 0000000180050e3c f   ChunkPath.obj
 0001:0004fe80       ?match@ChunkPath@IFF_RIFF@@QEBA?AW4MatchResult@12@AEBV12@@Z 0000000180050e80 f   ChunkPath.obj
 0001:0004ff70       ?_Insert_n@?$vector@UChunkIdentifier@IFF_RIFF@@V?$allocator@UChunkIdentifier@IFF_RIFF@@@std@@@std@@IEAA?AV?$_Vector_iterator@V?$_Vector_val@U?$_Simple_types@UChunkIdentifier@IFF_RIFF@@@std@@@std@@@2@V?$_Vector_const_iterator@V?$_Vector_val@U?$_Simple_types@UChunkIdentifier@IFF_RIFF@@@std@@@std@@@2@_KAEBUChunkIdentifier@IFF_RIFF@@@Z 0000000180050f70 f i ChunkPath.obj
 0001:00050254       ?arrangeChunksInPlace@IChunkBehavior@IFF_RIFF@@IEAAXAEAVIChunkContainer@2@0@Z 0000000180051254 f   IChunkBehavior.obj
 0001:00050640       ?arrangeChunksInTree@IChunkBehavior@IFF_RIFF@@IEAAXAEAVIChunkContainer@2@0@Z 0000000180051640 f   IChunkBehavior.obj
 0001:00050860       ?validateOffsets@IChunkBehavior@IFF_RIFF@@IEAAXAEAVIChunkContainer@2@_K@Z 0000000180051860 f   IChunkBehavior.obj
 0001:00050968       ?mergeFreeChunks@IChunkBehavior@IFF_RIFF@@IEAAPEAVChunk@2@AEAVIChunkContainer@2@K@Z 0000000180051968 f   IChunkBehavior.obj
 0001:00050b60       ?moveChunks@IChunkBehavior@IFF_RIFF@@IEAAXAEAVIChunkContainer@2@0K@Z 0000000180051b60 f   IChunkBehavior.obj
 0001:00050bf4       ?isMovable@IChunkBehavior@IFF_RIFF@@IEBA_NAEBVChunk@2@@Z 0000000180051bf4 f   IChunkBehavior.obj
 0001:00050cfc       ?parse@DISPMetadata@IFF_RIFF@@UEAAXPEAVXMP_IO@@@Z 0000000180051cfc f i DISPMetadata.obj
 0001:00050cfc       ?parse@iXMLMetadata@IFF_RIFF@@UEAAXPEAVXMP_IO@@@Z 0000000180051cfc f i iXMLMetadata.obj
 0001:00050cfc       ?parse@BEXTMetadata@IFF_RIFF@@UEAAXPEAVXMP_IO@@@Z 0000000180051cfc f i BEXTMetadata.obj
 0001:00050cfc       ?parse@INFOMetadata@IFF_RIFF@@UEAAXPEAVXMP_IO@@@Z 0000000180051cfc f i INFOMetadata.obj
 0001:00050cfc       ?parse@CartMetadata@IFF_RIFF@@UEAAXPEAVXMP_IO@@@Z 0000000180051cfc f i CartMetadata.obj
 0001:00050d08       ??_EBEXTMetadata@IFF_RIFF@@UEAAPEAXI@Z 0000000180051d08 f i * CIL library *:* CIL module *
 0001:00050d08       ??_GBEXTMetadata@IFF_RIFF@@UEAAPEAXI@Z 0000000180051d08 f i BEXTMetadata.obj
 0001:00050d48       ?NormalizeLF@BEXTMetadata@IFF_RIFF@@KAXAEAV?$basic_string@DU?$char_traits@D@std@@V?$allocator@D@2@@std@@@Z 0000000180051d48 f   BEXTMetadata.obj
 0001:00050e14       ??1BEXTMetadata@IFF_RIFF@@UEAA@XZ 0000000180051e14 f   BEXTMetadata.obj
 0001:00050e24       ?parse@BEXTMetadata@IFF_RIFF@@UEAAXPEBE_K@Z 0000000180051e24 f   BEXTMetadata.obj
 0001:00051168       ?serialize@BEXTMetadata@IFF_RIFF@@UEAA_KPEAPEAE@Z 0000000180052168 f   BEXTMetadata.obj
 0001:000514fc       ?isEmptyValue@BEXTMetadata@IFF_RIFF@@MEAA_NKAEAVValueObject@@@Z 00000001800524fc f   BEXTMetadata.obj
 0001:0005157c       ?insert@?$basic_string@DU?$char_traits@D@std@@V?$allocator@D@2@@std@@QEAAAEAV12@_K0D@Z 000000018005257c f i BEXTMetadata.obj
 0001:0005168c       ??$setArray@E@IMetadata@@QEAAXKPEBEK@Z 000000018005268c f i BEXTMetadata.obj
 0001:000517dc       ??$getArray@E@IMetadata@@QEBAQEBEKAEAK@Z 00000001800527dc f i BEXTMetadata.obj
 0001:000518a8       ??_G?$TArrayObject@E@@UEAAPEAXI@Z 00000001800528a8 f i BEXTMetadata.obj
 0001:000518a8       ??_E?$TArrayObject@E@@UEAAPEAXI@Z 00000001800528a8 f i * CIL library *:* CIL module *
 0001:000518fc       ?setArray@?$TArrayObject@E@@QEAAXPEBEK@Z 00000001800528fc f i BEXTMetadata.obj
 0001:000519cc       ??_GCartMetadata@IFF_RIFF@@UEAAPEAXI@Z 00000001800529cc f i CartMetadata.obj
 0001:000519cc       ??_ECartMetadata@IFF_RIFF@@UEAAPEAXI@Z 00000001800529cc f i * CIL library *:* CIL module *
 0001:00051a0c       ??1CartMetadata@IFF_RIFF@@UEAA@XZ 0000000180052a0c f   CartMetadata.obj
 0001:00051a1c       ?parse@CartMetadata@IFF_RIFF@@UEAAXPEBE_K@Z 0000000180052a1c f   CartMetadata.obj
 0001:00051c54       ?serialize@CartMetadata@IFF_RIFF@@UEAA_KPEAPEAE@Z 0000000180052c54 f   CartMetadata.obj
 0001:00051f08       ?isEmptyValue@CartMetadata@IFF_RIFF@@MEAA_NKAEAVValueObject@@@Z 0000000180052f08 f   CartMetadata.obj
 0001:00051f84       ??$setArray@UStoredCartTimer@CartMetadata@IFF_RIFF@@@IMetadata@@QEAAXKPEBUStoredCartTimer@CartMetadata@IFF_RIFF@@K@Z 0000000180052f84 f i CartMetadata.obj
 0001:000520c8       ??$getArray@UStoredCartTimer@CartMetadata@IFF_RIFF@@@IMetadata@@QEBAQEBUStoredCartTimer@CartMetadata@IFF_RIFF@@KAEAK@Z 00000001800530c8 f i CartMetadata.obj
 0001:00052194       ??_E?$TArrayObject@UStoredCartTimer@CartMetadata@IFF_RIFF@@@@UEAAPEAXI@Z 0000000180053194 f i * CIL library *:* CIL module *
 0001:00052194       ??_G?$TArrayObject@UStoredCartTimer@CartMetadata@IFF_RIFF@@@@UEAAPEAXI@Z 0000000180053194 f i CartMetadata.obj
 0001:000521e8       ?setArray@?$TArrayObject@UStoredCartTimer@CartMetadata@IFF_RIFF@@@@QEAAXPEBUStoredCartTimer@CartMetadata@IFF_RIFF@@K@Z 00000001800531e8 f i CartMetadata.obj
 0001:000522c4       ??_EDISPMetadata@IFF_RIFF@@UEAAPEAXI@Z 00000001800532c4 f i * CIL library *:* CIL module *
 0001:000522c4       ??_GDISPMetadata@IFF_RIFF@@UEAAPEAXI@Z 00000001800532c4 f i DISPMetadata.obj
 0001:00052304       ??1DISPMetadata@IFF_RIFF@@UEAA@XZ 0000000180053304 f   DISPMetadata.obj
 0001:00052314       ?parse@DISPMetadata@IFF_RIFF@@UEAAXPEBE_K@Z 0000000180053314 f   DISPMetadata.obj
 0001:000523fc       ?serialize@DISPMetadata@IFF_RIFF@@UEAA_KPEAPEAE@Z 00000001800533fc f   DISPMetadata.obj
 0001:00052524       ??_GINFOMetadata@IFF_RIFF@@UEAAPEAXI@Z 0000000180053524 f i INFOMetadata.obj
 0001:00052524       ??_EINFOMetadata@IFF_RIFF@@UEAAPEAXI@Z 0000000180053524 f i * CIL library *:* CIL module *
 0001:00052564       ??1INFOMetadata@IFF_RIFF@@UEAA@XZ 0000000180053564 f   INFOMetadata.obj
 0001:00052574       ?parse@INFOMetadata@IFF_RIFF@@UEAAXPEBE_K@Z 0000000180053574 f   INFOMetadata.obj
 0001:00052780       ?serialize@INFOMetadata@IFF_RIFF@@UEAA_KPEAPEAE@Z 0000000180053780 f   INFOMetadata.obj
 0001:00052aa8       ?getRealSize@WAVEBehavior@IFF_RIFF@@UEAA_K_KAEBUChunkIdentifier@2@AEAVIChunkContainer@2@PEAVXMP_IO@@@Z 0000000180053aa8 f   WAVEBehavior.obj
 0001:00052bc0       ?getMaxChunkSize@WAVEBehavior@IFF_RIFF@@UEBA_KXZ 0000000180053bc0 f   WAVEBehavior.obj
 0001:00052be0       ?isValidTopLevelChunk@WAVEBehavior@IFF_RIFF@@UEAA_NAEBUChunkIdentifier@2@K@Z 0000000180053be0 f   WAVEBehavior.obj
 0001:00052c0c       ?fixHierarchy@WAVEBehavior@IFF_RIFF@@UEAAXAEAVIChunkContainer@2@@Z 0000000180053c0c f   WAVEBehavior.obj
 0001:00052e10       ?insertChunk@WAVEBehavior@IFF_RIFF@@UEAAXAEAVIChunkContainer@2@AEAVChunk@2@@Z 0000000180053e10 f   WAVEBehavior.obj
 0001:00052ed0       ?removeChunk@WAVEBehavior@IFF_RIFF@@UEAA_NAEAVIChunkContainer@2@AEAVChunk@2@@Z 0000000180053ed0 f   WAVEBehavior.obj
 0001:00053128       ?createFREE@WAVEBehavior@IFF_RIFF@@MEAAPEAVChunk@2@_K@Z 0000000180054128 f   WAVEBehavior.obj
 0001:000531d0       ?isFREEChunk@WAVEBehavior@IFF_RIFF@@MEBAEAEBVChunk@2@@Z 00000001800541d0 f   WAVEBehavior.obj
 0001:00053208       ?isRF64@WAVEBehavior@IFF_RIFF@@IEAA_NAEBVIChunkContainer@2@@Z 0000000180054208 f   WAVEBehavior.obj
 0001:0005327c       ?getDS64@WAVEBehavior@IFF_RIFF@@IEAAPEAUDS64@12@AEAVIChunkContainer@2@PEAVXMP_IO@@@Z 000000018005427c f   WAVEBehavior.obj
 0001:000534c0       ?updateRF64@WAVEBehavior@IFF_RIFF@@IEAAXAEAVIChunkContainer@2@@Z 00000001800544c0 f   WAVEBehavior.obj
 0001:00053634       ?doUpdateRF64@WAVEBehavior@IFF_RIFF@@AEAAXAEAVChunk@2@@Z 0000000180054634 f   WAVEBehavior.obj
 0001:00053798       ?parseDS64Chunk@WAVEBehavior@IFF_RIFF@@IEAA_NAEBVChunk@2@AEAUDS64@12@@Z 0000000180054798 f   WAVEBehavior.obj
 0001:0005396c       ?serializeDS64Chunk@WAVEBehavior@IFF_RIFF@@IEAA_NAEBUDS64@12@AEAVChunk@2@@Z 000000018005496c f   WAVEBehavior.obj
 0001:00053af0       ?_Reserve@?$vector@UChunkSize64@WAVEBehavior@IFF_RIFF@@V?$allocator@UChunkSize64@WAVEBehavior@IFF_RIFF@@@std@@@std@@IEAAX_K@Z 0000000180054af0 f i WAVEBehavior.obj
 0001:00053ba8       ?_Reallocate@?$vector@UChunkSize64@WAVEBehavior@IFF_RIFF@@V?$allocator@UChunkSize64@WAVEBehavior@IFF_RIFF@@@std@@@std@@IEAAX_K@Z 0000000180054ba8 f i WAVEBehavior.obj
 0001:00053cb8       ??$_Uninitialized_move_al_unchecked1@PEAUChunkSize64@WAVEBehavior@IFF_RIFF@@PEAU123@V?$allocator@UChunkSize64@WAVEBehavior@IFF_RIFF@@@std@@@std@@YAPEAUChunkSize64@WAVEBehavior@IFF_RIFF@@PEAU123@00AEAU?$_Wrap_alloc@V?$allocator@UChunkSize64@WAVEBehavior@IFF_RIFF@@@std@@@0@U_General_ptr_iterator_tag@0@U_Any_tag@0@@Z 0000000180054cb8 f i WAVEBehavior.obj
 0001:00053ce0       ??0TrackListInfo@iXMLMetadata@IFF_RIFF@@QEAA@XZ 0000000180054ce0 f i WAVEReconcile.obj
 0001:00053d2c       ??9TrackListInfo@iXMLMetadata@IFF_RIFF@@QEBA_NAEBV012@@Z 0000000180054d2c f i WAVEReconcile.obj
 0001:00053e20       ?importToXMP@WAVEReconcile@IFF_RIFF@@UEAAEAEAV?$TXMPMeta@V?$basic_string@DU?$char_traits@D@std@@V?$allocator@D@2@@std@@@@AEBVMetadataSet@@@Z 0000000180054e20 f   WAVEReconcile.obj
 0001:000545ac       ?exportFromXMP@WAVEReconcile@IFF_RIFF@@UEAAEAEAVMetadataSet@@AEAV?$TXMPMeta@V?$basic_string@DU?$char_traits@D@std@@V?$allocator@D@2@@std@@@@@Z 00000001800555ac f   WAVEReconcile.obj
 0001:00054eac       ?encodeToHexString@WAVEReconcile@IFF_RIFF@@CA_NPEBEAEAV?$basic_string@DU?$char_traits@D@std@@V?$allocator@D@2@@std@@@Z 0000000180055eac f   WAVEReconcile.obj
 0001:00054fa0       ?decodeFromHexString@WAVEReconcile@IFF_RIFF@@CA_NV?$basic_string@DU?$char_traits@D@std@@V?$allocator@D@2@@std@@AEAV34@@Z 0000000180055fa0 f   WAVEReconcile.obj
 0001:000551c8       ?stringToFOURCC@WAVEReconcile@IFF_RIFF@@CA_NV?$basic_string@DU?$char_traits@D@std@@V?$allocator@D@2@@std@@AEAK@Z 00000001800561c8 f   WAVEReconcile.obj
 0001:000552e8       ?exportSpecialXMPToiXML@WAVEReconcile@IFF_RIFF@@CAXAEAV?$TXMPMeta@V?$basic_string@DU?$char_traits@D@std@@V?$allocator@D@2@@std@@@@AEAVIMetadata@@AEAV?$vector@U?$pair@PEBDPEBD@std@@V?$allocator@U?$pair@PEBDPEBD@std@@@2@@std@@@Z 00000001800562e8 f   WAVEReconcile.obj
 0001:00055b2c       ?exportSpecialiXMLToXMP@WAVEReconcile@IFF_RIFF@@CA_NAEAVIMetadata@@AEAV?$TXMPMeta@V?$basic_string@DU?$char_traits@D@std@@V?$allocator@D@2@@std@@@@@Z 0000000180056b2c f   WAVEReconcile.obj
 0001:000560d0       ??1?$vector@VTrackListInfo@iXMLMetadata@IFF_RIFF@@V?$allocator@VTrackListInfo@iXMLMetadata@IFF_RIFF@@@std@@@std@@QEAA@XZ 00000001800570d0 f i WAVEReconcile.obj
 0001:00056150       ??0?$vector@VTrackListInfo@iXMLMetadata@IFF_RIFF@@V?$allocator@VTrackListInfo@iXMLMetadata@IFF_RIFF@@@std@@@std@@QEAA@_K@Z 0000000180057150 f i WAVEReconcile.obj
 0001:00056208       ??$get@ViXMLMetadata@IFF_RIFF@@@MetadataSet@@QEBAPEAViXMLMetadata@IFF_RIFF@@XZ 0000000180057208 f i WAVEReconcile.obj
 0001:00056270       ??$get@VBEXTMetadata@IFF_RIFF@@@MetadataSet@@QEBAPEAVBEXTMetadata@IFF_RIFF@@XZ 0000000180057270 f i WAVEReconcile.obj
 0001:000562d8       ??$get@VCartMetadata@IFF_RIFF@@@MetadataSet@@QEBAPEAVCartMetadata@IFF_RIFF@@XZ 00000001800572d8 f i WAVEReconcile.obj
 0001:00056340       ??$get@VINFOMetadata@IFF_RIFF@@@MetadataSet@@QEBAPEAVINFOMetadata@IFF_RIFF@@XZ 0000000180057340 f i WAVEReconcile.obj
 0001:000563a8       ??$get@VDISPMetadata@IFF_RIFF@@@MetadataSet@@QEBAPEAVDISPMetadata@IFF_RIFF@@XZ 00000001800573a8 f i WAVEReconcile.obj
 0001:00056410       ??$setArray@VTrackListInfo@iXMLMetadata@IFF_RIFF@@@IMetadata@@QEAAXKPEBVTrackListInfo@iXMLMetadata@IFF_RIFF@@K@Z 0000000180057410 f i WAVEReconcile.obj
 0001:00056560       ??$getArray@VTrackListInfo@iXMLMetadata@IFF_RIFF@@@IMetadata@@QEBAQEBVTrackListInfo@iXMLMetadata@IFF_RIFF@@KAEAK@Z 0000000180057560 f i WAVEReconcile.obj
 0001:0005662c       ?setArray@?$TArrayObject@VTrackListInfo@iXMLMetadata@IFF_RIFF@@@@QEAAXPEBVTrackListInfo@iXMLMetadata@IFF_RIFF@@K@Z 000000018005762c f i WAVEReconcile.obj
 0001:00056814       ??$_Uninitialized_default_fill_n1@PEAVTrackListInfo@iXMLMetadata@IFF_RIFF@@_KV?$allocator@VTrackListInfo@iXMLMetadata@IFF_RIFF@@@std@@@std@@YAXPEAVTrackListInfo@iXMLMetadata@IFF_RIFF@@_KAEAU?$_Wrap_alloc@V?$allocator@VTrackListInfo@iXMLMetadata@IFF_RIFF@@@std@@@0@U?$integral_constant@_N$0A@@0@@Z 0000000180057814 f i WAVEReconcile.obj
 0001:00056864       ??_E?$TArrayObject@VTrackListInfo@iXMLMetadata@IFF_RIFF@@@@UEAAPEAXI@Z 0000000180057864 f i * CIL library *:* CIL module *
 0001:00056864       ??_G?$TArrayObject@VTrackListInfo@iXMLMetadata@IFF_RIFF@@@@UEAAPEAXI@Z 0000000180057864 f i WAVEReconcile.obj
 0001:000568f8       ??1TrackListInfo@iXMLMetadata@IFF_RIFF@@QEAA@XZ 00000001800578f8 f i WAVEReconcile.obj
 0001:00056990       ??_EiXMLMetadata@IFF_RIFF@@UEAAPEAXI@Z 0000000180057990 f i * CIL library *:* CIL module *
 0001:00056990       ??_GiXMLMetadata@IFF_RIFF@@UEAAPEAXI@Z 0000000180057990 f i iXMLMetadata.obj
 0001:000569c4       ??1iXMLMetadata@IFF_RIFF@@UEAA@XZ 00000001800579c4 f   iXMLMetadata.obj
 0001:00056a1c       ?parse@iXMLMetadata@IFF_RIFF@@UEAAXPEBE_K@Z 0000000180057a1c f   iXMLMetadata.obj
 0001:00056bdc       ?serialize@iXMLMetadata@IFF_RIFF@@UEAA_KPEAPEAE@Z 0000000180057bdc f   iXMLMetadata.obj
 0001:00056e78       ?isEmptyValue@iXMLMetadata@IFF_RIFF@@MEAA_NKAEAVValueObject@@@Z 0000000180057e78 f   iXMLMetadata.obj
 0001:00056f24       ?ParseAndSetStringProperty@iXMLMetadata@IFF_RIFF@@IEAAXPEAVXML_Node@@K@Z 0000000180057f24 f   iXMLMetadata.obj
 0001:000570f4       ?ParseAndSetIntegerProperty@iXMLMetadata@IFF_RIFF@@IEAAXPEAVXML_Node@@K@Z 00000001800580f4 f   iXMLMetadata.obj
 0001:000571c4       ?ParseAndSetBoolProperty@iXMLMetadata@IFF_RIFF@@IEAAXPEAVXML_Node@@K@Z 00000001800581c4 f   iXMLMetadata.obj
 0001:000572a4       ?ParseAndSetProperties@iXMLMetadata@IFF_RIFF@@IEAAXXZ 00000001800582a4 f   iXMLMetadata.obj
 0001:000574c8       ?UpdateStringProperty@iXMLMetadata@IFF_RIFF@@IEAAXPEAVXML_Node@@K@Z 00000001800584c8 f   iXMLMetadata.obj
 0001:000575cc       ?UpdateXMLNode@iXMLMetadata@IFF_RIFF@@IEAAXPEAVXML_Node@@PEBDAEBV?$basic_string@DU?$char_traits@D@std@@V?$allocator@D@2@@std@@@Z 00000001800585cc f   iXMLMetadata.obj
 0001:000576ec       ?RemoveXMLNode@iXMLMetadata@IFF_RIFF@@IEAAXPEAVXML_Node@@PEBD@Z 00000001800586ec f   iXMLMetadata.obj
 0001:000577f0       ?UpdateIntegerProperty@iXMLMetadata@IFF_RIFF@@IEAAXPEAVXML_Node@@K@Z 00000001800587f0 f   iXMLMetadata.obj
 0001:000578ac       ?UpdateBoolProperty@iXMLMetadata@IFF_RIFF@@IEAAXPEAVXML_Node@@K@Z 00000001800588ac f   iXMLMetadata.obj
 0001:000579b0       ?UpdateTrackListInfo@iXMLMetadata@IFF_RIFF@@IEAAXPEAVXML_Node@@@Z 00000001800589b0 f   iXMLMetadata.obj
 0001:00057d1c       ?UpdateProperties@iXMLMetadata@IFF_RIFF@@IEAAXXZ 0000000180058d1c f   iXMLMetadata.obj
 0001:00057f20       ?valueValid@iXMLMetadata@IFF_RIFF@@MEAA_NKPEAVValueObject@@@Z 0000000180058f20 f   iXMLMetadata.obj
 0001:000580a4       ?valueModify@iXMLMetadata@IFF_RIFF@@MEAAXKPEAVValueObject@@@Z 00000001800590a4 f   iXMLMetadata.obj
 0001:000580e0       ?validateStringSize@iXMLMetadata@IFF_RIFF@@IEAA_NPEAVValueObject@@_K1@Z 00000001800590e0 f   iXMLMetadata.obj
 0001:00058194       ?validateInt@iXMLMetadata@IFF_RIFF@@IEAA_NPEAVValueObject@@_K1@Z 0000000180059194 f   iXMLMetadata.obj
 0001:00058224       ?validateBool@iXMLMetadata@IFF_RIFF@@IEAA_NPEAVValueObject@@@Z 0000000180059224 f   iXMLMetadata.obj
 0001:00058290       ?shortenString@iXMLMetadata@IFF_RIFF@@IEAAXPEAVValueObject@@_K@Z 0000000180059290 f   iXMLMetadata.obj
 0001:00058350       ?validateDate@iXMLMetadata@IFF_RIFF@@IEAA_NPEAVValueObject@@@Z 0000000180059350 f   iXMLMetadata.obj
 0001:0005841c       ?validateTime@iXMLMetadata@IFF_RIFF@@IEAA_NPEAVValueObject@@@Z 000000018005941c f   iXMLMetadata.obj
 0001:000584e8       ?validateUMID@iXMLMetadata@IFF_RIFF@@IEAA_NPEAVValueObject@@@Z 00000001800594e8 f   iXMLMetadata.obj
 0001:000585e4       ?ParseStringValue@iXMLMetadata@IFF_RIFF@@IEAA?AV?$basic_string@DU?$char_traits@D@std@@V?$allocator@D@2@@std@@PEAVXML_Node@@K@Z 00000001800595e4 f   iXMLMetadata.obj
 0001:00058614       ?ParseStringValue@iXMLMetadata@IFF_RIFF@@IEAA?AV?$basic_string@DU?$char_traits@D@std@@V?$allocator@D@2@@std@@PEAVXML_Node@@PEBD_N@Z 0000000180059614 f   iXMLMetadata.obj
 0001:00058718       ?ParseUns64Value@iXMLMetadata@IFF_RIFF@@IEAA_KPEAVXML_Node@@PEBD@Z 0000000180059718 f   iXMLMetadata.obj
 0001:000587e0       ?ParseAndSetTrackListInfo@iXMLMetadata@IFF_RIFF@@IEAAXPEAVXML_Node@@@Z 00000001800597e0 f   iXMLMetadata.obj
 0001:00058cb8       ?validateRational@iXMLMetadata@IFF_RIFF@@IEAA_NPEAVValueObject@@@Z 0000000180059cb8 f   iXMLMetadata.obj
 0001:00058dd0       ??_EASF_Support@@UEAAPEAXI@Z 0000000180059dd0 f i * CIL library *:* CIL module *
 0001:00058dd0       ??_GASF_Support@@UEAAPEAXI@Z 0000000180059dd0 f i ASF_Support.obj
 0001:00058e00       ??1ASF_Support@@UEAA@XZ    0000000180059e00 f   ASF_Support.obj
 0001:00058e10       ?OpenASF@ASF_Support@@QEAAJPEAVXMP_IO@@AEAVObjectState@1@@Z 0000000180059e10 f   ASF_Support.obj
 0001:00058ebc       ?ReadObject@ASF_Support@@QEAA_NPEAVXMP_IO@@AEAVObjectState@1@PEA_KAEA_K@Z 0000000180059ebc f   ASF_Support.obj
 0001:000590e8       ?ReadHeaderObject@ASF_Support@@QEAA_NPEAVXMP_IO@@AEAVObjectState@1@AEBVObjectData@1@@Z 000000018005a0e8 f   ASF_Support.obj
 0001:000598e8       ?WriteHeaderObject@ASF_Support@@QEAA_NPEAVXMP_IO@@0AEBVObjectData@1@AEAVASF_LegacyManager@@_N@Z 000000018005a8e8 f   ASF_Support.obj
 0001:0005aa98       ?ReadHeaderExtensionObject@ASF_Support@@QEAA_NPEAVXMP_IO@@AEAVObjectState@1@AEB_KAEBU_ASF_ObjectBase@@@Z 000000018005ba98 f   ASF_Support.obj
 0001:0005ab88       ?WriteHeaderExtensionObject@ASF_Support@@SA_NAEBV?$basic_string@DU?$char_traits@D@std@@V?$allocator@D@2@@std@@PEAV23@AEBU_ASF_ObjectBase@@H@Z 000000018005bb88 f   ASF_Support.obj
 0001:0005ada8       ?CreatePaddingObject@ASF_Support@@SA_NPEAV?$basic_string@DU?$char_traits@D@std@@V?$allocator@D@2@@std@@_K@Z 000000018005bda8 f   ASF_Support.obj
 0001:0005ae1c       ?WriteXMPObject@ASF_Support@@SA_NPEAVXMP_IO@@KPEBD@Z 000000018005be1c f   ASF_Support.obj
 0001:0005aea0       ?CopyObject@ASF_Support@@SA_NPEAVXMP_IO@@0AEBVObjectData@1@@Z 000000018005bea0 f   ASF_Support.obj
 0001:0005af00       ?ReadBuffer@ASF_Support@@SA_NPEAVXMP_IO@@AEA_K_KPEAD@Z 000000018005bf00 f   ASF_Support.obj
 0001:0005af70       ?WriteBuffer@PNG_Support@@YA_NPEAVXMP_IO@@AEA_KKPEBD@Z 000000018005bf70 f   PNG_Support.obj
 0001:0005af70       ?WriteBuffer@ASF_Support@@SA_NPEAVXMP_IO@@AEA_KKPEBD@Z 000000018005bf70 f   ASF_Support.obj
 0001:0005afd4       ?ReplaceString@ASF_Support@@CA?AV?$basic_string@DU?$char_traits@D@std@@V?$allocator@D@2@@std@@AEAV23@0HH@Z 000000018005bfd4 f   ASF_Support.obj
 0001:0005b0b0       ??_GASF_LegacyManager@@UEAAPEAXI@Z 000000018005c0b0 f i ASF_Support.obj
 0001:0005b0b0       ??_EASF_LegacyManager@@UEAAPEAXI@Z 000000018005c0b0 f i * CIL library *:* CIL module *
 0001:0005b0e4       ??1ASF_LegacyManager@@UEAA@XZ 000000018005c0e4 f   ASF_Support.obj
 0001:0005b154       ?SetField@ASF_LegacyManager@@QEAA_NW4fieldType@1@AEBV?$basic_string@DU?$char_traits@D@std@@V?$allocator@D@2@@std@@@Z 000000018005c154 f   ASF_Support.obj
 0001:0005b264       ?GetField@ASF_LegacyManager@@QEAA?AV?$basic_string@DU?$char_traits@D@std@@V?$allocator@D@2@@std@@W4fieldType@1@@Z 000000018005c264 f   ASF_Support.obj
 0001:0005b2e8       ?ComputeDigest@ASF_LegacyManager@@QEAAXXZ 000000018005c2e8 f   ASF_Support.obj
 0001:0005b4b8       ?CheckDigest@ASF_LegacyManager@@QEAA_NAEBV?$TXMPMeta@V?$basic_string@DU?$char_traits@D@std@@V?$allocator@D@2@@std@@@@@Z 000000018005c4b8 f   ASF_Support.obj
 0001:0005b5c4       ?SetDigest@ASF_LegacyManager@@QEAAXPEAV?$TXMPMeta@V?$basic_string@DU?$char_traits@D@std@@V?$allocator@D@2@@std@@@@@Z 000000018005c5c4 f   ASF_Support.obj
 0001:0005b614       ?ImportLegacy@ASF_LegacyManager@@QEAAXPEAV?$TXMPMeta@V?$basic_string@DU?$char_traits@D@std@@V?$allocator@D@2@@std@@@@@Z 000000018005c614 f   ASF_Support.obj
 0001:0005b8cc       ?ExportLegacy@ASF_LegacyManager@@QEAAHAEBV?$TXMPMeta@V?$basic_string@DU?$char_traits@D@std@@V?$allocator@D@2@@std@@@@@Z 000000018005c8cc f   ASF_Support.obj
 0001:0005befc       ?NormalizeStringDisplayASCII@ASF_LegacyManager@@CA?AV?$basic_string@DU?$char_traits@D@std@@V?$allocator@D@2@@std@@AEAV23@@Z 000000018005cefc f   ASF_Support.obj
 0001:0005bf90       ?NormalizeStringTrailingNull@ASF_LegacyManager@@CA?AV?$basic_string@DU?$char_traits@D@std@@V?$allocator@D@2@@std@@AEAV23@@Z 000000018005cf90 f   ASF_Support.obj
 0001:0005c004       ?ConvertMSDateToISODate@ASF_LegacyManager@@CAXAEAV?$basic_string@DU?$char_traits@D@std@@V?$allocator@D@2@@std@@PEAV23@@Z 000000018005d004 f   ASF_Support.obj
 0001:0005c15c       ?ConvertISODateToMSDate@ASF_LegacyManager@@CAXAEAV?$basic_string@DU?$char_traits@D@std@@V?$allocator@D@2@@std@@PEAV23@@Z 000000018005d15c f   ASF_Support.obj
 0001:0005c2a8       ??0?$vector@V?$basic_string@DU?$char_traits@D@std@@V?$allocator@D@2@@std@@V?$allocator@V?$basic_string@DU?$char_traits@D@std@@V?$allocator@D@2@@std@@@2@@std@@QEAA@_K@Z 000000018005d2a8 f i ASF_Support.obj
 0001:0005c2fc       ?_Reserve@?$vector@VObjectData@ASF_Support@@V?$allocator@VObjectData@ASF_Support@@@std@@@std@@IEAAX_K@Z 000000018005d2fc f i ASF_Support.obj
 0001:0005c3b8       ?_Reallocate@?$vector@VObjectData@ASF_Support@@V?$allocator@VObjectData@ASF_Support@@@std@@@std@@IEAAX_K@Z 000000018005d3b8 f i ASF_Support.obj
 0001:0005c504       ??$_Uninitialized_default_fill_n1@PEAV?$basic_string@DU?$char_traits@D@std@@V?$allocator@D@2@@std@@_KV?$allocator@V?$basic_string@DU?$char_traits@D@std@@V?$allocator@D@2@@std@@@2@@std@@YAXPEAV?$basic_string@DU?$char_traits@D@std@@V?$allocator@D@2@@0@_KAEAU?$_Wrap_alloc@V?$allocator@V?$basic_string@DU?$char_traits@D@std@@V?$allocator@D@2@@std@@@std@@@0@U?$integral_constant@_N$0A@@0@@Z 000000018005d504 f i ASF_Support.obj
 0001:0005c53c       ??$_Uninitialized_move_al_unchecked1@PEAVObjectData@ASF_Support@@PEAV12@V?$allocator@VObjectData@ASF_Support@@@std@@@std@@YAPEAVObjectData@ASF_Support@@PEAV12@00AEAU?$_Wrap_alloc@V?$allocator@VObjectData@ASF_Support@@@std@@@0@U_General_ptr_iterator_tag@0@U_Any_tag@0@@Z 000000018005d53c f i ASF_Support.obj
 0001:0005c58c       ?InitializeGlobals@ID3_Support@@YA_NXZ 000000018005d58c f   ID3_Support.obj
 0001:0005c788       ?FindGenreName@GenreUtils@ID3_Support@@YAPEBDAEBV?$basic_string@DU?$char_traits@D@std@@V?$allocator@D@2@@std@@@Z 000000018005d788 f   ID3_Support.obj
 0001:0005c82c       ?FindGenreCode@GenreUtils@ID3_Support@@YAPEBDAEBV?$basic_string@DU?$char_traits@D@std@@V?$allocator@D@2@@std@@@Z 000000018005d82c f   ID3_Support.obj
 0001:0005c9c0       ?ConvertGenreToXMP@GenreUtils@ID3_Support@@YAXPEBDPEAV?$basic_string@DU?$char_traits@D@std@@V?$allocator@D@2@@std@@@Z 000000018005d9c0 f   ID3_Support.obj
 0001:0005cc18       ?ConvertGenreToID3@GenreUtils@ID3_Support@@YAXPEBDPEAV?$basic_string@DU?$char_traits@D@std@@V?$allocator@D@2@@std@@@Z 000000018005dc18 f   ID3_Support.obj
 0001:0005ce64       ??0ID3v2Frame@ID3_Support@@QEAA@K@Z 000000018005de64 f   ID3_Support.obj
 0001:0005ceac       ?setFrameValue@ID3v2Frame@ID3_Support@@QEAAXAEBV?$basic_string@DU?$char_traits@D@std@@V?$allocator@D@2@@std@@_N1111@Z 000000018005deac f   ID3_Support.obj
 0001:0005d16c       ?read@ID3v2Frame@ID3_Support@@QEAA_JPEAVXMP_IO@@E@Z 000000018005e16c f   ID3_Support.obj
 0001:0005d38c       ?advancePastCOMMDescriptor@ID3v2Frame@ID3_Support@@QEAA_NAEAJ@Z 000000018005e38c f   ID3_Support.obj
 0001:0005d518       ?getFrameValue@ID3v2Frame@ID3_Support@@QEAA_NEKPEAV?$basic_string@DU?$char_traits@D@std@@V?$allocator@D@2@@std@@@Z 000000018005e518 f   ID3_Support.obj
 0001:0005d768       ?read@ID3v1Tag@ID3_Support@@QEAA_NPEAVXMP_IO@@PEAV?$TXMPMeta@V?$basic_string@DU?$char_traits@D@std@@V?$allocator@D@2@@std@@@@@Z 000000018005e768 f   ID3_Support.obj
 0001:0005dc8c       ?write@ID3v1Tag@ID3_Support@@QEAAXPEAVXMP_IO@@PEAV?$TXMPMeta@V?$basic_string@DU?$char_traits@D@std@@V?$allocator@D@2@@std@@@@@Z 000000018005ec8c f   ID3_Support.obj
 0001:0005e354       ??$_Insert_hint@AEAU?$pair@QEBDPEBD@std@@PEAU?$_Tree_node@U?$pair@QEBDPEBD@std@@PEAX@2@@?$_Tree@V?$_Tmap_traits@PEBDPEBDVCharStarLess@@V?$allocator@U?$pair@QEBDPEBD@std@@@std@@$0A@@std@@@std@@IEAA?AV?$_Tree_iterator@V?$_Tree_val@U?$_Tree_simple_types@U?$pair@QEBDPEBD@std@@@std@@@std@@@1@V?$_Tree_const_iterator@V?$_Tree_val@U?$_Tree_simple_types@U?$pair@QEBDPEBD@std@@@std@@@std@@@1@AEAU?$pair@QEBDPEBD@1@PEAU?$_Tree_node@U?$pair@QEBDPEBD@std@@PEAX@1@@Z 000000018005f354 f i ID3_Support.obj
 0001:0005e5f0       ??$_Insert_nohint@AEAU?$pair@QEBDPEBD@std@@PEAU?$_Tree_node@U?$pair@QEBDPEBD@std@@PEAX@2@@?$_Tree@V?$_Tmap_traits@PEBDPEBDVCharStarLess@@V?$allocator@U?$pair@QEBDPEBD@std@@@std@@$0A@@std@@@std@@IEAA?AU?$pair@V?$_Tree_iterator@V?$_Tree_val@U?$_Tree_simple_types@U?$pair@QEBDPEBD@std@@@std@@@std@@@std@@_N@1@_NAEAU?$pair@QEBDPEBD@1@PEAU?$_Tree_node@U?$pair@QEBDPEBD@std@@PEAX@1@@Z 000000018005f5f0 f i ID3_Support.obj
 0001:0005e754       ?ParseMemoryDataSets@IPTC_Manager@@QEAAXPEBXK_N@Z 000000018005f754 f   IPTC_Support.obj
 0001:0005eb6c       ?GetDataSet@IPTC_Manager@@QEBA_KEPEAUDataSetInfo@1@_K@Z 000000018005fb6c f   IPTC_Support.obj
 0001:0005ec48       ?GetDataSet_UTF8@IPTC_Manager@@QEBA_KEPEAV?$basic_string@DU?$char_traits@D@std@@V?$allocator@D@2@@std@@_K@Z 000000018005fc48 f   IPTC_Support.obj
 0001:0005ed08       ?DisposeLooseValue@IPTC_Manager@@IEAAXAEAUDataSetInfo@1@@Z 000000018005fd08 f   IPTC_Support.obj
 0001:0005ed48       ?AppendDataSet@IPTC_Manager@@IEAAPEAEPEAEAEBUDataSetInfo@1@@Z 000000018005fd48 f   IPTC_Support.obj
 0001:0005edc0       ??1IPTC_Writer@@UEAA@XZ    000000018005fdc0 f   IPTC_Support.obj
 0001:0005eea0       ?SetDataSet_UTF8@IPTC_Writer@@UEAAXEPEBXKJ@Z 000000018005fea0 f   IPTC_Support.obj
 0001:0005f238       ?DeleteDataSet@IPTC_Writer@@UEAAXEJ@Z 0000000180060238 f   IPTC_Support.obj
 0001:0005f3cc       ?UpdateMemoryDataSets@IPTC_Writer@@UEAAXXZ 00000001800603cc f   IPTC_Support.obj
 0001:0005f650       ?ConvertToUTF8@IPTC_Writer@@AEAAXXZ 0000000180060650 f   IPTC_Support.obj
 0001:0005f7a4       ?count@?$_Tree@V?$_Tmap_traits@GUDataSetInfo@IPTC_Manager@@U?$less@G@std@@V?$allocator@U?$pair@$$CBGUDataSetInfo@IPTC_Manager@@@std@@@4@$00@std@@@std@@QEBA_KAEBG@Z 00000001800607a4 f i IPTC_Support.obj
 0001:0005f864       ??$_Buynode@AEAU?$pair@$$CBGUDataSetInfo@IPTC_Manager@@@std@@@?$_Tree_comp_alloc@V?$_Tmap_traits@GUDataSetInfo@IPTC_Manager@@U?$less@G@std@@V?$allocator@U?$pair@$$CBGUDataSetInfo@IPTC_Manager@@@std@@@4@$00@std@@@std@@QEAAPEAU?$_Tree_node@U?$pair@$$CBGUDataSetInfo@IPTC_Manager@@@std@@PEAX@1@AEAU?$pair@$$CBGUDataSetInfo@IPTC_Manager@@@1@@Z 0000000180060864 f i IPTC_Support.obj
 0001:0005f898       ??$_Insert_hint@AEAU?$pair@$$CBGUDataSetInfo@IPTC_Manager@@@std@@PEAU?$_Tree_node@U?$pair@$$CBGUDataSetInfo@IPTC_Manager@@@std@@PEAX@2@@?$_Tree@V?$_Tmap_traits@GUDataSetInfo@IPTC_Manager@@U?$less@G@std@@V?$allocator@U?$pair@$$CBGUDataSetInfo@IPTC_Manager@@@std@@@4@$00@std@@@std@@IEAA?AV?$_Tree_iterator@V?$_Tree_val@U?$_Tree_simple_types@U?$pair@$$CBGUDataSetInfo@IPTC_Manager@@@std@@@std@@@std@@@1@V?$_Tree_const_iterator@V?$_Tree_val@U?$_Tree_simple_types@U?$pair@$$CBGUDataSetInfo@IPTC_Manager@@@std@@@std@@@std@@@1@AEAU?$pair@$$CBGUDataSetInfo@IPTC_Manager@@@1@PEAU?$_Tree_node@U?$pair@$$CBGUDataSetInfo@IPTC_Manager@@@std@@PEAX@1@@Z 0000000180060898 f i IPTC_Support.obj
 0001:0005fac0       ?_Buynode0@?$_Tree_comp_alloc@V?$_Tmap_traits@GUDataSetInfo@IPTC_Manager@@U?$less@G@std@@V?$allocator@U?$pair@$$CBGUDataSetInfo@IPTC_Manager@@@std@@@4@$00@std@@@std@@QEAAPEAU?$_Tree_node@U?$pair@$$CBGUDataSetInfo@IPTC_Manager@@@std@@PEAX@2@XZ 0000000180060ac0 f i IPTC_Support.obj
 0001:0005fb08       ??$_Insert_at@AEAU?$pair@$$CBGUDataSetInfo@IPTC_Manager@@@std@@PEAU?$_Tree_node@U?$pair@$$CBGUDataSetInfo@IPTC_Manager@@@std@@PEAX@2@@?$_Tree@V?$_Tmap_traits@GUDataSetInfo@IPTC_Manager@@U?$less@G@std@@V?$allocator@U?$pair@$$CBGUDataSetInfo@IPTC_Manager@@@std@@@4@$00@std@@@std@@IEAA?AV?$_Tree_iterator@V?$_Tree_val@U?$_Tree_simple_types@U?$pair@$$CBGUDataSetInfo@IPTC_Manager@@@std@@@std@@@std@@@1@_NPEAU?$_Tree_node@U?$pair@$$CBGUDataSetInfo@IPTC_Manager@@@std@@PEAX@1@AEAU?$pair@$$CBGUDataSetInfo@IPTC_Manager@@@1@1@Z 0000000180060b08 f i IPTC_Support.obj
 0001:0005fd8c       ??$_Insert_nohint@AEAU?$pair@$$CBGUDataSetInfo@IPTC_Manager@@@std@@PEAU?$_Tree_node@U?$pair@$$CBGUDataSetInfo@IPTC_Manager@@@std@@PEAX@2@@?$_Tree@V?$_Tmap_traits@GUDataSetInfo@IPTC_Manager@@U?$less@G@std@@V?$allocator@U?$pair@$$CBGUDataSetInfo@IPTC_Manager@@@std@@@4@$00@std@@@std@@IEAA?AU?$pair@V?$_Tree_iterator@V?$_Tree_val@U?$_Tree_simple_types@U?$pair@$$CBGUDataSetInfo@IPTC_Manager@@@std@@@std@@@std@@@std@@_N@1@_NAEAU?$pair@$$CBGUDataSetInfo@IPTC_Manager@@@1@PEAU?$_Tree_node@U?$pair@$$CBGUDataSetInfo@IPTC_Manager@@@std@@PEAX@1@@Z 0000000180060d8c f i IPTC_Support.obj
 0001:0005fe10       ??1?$set@KU?$less@K@std@@V?$allocator@K@2@@std@@QEAA@XZ 0000000180060e10 f i ISOBaseMedia_Support.obj
 0001:0005fe48       ?IsKnownBoxType@ISOMedia@@YA_NK@Z 0000000180060e48 f   ISOBaseMedia_Support.obj
 0001:00060444       ?GetBoxInfo@ISOMedia@@YAPEBEPEBE0PEAUBoxInfo@1@_N@Z 0000000180061444 f   ISOBaseMedia_Support.obj
 0001:00060608       ?GetBoxInfo@ISOMedia@@YA_KPEAVXMP_IO@@_K1PEAUBoxInfo@1@_N3@Z 0000000180061608 f   ISOBaseMedia_Support.obj
 0001:0006082c       ?clear@?$_Tree@V?$_Tset_traits@KU?$less@K@std@@V?$allocator@K@2@$0A@@std@@@std@@QEAAXXZ 000000018006182c f i ISOBaseMedia_Support.obj
 0001:000608ac       ??1?$_Tree_comp_alloc@V?$_Tset_traits@KU?$less@K@std@@V?$allocator@K@2@$0A@@std@@@std@@QEAA@XZ 00000001800618ac f i ISOBaseMedia_Support.obj
 0001:000608c0       ?_Erase@?$_Tree@V?$_Tset_traits@KU?$less@K@std@@V?$allocator@K@2@$0A@@std@@@std@@IEAAXPEAU?$_Tree_node@KPEAX@2@@Z 00000001800618c0 f i ISOBaseMedia_Support.obj
 0001:00060918       ?_Buyheadnode@?$_Tree_comp_alloc@V?$_Tset_traits@KU?$less@K@std@@V?$allocator@K@2@$0A@@std@@@std@@QEAAPEAU?$_Tree_node@KPEAX@2@XZ 0000000180061918 f i ISOBaseMedia_Support.obj
 0001:00060954       ??$_Insert_nohint@AEBKU_Nil@std@@@?$_Tree@V?$_Tset_traits@KU?$less@K@std@@V?$allocator@K@2@$0A@@std@@@std@@IEAA?AU?$pair@V?$_Tree_const_iterator@V?$_Tree_val@U?$_Tree_simple_types@K@std@@@std@@@std@@_N@1@_NAEBKU_Nil@1@@Z 0000000180061954 f i XMPAtoms.obj
 0001:00060954       ??$_Insert_nohint@KU_Nil@std@@@?$_Tree@V?$_Tset_traits@KU?$less@K@std@@V?$allocator@K@2@$0A@@std@@@std@@IEAA?AU?$pair@V?$_Tree_const_iterator@V?$_Tree_val@U?$_Tree_simple_types@K@std@@@std@@@std@@_N@1@_N$$QEAKU_Nil@1@@Z 0000000180061954 f i ISOBaseMedia_Support.obj
 0001:00060a6c       ??$_Insert_at@KU_Nil@std@@@?$_Tree@V?$_Tset_traits@KU?$less@K@std@@V?$allocator@K@2@$0A@@std@@@std@@IEAA?AV?$_Tree_const_iterator@V?$_Tree_val@U?$_Tree_simple_types@K@std@@@std@@@1@_NPEAU?$_Tree_node@KPEAX@1@$$QEAKU_Nil@1@@Z 0000000180061a6c f i ISOBaseMedia_Support.obj
 0001:00060a6c       ??$_Insert_at@AEBKU_Nil@std@@@?$_Tree@V?$_Tset_traits@KU?$less@K@std@@V?$allocator@K@2@$0A@@std@@@std@@IEAA?AV?$_Tree_const_iterator@V?$_Tree_val@U?$_Tree_simple_types@K@std@@@std@@@1@_NPEAU?$_Tree_node@KPEAX@1@AEBKU_Nil@1@@Z 0000000180061a6c f i XMPAtoms.obj
 0001:00060cfc       ??$_Buynode@K@?$_Tree_comp_alloc@V?$_Tset_traits@KU?$less@K@std@@V?$allocator@K@2@$0A@@std@@@std@@QEAAPEAU?$_Tree_node@KPEAX@1@$$QEAK@Z 0000000180061cfc f i ISOBaseMedia_Support.obj
 0001:00060cfc       ??$_Buynode@AEAK@?$_Tree_comp_alloc@V?$_Tset_traits@KU?$less@K@std@@V?$allocator@K@2@$0A@@std@@@std@@QEAAPEAU?$_Tree_node@KPEAX@1@AEAK@Z 0000000180061cfc f i XMPAtoms.obj
 0001:00060cfc       ??$_Buynode@AEBK@?$_Tree_comp_alloc@V?$_Tset_traits@KU?$less@K@std@@V?$allocator@K@2@$0A@@std@@@std@@QEAAPEAU?$_Tree_node@KPEAX@1@AEBK@Z 0000000180061cfc f i XMPAtoms.obj
 0001:00060d24       ?_Buynode0@?$_Tree_comp_alloc@V?$_Tset_traits@KU?$less@K@std@@V?$allocator@K@2@$0A@@std@@@std@@QEAAPEAU?$_Tree_node@KPEAX@2@XZ 0000000180061d24 f i ISOBaseMedia_Support.obj
 0001:00060d6c       ?FillBoxInfo@MOOV_Manager@@AEBAXAEBUBoxNode@1@PEAUBoxInfo@1@@Z 0000000180061d6c f   MOOV_Support.obj
 0001:00060df8       ?GetBox@MOOV_Manager@@QEBAPEBXPEBDPEAUBoxInfo@1@@Z 0000000180061df8 f   MOOV_Support.obj
 0001:00060e9c       ?GetNthChild@MOOV_Manager@@QEBAPEBXPEBX_KPEAUBoxInfo@1@@Z 0000000180061e9c f   MOOV_Support.obj
 0001:00060f2c       ?GetTypeChild@MOOV_Manager@@QEBAPEBXPEBXKPEAUBoxInfo@1@@Z 0000000180061f2c f   MOOV_Support.obj
 0001:00060fdc       ?ParseMemoryTree@MOOV_Manager@@QEAAXE@Z 0000000180061fdc f   MOOV_Support.obj
 0001:0006119c       ?ParseNestedBoxes@MOOV_Manager@@AEAAXPEAUBoxNode@1@AEBV?$basic_string@DU?$char_traits@D@std@@V?$allocator@D@2@@std@@_N@Z 000000018006219c f   MOOV_Support.obj
 0001:00061444       ?SetBox@MOOV_Manager@@QEAAXPEBX0KPEBE@Z 0000000180062444 f   MOOV_Support.obj
 0001:00061558       ?SetBox@MOOV_Manager@@QEAAXPEBDPEBXKPEBE@Z 0000000180062558 f   MOOV_Support.obj
 0001:00061630       ?AddChildBox@MOOV_Manager@@QEAAPEBXPEBXK0KPEBE@Z 0000000180062630 f   MOOV_Support.obj
 0001:0006171c       ?DeleteNthChild@MOOV_Manager@@QEAA_NPEBX_K@Z 000000018006271c f   MOOV_Support.obj
 0001:00061770       ?DeleteTypeChild@MOOV_Manager@@QEAA_NPEBXK@Z 0000000180062770 f   MOOV_Support.obj
 0001:000617b0       ?NewSubtreeSize@MOOV_Manager@@AEAAKAEBUBoxNode@1@AEBV?$basic_string@DU?$char_traits@D@std@@V?$allocator@D@2@@std@@@Z 00000001800627b0 f   MOOV_Support.obj
 0001:000618fc       ?AppendNewSubtree@MOOV_Manager@@AEAAPEAEAEBUBoxNode@1@AEBV?$basic_string@DU?$char_traits@D@std@@V?$allocator@D@2@@std@@PEAE2@Z 00000001800628fc f   MOOV_Support.obj
 0001:00061b6c       ?UpdateMemoryTree@MOOV_Manager@@QEAAXXZ 0000000180062b6c f   MOOV_Support.obj
 0001:00061dac       ?erase@?$vector@UBoxNode@MOOV_Manager@@V?$allocator@UBoxNode@MOOV_Manager@@@std@@@std@@QEAA?AV?$_Vector_iterator@V?$_Vector_val@U?$_Simple_types@UBoxNode@MOOV_Manager@@@std@@@std@@@2@V?$_Vector_const_iterator@V?$_Vector_val@U?$_Simple_types@UBoxNode@MOOV_Manager@@@std@@@std@@@2@@Z 0000000180062dac f i MOOV_Support.obj
 0001:00061f28       ?push_back@?$vector@UBoxNode@MOOV_Manager@@V?$allocator@UBoxNode@MOOV_Manager@@@std@@@std@@QEAAX$$QEAUBoxNode@MOOV_Manager@@@Z 0000000180062f28 f i MOOV_Support.obj
 0001:00061fa8       ?_Reserve@?$vector@UBoxNode@MOOV_Manager@@V?$allocator@UBoxNode@MOOV_Manager@@@std@@@std@@IEAAX_K@Z 0000000180062fa8 f i MOOV_Support.obj
 0001:00062064       ?_Reallocate@?$vector@UBoxNode@MOOV_Manager@@V?$allocator@UBoxNode@MOOV_Manager@@@std@@@std@@IEAAX_K@Z 0000000180063064 f i MOOV_Support.obj
 0001:000621ac       ??$construct@UBoxNode@MOOV_Manager@@U12@@?$_Wrap_alloc@V?$allocator@UBoxNode@MOOV_Manager@@@std@@@std@@QEAAXPEAUBoxNode@MOOV_Manager@@$$QEAU23@@Z 00000001800631ac f i MOOV_Support.obj
 0001:00062244       ??$_Uninitialized_move_al_unchecked1@PEAUBoxNode@MOOV_Manager@@PEAU12@V?$allocator@UBoxNode@MOOV_Manager@@@std@@@std@@YAPEAUBoxNode@MOOV_Manager@@PEAU12@00AEAU?$_Wrap_alloc@V?$allocator@UBoxNode@MOOV_Manager@@@std@@@0@U_General_ptr_iterator_tag@0@U_Any_tag@0@@Z 0000000180063244 f i MOOV_Support.obj
 0001:0006227c       ?GetClipPath@P2_Clip@@QEAA?AV?$basic_string@DU?$char_traits@D@std@@V?$allocator@D@2@@std@@XZ 000000018006327c f i P2_Support.obj
 0001:000622b8       ??0P2_Clip@@QEAA@AEBV?$basic_string@DU?$char_traits@D@std@@V?$allocator@D@2@@std@@@Z 00000001800632b8 f   P2_Support.obj
 0001:00062408       ??1P2_Clip@@UEAA@XZ        0000000180063408 f   P2_Support.obj
 0001:000624b4       ??_EP2_Clip@@UEAAPEAXI@Z   00000001800634b4 f i * CIL library *:* CIL module *
 0001:000624b4       ??_GP2_Clip@@UEAAPEAXI@Z   00000001800634b4 f i P2_Support.obj
 0001:000624e8       ?CreateExpatParser@P2_Clip@@AEAAXAEAVXMPFiles_IO@@@Z 00000001800634e8 f   P2_Support.obj
 0001:000625b0       ?DestroyExpatParser@P2_Clip@@AEAAXXZ 00000001800635b0 f   P2_Support.obj
 0001:00062610       ?GetP2RootNode@P2_Clip@@QEAAPEAVXML_Node@@XZ 0000000180063610 f   P2_Support.obj
 0001:000626f0       ?CacheClipContent@P2_Clip@@AEAAXXZ 00000001800636f0 f   P2_Support.obj
 0001:00062980       ?GetClipName@P2_Clip@@QEAAPEAV?$basic_string@DU?$char_traits@D@std@@V?$allocator@D@2@@std@@XZ 0000000180063980 f   P2_Support.obj
 0001:00062a84       ?GetClipTitle@P2_Clip@@QEAA?AV?$basic_string@DU?$char_traits@D@std@@V?$allocator@D@2@@std@@XZ 0000000180063a84 f   P2_Support.obj
 0001:00062b0c       ?GetXMPFilePath@P2_Clip@@UEAA?AV?$basic_string@DU?$char_traits@D@std@@V?$allocator@D@2@@std@@XZ 0000000180063b0c f   P2_Support.obj
 0001:00062be4       ??_GP2_SpannedClip@@UEAAPEAXI@Z 0000000180063be4 f i P2_Support.obj
 0001:00062be4       ??_EP2_SpannedClip@@UEAAPEAXI@Z 0000000180063be4 f i * CIL library *:* CIL module *
 0001:00062c18       ??1?$set@V?$basic_string@DU?$char_traits@D@std@@V?$allocator@D@2@@std@@U?$less@V?$basic_string@DU?$char_traits@D@std@@V?$allocator@D@2@@std@@@2@V?$allocator@V?$basic_string@DU?$char_traits@D@std@@V?$allocator@D@2@@std@@@2@@std@@QEAA@XZ 0000000180063c18 f i P2_Support.obj
 0001:00062c7c       ??1?$multiset@PEAVP2_Clip@@UP2SpannedClip_Order@@V?$allocator@PEAVP2_Clip@@@std@@@std@@QEAA@XZ 0000000180063c7c f i P2_Support.obj
 0001:00062c84       ?IsComplete@P2_SpannedClip@@QEBA_NXZ 0000000180063c84 f   P2_Support.obj
 0001:00062f04       ?GetXMPFilePath@P2_SpannedClip@@UEAA?AV?$basic_string@DU?$char_traits@D@std@@V?$allocator@D@2@@std@@XZ 0000000180063f04 f   P2_Support.obj
 0001:0006300c       ?DigestElement@P2_SpannedClip@@AEAAXAEAUMD5_CTX@@PEAVXML_Node@@PEBD@Z 000000018006400c f   P2_Support.obj
 0001:000630a0       ?CreateDigest@P2_SpannedClip@@UEAAXPEAV?$basic_string@DU?$char_traits@D@std@@V?$allocator@D@2@@std@@@Z 00000001800640a0 f   P2_Support.obj
 0001:000636e4       ??1P2_SpannedClip@@UEAA@XZ 00000001800646e4 f   P2_Support.obj
 0001:00063934       ?GetDuration@P2_SpannedClip@@QEAAKXZ 0000000180064934 f   P2_Support.obj
 0001:000639dc       ?GetAllClipNames@P2_SpannedClip@@QEAAXAEAV?$vector@V?$basic_string@DU?$char_traits@D@std@@V?$allocator@D@2@@std@@V?$allocator@V?$basic_string@DU?$char_traits@D@std@@V?$allocator@D@2@@std@@@2@@std@@@Z 00000001800649dc f   P2_Support.obj
 0001:00063a90       ??1P2_Manager@@QEAA@XZ     0000000180064a90 f   P2_Support.obj
 0001:00063ab8       ?ProcessClip@P2_Manager@@QEAAXAEAV?$basic_string@DU?$char_traits@D@std@@V?$allocator@D@2@@std@@@Z 0000000180064ab8 f   P2_Support.obj
 0001:0006400c       ?GetManagedClip@P2_Manager@@QEAAPEAVP2_Clip@@XZ 000000018006500c f   P2_Support.obj
 0001:00064044       ??1?$_Tree@V?$_Tset_traits@PEAVP2_Clip@@UP2SpannedClip_Order@@V?$allocator@PEAVP2_Clip@@@std@@$00@std@@@std@@QEAA@XZ 0000000180065044 f i P2_Support.obj
 0001:000640d8       ?_Erase@?$_Tree@V?$_Tset_traits@PEAVP2_Clip@@UP2SpannedClip_Order@@V?$allocator@PEAVP2_Clip@@@std@@$00@std@@@std@@IEAAXPEAU?$_Tree_node@PEAVP2_Clip@@PEAX@2@@Z 00000001800650d8 f i P2_Support.obj
 0001:00064130       ?_Buyheadnode@?$_Tree_comp_alloc@V?$_Tset_traits@PEAVP2_Clip@@UP2SpannedClip_Order@@V?$allocator@PEAVP2_Clip@@@std@@$00@std@@@std@@QEAAPEAU?$_Tree_node@PEAVP2_Clip@@PEAX@2@XZ 0000000180065130 f i P2_Support.obj
 0001:0006416c       ?_Erase@?$_Tree@V?$_Tset_traits@V?$basic_string@DU?$char_traits@D@std@@V?$allocator@D@2@@std@@U?$less@V?$basic_string@DU?$char_traits@D@std@@V?$allocator@D@2@@std@@@2@V?$allocator@V?$basic_string@DU?$char_traits@D@std@@V?$allocator@D@2@@std@@@2@$0A@@std@@@std@@IEAAXPEAU?$_Tree_node@V?$basic_string@DU?$char_traits@D@std@@V?$allocator@D@2@@std@@PEAX@2@@Z 000000018006516c f i P2_Support.obj
 0001:00064210       ??$_Insert_nohint@AEBQEAVP2_Clip@@U_Nil@std@@@?$_Tree@V?$_Tset_traits@PEAVP2_Clip@@UP2SpannedClip_Order@@V?$allocator@PEAVP2_Clip@@@std@@$00@std@@@std@@IEAA?AU?$pair@V?$_Tree_const_iterator@V?$_Tree_val@U?$_Tree_simple_types@PEAVP2_Clip@@@std@@@std@@@std@@_N@1@_NAEBQEAVP2_Clip@@U_Nil@1@@Z 0000000180065210 f i P2_Support.obj
 0001:000642c8       ??$_Insert_nohint@AEBV?$basic_string@DU?$char_traits@D@std@@V?$allocator@D@2@@std@@U_Nil@2@@?$_Tree@V?$_Tset_traits@V?$basic_string@DU?$char_traits@D@std@@V?$allocator@D@2@@std@@U?$less@V?$basic_string@DU?$char_traits@D@std@@V?$allocator@D@2@@std@@@2@V?$allocator@V?$basic_string@DU?$char_traits@D@std@@V?$allocator@D@2@@std@@@2@$0A@@std@@@std@@IEAA?AU?$pair@V?$_Tree_const_iterator@V?$_Tree_val@U?$_Tree_simple_types@V?$basic_string@DU?$char_traits@D@std@@V?$allocator@D@2@@std@@@std@@@std@@@std@@_N@1@_NAEBV?$basic_string@DU?$char_traits@D@std@@V?$allocator@D@2@@1@U_Nil@1@@Z 00000001800652c8 f i P2_Support.obj
 0001:00064418       ??$_Insert_at@AEBQEAVP2_Clip@@U_Nil@std@@@?$_Tree@V?$_Tset_traits@PEAVP2_Clip@@UP2SpannedClip_Order@@V?$allocator@PEAVP2_Clip@@@std@@$00@std@@@std@@IEAA?AV?$_Tree_const_iterator@V?$_Tree_val@U?$_Tree_simple_types@PEAVP2_Clip@@@std@@@std@@@1@_NPEAU?$_Tree_node@PEAVP2_Clip@@PEAX@1@AEBQEAVP2_Clip@@U_Nil@1@@Z 0000000180065418 f i P2_Support.obj
 0001:000646a8       ??$_Insert_at@AEBV?$basic_string@DU?$char_traits@D@std@@V?$allocator@D@2@@std@@U_Nil@2@@?$_Tree@V?$_Tset_traits@V?$basic_string@DU?$char_traits@D@std@@V?$allocator@D@2@@std@@U?$less@V?$basic_string@DU?$char_traits@D@std@@V?$allocator@D@2@@std@@@2@V?$allocator@V?$basic_string@DU?$char_traits@D@std@@V?$allocator@D@2@@std@@@2@$0A@@std@@@std@@IEAA?AV?$_Tree_const_iterator@V?$_Tree_val@U?$_Tree_simple_types@V?$basic_string@DU?$char_traits@D@std@@V?$allocator@D@2@@std@@@std@@@std@@@1@_NPEAU?$_Tree_node@V?$basic_string@DU?$char_traits@D@std@@V?$allocator@D@2@@std@@PEAX@1@AEBV?$basic_string@DU?$char_traits@D@std@@V?$allocator@D@2@@1@U_Nil@1@@Z 00000001800656a8 f i P2_Support.obj
 0001:00064938       ??$_Buynode@AEBQEAVP2_Clip@@@?$_Tree_comp_alloc@V?$_Tset_traits@PEAVP2_Clip@@UP2SpannedClip_Order@@V?$allocator@PEAVP2_Clip@@@std@@$00@std@@@std@@QEAAPEAU?$_Tree_node@PEAVP2_Clip@@PEAX@1@AEBQEAVP2_Clip@@@Z 0000000180065938 f i P2_Support.obj
 0001:00064960       ??$_Buynode@AEBV?$basic_string@DU?$char_traits@D@std@@V?$allocator@D@2@@std@@@?$_Tree_comp_alloc@V?$_Tset_traits@V?$basic_string@DU?$char_traits@D@std@@V?$allocator@D@2@@std@@U?$less@V?$basic_string@DU?$char_traits@D@std@@V?$allocator@D@2@@std@@@2@V?$allocator@V?$basic_string@DU?$char_traits@D@std@@V?$allocator@D@2@@std@@@2@$0A@@std@@@std@@QEAAPEAU?$_Tree_node@V?$basic_string@DU?$char_traits@D@std@@V?$allocator@D@2@@std@@PEAX@1@AEBV?$basic_string@DU?$char_traits@D@std@@V?$allocator@D@2@@1@@Z 0000000180065960 f i P2_Support.obj
 0001:000649d8       ?_Buynode0@?$_Tree_comp_alloc@V?$_Tset_traits@PEAVP2_Clip@@UP2SpannedClip_Order@@V?$allocator@PEAVP2_Clip@@@std@@$00@std@@@std@@QEAAPEAU?$_Tree_node@PEAVP2_Clip@@PEAX@2@XZ 00000001800659d8 f i P2_Support.obj
 0001:00064a20       ?OpenPNG@PNG_Support@@YAJPEAVXMP_IO@@AEAVChunkState@1@@Z 0000000180065a20 f   PNG_Support.obj
 0001:00064a74       ?ReadChunk@PNG_Support@@YA_NPEAVXMP_IO@@AEAVChunkState@1@PEAJPEAKAEA_K@Z 0000000180065a74 f   PNG_Support.obj
 0001:00064bb0       ?WriteXMPChunk@PNG_Support@@YA_NPEAVXMP_IO@@KPEBD@Z 0000000180065bb0 f   PNG_Support.obj
 0001:00064cb0       ?CopyChunk@PNG_Support@@YA_NPEAVXMP_IO@@0AEAVChunkData@1@@Z 0000000180065cb0 f   PNG_Support.obj
 0001:00064d14       ?UpdateChunkCRC@PNG_Support@@YAKPEAVXMP_IO@@AEAVChunkData@1@@Z 0000000180065d14 f   PNG_Support.obj
 0001:00064de4       ?CheckiTXtChunkHeader@PNG_Support@@YAKPEAVXMP_IO@@AEAVChunkState@1@AEAVChunkData@1@@Z 0000000180065de4 f   PNG_Support.obj
 0001:00064ea8       ?ReadBuffer@PNG_Support@@YA_NPEAVXMP_IO@@AEA_KKPEAD@Z 0000000180065ea8 f   PNG_Support.obj
 0001:00064f14       ?CalculateCRC@PNG_Support@@YAKPEAEK@Z 0000000180065f14 f   PNG_Support.obj
 0001:00064fa8       ?push_back@?$vector@VChunkData@PNG_Support@@V?$allocator@VChunkData@PNG_Support@@@std@@@std@@QEAAXAEBVChunkData@PNG_Support@@@Z 0000000180065fa8 f i PNG_Support.obj
 0001:00065108       ?_Reallocate@?$vector@VChunkData@PNG_Support@@V?$allocator@VChunkData@PNG_Support@@@std@@@std@@IEAAX_K@Z 0000000180066108 f i PNG_Support.obj
 0001:00065210       ??$_Uninitialized_move_al_unchecked1@PEAVChunkData@PNG_Support@@PEAV12@V?$allocator@VChunkData@PNG_Support@@@std@@@std@@YAPEAVChunkData@PNG_Support@@PEAV12@00AEAU?$_Wrap_alloc@V?$allocator@VChunkData@PNG_Support@@@std@@@0@U_General_ptr_iterator_tag@0@U_Any_tag@0@@Z 0000000180066210 f i PNG_Support.obj
 0001:0006525c       ?DeleteExistingInfo@PSIR_FileWriter@@AEAAXXZ 000000018006625c f   PSIR_FileWriter.obj
 0001:00065334       ??1PSIR_FileWriter@@UEAA@XZ 0000000180066334 f   PSIR_FileWriter.obj
 0001:000653d8       ?GetImgRsrc@PSIR_FileWriter@@UEBA_NGPEAUImgRsrcInfo@PSIR_Manager@@@Z 00000001800663d8 f   PSIR_FileWriter.obj
 0001:0006543c       ?SetImgRsrc@PSIR_FileWriter@@UEAAXGPEBXK@Z 000000018006643c f   PSIR_FileWriter.obj
 0001:000655ec       ?DeleteImgRsrc@PSIR_FileWriter@@UEAAXG@Z 00000001800665ec f   PSIR_FileWriter.obj
 0001:00065668       ?IsLegacyChanged@PSIR_FileWriter@@UEAA_NXZ 0000000180066668 f   PSIR_FileWriter.obj
 0001:000656d8       ?ParseMemoryResources@PSIR_FileWriter@@UEAAXPEBXK_N@Z 00000001800666d8 f   PSIR_FileWriter.obj
 0001:000659e4       ?ParseFileResources@PSIR_FileWriter@@UEAAXPEAVXMP_IO@@K@Z 00000001800669e4 f   PSIR_FileWriter.obj
 0001:00065f34       ?UpdateMemoryResources@PSIR_FileWriter@@UEAAKPEAPEAX@Z 0000000180066f34 f   PSIR_FileWriter.obj
 0001:00066280       ?UpdateFileResources@PSIR_FileWriter@@UEAAKPEAVXMP_IO@@0P6A_NPEAX@Z1PEAVXMP_ProgressTracker@@@Z 0000000180067280 f   PSIR_FileWriter.obj
 0001:000665a4       ?push_back@?$vector@UOtherRsrcInfo@PSIR_FileWriter@@V?$allocator@UOtherRsrcInfo@PSIR_FileWriter@@@std@@@std@@QEAAX$$QEAUOtherRsrcInfo@PSIR_FileWriter@@@Z 00000001800675a4 f i PSIR_FileWriter.obj
 0001:000666f0       ?erase@?$_Tree@V?$_Tmap_traits@GUInternalRsrcInfo@PSIR_FileWriter@@U?$less@G@std@@V?$allocator@U?$pair@$$CBGUInternalRsrcInfo@PSIR_FileWriter@@@std@@@4@$0A@@std@@@std@@QEAA_KAEBG@Z 00000001800676f0 f i PSIR_FileWriter.obj
 0001:000667e0       ?_Reallocate@?$vector@UOtherRsrcInfo@PSIR_FileWriter@@V?$allocator@UOtherRsrcInfo@PSIR_FileWriter@@@std@@@std@@IEAAX_K@Z 00000001800677e0 f i PSIR_FileWriter.obj
 0001:000668b8       ??$_Insert_hint@U?$pair@$$CBGUInternalRsrcInfo@PSIR_FileWriter@@@std@@U_Nil@2@@?$_Tree@V?$_Tmap_traits@GUInternalRsrcInfo@PSIR_FileWriter@@U?$less@G@std@@V?$allocator@U?$pair@$$CBGUInternalRsrcInfo@PSIR_FileWriter@@@std@@@4@$0A@@std@@@std@@IEAA?AV?$_Tree_iterator@V?$_Tree_val@U?$_Tree_simple_types@U?$pair@$$CBGUInternalRsrcInfo@PSIR_FileWriter@@@std@@@std@@@std@@@1@V?$_Tree_const_iterator@V?$_Tree_val@U?$_Tree_simple_types@U?$pair@$$CBGUInternalRsrcInfo@PSIR_FileWriter@@@std@@@std@@@std@@@1@$$QEAU?$pair@$$CBGUInternalRsrcInfo@PSIR_FileWriter@@@1@U_Nil@1@@Z 00000001800678b8 f i PSIR_FileWriter.obj
 0001:00066ae8       ??$_Insert_at@U?$pair@$$CBGUInternalRsrcInfo@PSIR_FileWriter@@@std@@U_Nil@2@@?$_Tree@V?$_Tmap_traits@GUInternalRsrcInfo@PSIR_FileWriter@@U?$less@G@std@@V?$allocator@U?$pair@$$CBGUInternalRsrcInfo@PSIR_FileWriter@@@std@@@4@$0A@@std@@@std@@IEAA?AV?$_Tree_iterator@V?$_Tree_val@U?$_Tree_simple_types@U?$pair@$$CBGUInternalRsrcInfo@PSIR_FileWriter@@@std@@@std@@@std@@@1@_NPEAU?$_Tree_node@U?$pair@$$CBGUInternalRsrcInfo@PSIR_FileWriter@@@std@@PEAX@1@$$QEAU?$pair@$$CBGUInternalRsrcInfo@PSIR_FileWriter@@@1@U_Nil@1@@Z 0000000180067ae8 f i PSIR_FileWriter.obj
 0001:00066d78       ??$_Insert_nohint@U?$pair@$$CBGUInternalRsrcInfo@PSIR_FileWriter@@@std@@U_Nil@2@@?$_Tree@V?$_Tmap_traits@GUInternalRsrcInfo@PSIR_FileWriter@@U?$less@G@std@@V?$allocator@U?$pair@$$CBGUInternalRsrcInfo@PSIR_FileWriter@@@std@@@4@$0A@@std@@@std@@IEAA?AU?$pair@V?$_Tree_iterator@V?$_Tree_val@U?$_Tree_simple_types@U?$pair@$$CBGUInternalRsrcInfo@PSIR_FileWriter@@@std@@@std@@@std@@@std@@_N@1@_N$$QEAU?$pair@$$CBGUInternalRsrcInfo@PSIR_FileWriter@@@1@U_Nil@1@@Z 0000000180067d78 f i PSIR_FileWriter.obj
 0001:00066e94       ??$_Buynode@AEAU?$pair@$$CBGUInternalRsrcInfo@PSIR_FileWriter@@@std@@@?$_Tree_comp_alloc@V?$_Tmap_traits@GUInternalRsrcInfo@PSIR_FileWriter@@U?$less@G@std@@V?$allocator@U?$pair@$$CBGUInternalRsrcInfo@PSIR_FileWriter@@@std@@@4@$0A@@std@@@std@@QEAAPEAU?$_Tree_node@U?$pair@$$CBGUInternalRsrcInfo@PSIR_FileWriter@@@std@@PEAX@1@AEAU?$pair@$$CBGUInternalRsrcInfo@PSIR_FileWriter@@@1@@Z 0000000180067e94 f i PSIR_FileWriter.obj
 0001:00066e94       ??$_Buynode@U?$pair@$$CBGUInternalRsrcInfo@PSIR_FileWriter@@@std@@@?$_Tree_comp_alloc@V?$_Tmap_traits@GUInternalRsrcInfo@PSIR_FileWriter@@U?$less@G@std@@V?$allocator@U?$pair@$$CBGUInternalRsrcInfo@PSIR_FileWriter@@@std@@@4@$0A@@std@@@std@@QEAAPEAU?$_Tree_node@U?$pair@$$CBGUInternalRsrcInfo@PSIR_FileWriter@@@std@@PEAX@1@$$QEAU?$pair@$$CBGUInternalRsrcInfo@PSIR_FileWriter@@@1@@Z 0000000180067e94 f i PSIR_FileWriter.obj
 0001:00066ed0       ??$_Insert_hint@AEAU?$pair@$$CBGUInternalRsrcInfo@PSIR_FileWriter@@@std@@PEAU?$_Tree_node@U?$pair@$$CBGUInternalRsrcInfo@PSIR_FileWriter@@@std@@PEAX@2@@?$_Tree@V?$_Tmap_traits@GUInternalRsrcInfo@PSIR_FileWriter@@U?$less@G@std@@V?$allocator@U?$pair@$$CBGUInternalRsrcInfo@PSIR_FileWriter@@@std@@@4@$0A@@std@@@std@@IEAA?AV?$_Tree_iterator@V?$_Tree_val@U?$_Tree_simple_types@U?$pair@$$CBGUInternalRsrcInfo@PSIR_FileWriter@@@std@@@std@@@std@@@1@V?$_Tree_const_iterator@V?$_Tree_val@U?$_Tree_simple_types@U?$pair@$$CBGUInternalRsrcInfo@PSIR_FileWriter@@@std@@@std@@@std@@@1@AEAU?$pair@$$CBGUInternalRsrcInfo@PSIR_FileWriter@@@1@PEAU?$_Tree_node@U?$pair@$$CBGUInternalRsrcInfo@PSIR_FileWriter@@@std@@PEAX@1@@Z 0000000180067ed0 f i PSIR_FileWriter.obj
 0001:000670f4       ??$_Insert_at@AEAU?$pair@$$CBGUInternalRsrcInfo@PSIR_FileWriter@@@std@@PEAU?$_Tree_node@U?$pair@$$CBGUInternalRsrcInfo@PSIR_FileWriter@@@std@@PEAX@2@@?$_Tree@V?$_Tmap_traits@GUInternalRsrcInfo@PSIR_FileWriter@@U?$less@G@std@@V?$allocator@U?$pair@$$CBGUInternalRsrcInfo@PSIR_FileWriter@@@std@@@4@$0A@@std@@@std@@IEAA?AV?$_Tree_iterator@V?$_Tree_val@U?$_Tree_simple_types@U?$pair@$$CBGUInternalRsrcInfo@PSIR_FileWriter@@@std@@@std@@@std@@@1@_NPEAU?$_Tree_node@U?$pair@$$CBGUInternalRsrcInfo@PSIR_FileWriter@@@std@@PEAX@1@AEAU?$pair@$$CBGUInternalRsrcInfo@PSIR_FileWriter@@@1@1@Z 00000001800680f4 f i PSIR_FileWriter.obj
 0001:000673ac       ??$_Insert_nohint@AEAU?$pair@$$CBGUInternalRsrcInfo@PSIR_FileWriter@@@std@@PEAU?$_Tree_node@U?$pair@$$CBGUInternalRsrcInfo@PSIR_FileWriter@@@std@@PEAX@2@@?$_Tree@V?$_Tmap_traits@GUInternalRsrcInfo@PSIR_FileWriter@@U?$less@G@std@@V?$allocator@U?$pair@$$CBGUInternalRsrcInfo@PSIR_FileWriter@@@std@@@4@$0A@@std@@@std@@IEAA?AU?$pair@V?$_Tree_iterator@V?$_Tree_val@U?$_Tree_simple_types@U?$pair@$$CBGUInternalRsrcInfo@PSIR_FileWriter@@@std@@@std@@@std@@@std@@_N@1@_NAEAU?$pair@$$CBGUInternalRsrcInfo@PSIR_FileWriter@@@1@PEAU?$_Tree_node@U?$pair@$$CBGUInternalRsrcInfo@PSIR_FileWriter@@@std@@PEAX@1@@Z 00000001800683ac f i PSIR_FileWriter.obj
 0001:00067524       ??$_Uninitialized_move_al_unchecked1@PEAUOtherRsrcInfo@PSIR_FileWriter@@PEAU12@V?$allocator@UOtherRsrcInfo@PSIR_FileWriter@@@std@@@std@@YAPEAUOtherRsrcInfo@PSIR_FileWriter@@PEAU12@00AEAU?$_Wrap_alloc@V?$allocator@UOtherRsrcInfo@PSIR_FileWriter@@@std@@@0@U_General_ptr_iterator_tag@0@U_Any_tag@0@@Z 0000000180068524 f i PSIR_FileWriter.obj
 0001:00067564       ?GetImgRsrc@PSIR_MemoryReader@@UEBA_NGPEAUImgRsrcInfo@PSIR_Manager@@@Z 0000000180068564 f   PSIR_MemoryReader.obj
 0001:000675bc       ?ParseMemoryResources@PSIR_MemoryReader@@UEAAXPEBXK_N@Z 00000001800685bc f   PSIR_MemoryReader.obj
 0001:00067858       ??$_Insert_hint@U?$pair@$$CBGUImgRsrcInfo@PSIR_Manager@@@std@@U_Nil@2@@?$_Tree@V?$_Tmap_traits@GUImgRsrcInfo@PSIR_Manager@@U?$less@G@std@@V?$allocator@U?$pair@$$CBGUImgRsrcInfo@PSIR_Manager@@@std@@@4@$0A@@std@@@std@@IEAA?AV?$_Tree_iterator@V?$_Tree_val@U?$_Tree_simple_types@U?$pair@$$CBGUImgRsrcInfo@PSIR_Manager@@@std@@@std@@@std@@@1@V?$_Tree_const_iterator@V?$_Tree_val@U?$_Tree_simple_types@U?$pair@$$CBGUImgRsrcInfo@PSIR_Manager@@@std@@@std@@@std@@@1@$$QEAU?$pair@$$CBGUImgRsrcInfo@PSIR_Manager@@@1@U_Nil@1@@Z 0000000180068858 f i PSIR_MemoryReader.obj
 0001:00067a88       ??$_Insert_at@U?$pair@$$CBGUImgRsrcInfo@PSIR_Manager@@@std@@U_Nil@2@@?$_Tree@V?$_Tmap_traits@GUImgRsrcInfo@PSIR_Manager@@U?$less@G@std@@V?$allocator@U?$pair@$$CBGUImgRsrcInfo@PSIR_Manager@@@std@@@4@$0A@@std@@@std@@IEAA?AV?$_Tree_iterator@V?$_Tree_val@U?$_Tree_simple_types@U?$pair@$$CBGUImgRsrcInfo@PSIR_Manager@@@std@@@std@@@std@@@1@_NPEAU?$_Tree_node@U?$pair@$$CBGUImgRsrcInfo@PSIR_Manager@@@std@@PEAX@1@$$QEAU?$pair@$$CBGUImgRsrcInfo@PSIR_Manager@@@1@U_Nil@1@@Z 0000000180068a88 f i PSIR_MemoryReader.obj
 0001:00067d18       ??$_Insert_nohint@U?$pair@$$CBGUImgRsrcInfo@PSIR_Manager@@@std@@U_Nil@2@@?$_Tree@V?$_Tmap_traits@GUImgRsrcInfo@PSIR_Manager@@U?$less@G@std@@V?$allocator@U?$pair@$$CBGUImgRsrcInfo@PSIR_Manager@@@std@@@4@$0A@@std@@@std@@IEAA?AU?$pair@V?$_Tree_iterator@V?$_Tree_val@U?$_Tree_simple_types@U?$pair@$$CBGUImgRsrcInfo@PSIR_Manager@@@std@@@std@@@std@@@std@@_N@1@_N$$QEAU?$pair@$$CBGUImgRsrcInfo@PSIR_Manager@@@1@U_Nil@1@@Z 0000000180068d18 f i PSIR_MemoryReader.obj
 0001:00067e34       ??$_Buynode@U?$pair@$$CBGUImgRsrcInfo@PSIR_Manager@@@std@@@?$_Tree_comp_alloc@V?$_Tmap_traits@GUImgRsrcInfo@PSIR_Manager@@U?$less@G@std@@V?$allocator@U?$pair@$$CBGUImgRsrcInfo@PSIR_Manager@@@std@@@4@$0A@@std@@@std@@QEAAPEAU?$_Tree_node@U?$pair@$$CBGUImgRsrcInfo@PSIR_Manager@@@std@@PEAX@1@$$QEAU?$pair@$$CBGUImgRsrcInfo@PSIR_Manager@@@1@@Z 0000000180068e34 f i PSIR_MemoryReader.obj
 0001:00067e64       ?AddResourceIfExists@PackageFormat_Support@@YA_NPEAV?$vector@V?$basic_string@DU?$char_traits@D@std@@V?$allocator@D@2@@std@@V?$allocator@V?$basic_string@DU?$char_traits@D@std@@V?$allocator@D@2@@std@@@2@@std@@AEBV?$basic_string@DU?$char_traits@D@std@@V?$allocator@D@2@@3@@Z 0000000180068e64 f   PackageFormat_Support.obj
 0001:00067ea8       ?AddResourceIfExists@PackageFormat_Support@@YA_NPEAV?$vector@V?$basic_string@DU?$char_traits@D@std@@V?$allocator@D@2@@std@@V?$allocator@V?$basic_string@DU?$char_traits@D@std@@V?$allocator@D@2@@std@@@2@@std@@AEBV?$basic_string@DU?$char_traits@D@std@@V?$allocator@D@2@@3@PEBD2@Z 0000000180068ea8 f   PackageFormat_Support.obj
 0001:000680c8       ??0DateTimeTokens@PostScript_Support@@QEAA@V?$basic_string@DU?$char_traits@D@std@@V?$allocator@D@2@@std@@FD@Z 00000001800690c8 f i PostScript_Support.obj
 0001:00068184       ?SkipTabsAndSpaces@PostScript_Support@@YA_NPEAVXMP_IO@@AEAUIOBuffer@@@Z 0000000180069184 f   PostScript_Support.obj
 0001:000681d4       ?SkipUntilNewline@PostScript_Support@@YA_NPEAVXMP_IO@@AEAUIOBuffer@@@Z 00000001800691d4 f   PostScript_Support.obj
 0001:00068240       ?RevRefillBuffer@PostScript_Support@@YAXPEAVXMP_IO@@PEAUIOBuffer@@@Z 0000000180069240 f   PostScript_Support.obj
 0001:00068340       ?RevCheckFileSpace@PostScript_Support@@YA_NPEAVXMP_IO@@PEAUIOBuffer@@_K@Z 0000000180069340 f   PostScript_Support.obj
 0001:00068554       ?IsValidPSFile@PostScript_Support@@YA_NPEAVXMP_IO@@AEAK@Z 0000000180069554 f   PostScript_Support.obj
 0001:00068c20       ?IsSFDFilterUsed@PostScript_Support@@YA_NAEAPEAVXMP_IO@@_J@Z 0000000180069c20 f   PostScript_Support.obj
 0001:00069974       ?ConvertToDate@PostScript_Support@@YA?AV?$basic_string@DU?$char_traits@D@std@@V?$allocator@D@2@@std@@PEBD@Z 000000018006a974 f   PostScript_Support.obj
 0001:0006a828       ?push_back@?$vector@UDateTimeTokens@PostScript_Support@@V?$allocator@UDateTimeTokens@PostScript_Support@@@std@@@std@@QEAAXAEBUDateTimeTokens@PostScript_Support@@@Z 000000018006b828 f i PostScript_Support.obj
 0001:0006a960       ??1?$vector@UDateTimeTokens@PostScript_Support@@V?$allocator@UDateTimeTokens@PostScript_Support@@@std@@@std@@QEAA@XZ 000000018006b960 f i PostScript_Support.obj
 0001:0006aa24       ?_Reserve@?$vector@UDateTimeTokens@PostScript_Support@@V?$allocator@UDateTimeTokens@PostScript_Support@@@std@@@std@@IEAAX_K@Z 000000018006ba24 f i PostScript_Support.obj
 0001:0006aae0       ?_Reallocate@?$vector@UDateTimeTokens@PostScript_Support@@V?$allocator@UDateTimeTokens@PostScript_Support@@@std@@@std@@IEAAX_K@Z 000000018006bae0 f i PostScript_Support.obj
 0001:0006ac54       ??$_Uninitialized_move_al_unchecked1@PEAUDateTimeTokens@PostScript_Support@@PEAU12@V?$allocator@UDateTimeTokens@PostScript_Support@@@std@@@std@@YAPEAUDateTimeTokens@PostScript_Support@@PEAU12@00AEAU?$_Wrap_alloc@V?$allocator@UDateTimeTokens@PostScript_Support@@@std@@@0@U_General_ptr_iterator_tag@0@U_Any_tag@0@@Z 000000018006bc54 f i PostScript_Support.obj
 0001:0006ada4       ?ConvertToMacLang@@YA_NAEBV?$basic_string@DU?$char_traits@D@std@@V?$allocator@D@2@@std@@GPEAV12@@Z 000000018006bda4 f   QuickTime_Support.obj
 0001:0006ae1c       ?ConvertFromMacLang@@YA_NAEBV?$basic_string@DU?$char_traits@D@std@@V?$allocator@D@2@@std@@GPEAV12@@Z 000000018006be1c f   QuickTime_Support.obj
 0001:0006ae8c       ?ParseCachedBoxes@TradQT_Manager@@QEAA_NAEBVMOOV_Manager@@@Z 000000018006be8c f   QuickTime_Support.obj
 0001:0006b154       ?ImportSimpleXMP@TradQT_Manager@@QEBA_NKPEAV?$TXMPMeta@V?$basic_string@DU?$char_traits@D@std@@V?$allocator@D@2@@std@@@@PEBD1@Z 000000018006c154 f   QuickTime_Support.obj
 0001:0006b4a4       ?ExportSimpleXMP@TradQT_Manager@@QEAAXKAEBV?$TXMPMeta@V?$basic_string@DU?$char_traits@D@std@@V?$allocator@D@2@@std@@@@PEBD1_N@Z 000000018006c4a4 f   QuickTime_Support.obj
 0001:0006b71c       ?UpdateChangedBoxes@TradQT_Manager@@QEAAXPEAVMOOV_Manager@@@Z 000000018006c71c f   QuickTime_Support.obj
 0001:0006bb10       ?push_back@?$vector@UValueInfo@TradQT_Manager@@V?$allocator@UValueInfo@TradQT_Manager@@@std@@@std@@QEAAX$$QEAUValueInfo@TradQT_Manager@@@Z 000000018006cb10 f i QuickTime_Support.obj
 0001:0006bbd0       ?_Reserve@?$vector@UValueInfo@TradQT_Manager@@V?$allocator@UValueInfo@TradQT_Manager@@@std@@@std@@IEAAX_K@Z 000000018006cbd0 f i QuickTime_Support.obj
 0001:0006bc8c       ?_Reallocate@?$vector@UValueInfo@TradQT_Manager@@V?$allocator@UValueInfo@TradQT_Manager@@@std@@@std@@IEAAX_K@Z 000000018006cc8c f i QuickTime_Support.obj
 0001:0006be10       ??$_Insert_hint@U?$pair@$$CBKUParsedBoxInfo@TradQT_Manager@@@std@@U_Nil@2@@?$_Tree@V?$_Tmap_traits@KUParsedBoxInfo@TradQT_Manager@@U?$less@K@std@@V?$allocator@U?$pair@$$CBKUParsedBoxInfo@TradQT_Manager@@@std@@@4@$0A@@std@@@std@@IEAA?AV?$_Tree_iterator@V?$_Tree_val@U?$_Tree_simple_types@U?$pair@$$CBKUParsedBoxInfo@TradQT_Manager@@@std@@@std@@@std@@@1@V?$_Tree_const_iterator@V?$_Tree_val@U?$_Tree_simple_types@U?$pair@$$CBKUParsedBoxInfo@TradQT_Manager@@@std@@@std@@@std@@@1@$$QEAU?$pair@$$CBKUParsedBoxInfo@TradQT_Manager@@@1@U_Nil@1@@Z 000000018006ce10 f i QuickTime_Support.obj
 0001:0006c038       ??$_Insert_at@U?$pair@$$CBKUParsedBoxInfo@TradQT_Manager@@@std@@U_Nil@2@@?$_Tree@V?$_Tmap_traits@KUParsedBoxInfo@TradQT_Manager@@U?$less@K@std@@V?$allocator@U?$pair@$$CBKUParsedBoxInfo@TradQT_Manager@@@std@@@4@$0A@@std@@@std@@IEAA?AV?$_Tree_iterator@V?$_Tree_val@U?$_Tree_simple_types@U?$pair@$$CBKUParsedBoxInfo@TradQT_Manager@@@std@@@std@@@std@@@1@_NPEAU?$_Tree_node@U?$pair@$$CBKUParsedBoxInfo@TradQT_Manager@@@std@@PEAX@1@$$QEAU?$pair@$$CBKUParsedBoxInfo@TradQT_Manager@@@1@U_Nil@1@@Z 000000018006d038 f i QuickTime_Support.obj
 0001:0006c2c8       ??$_Insert_nohint@U?$pair@$$CBKUParsedBoxInfo@TradQT_Manager@@@std@@U_Nil@2@@?$_Tree@V?$_Tmap_traits@KUParsedBoxInfo@TradQT_Manager@@U?$less@K@std@@V?$allocator@U?$pair@$$CBKUParsedBoxInfo@TradQT_Manager@@@std@@@4@$0A@@std@@@std@@IEAA?AU?$pair@V?$_Tree_iterator@V?$_Tree_val@U?$_Tree_simple_types@U?$pair@$$CBKUParsedBoxInfo@TradQT_Manager@@@std@@@std@@@std@@@std@@_N@1@_N$$QEAU?$pair@$$CBKUParsedBoxInfo@TradQT_Manager@@@1@U_Nil@1@@Z 000000018006d2c8 f i QuickTime_Support.obj
 0001:0006c3e0       ??$_Buynode@U?$pair@$$CBKUParsedBoxInfo@TradQT_Manager@@@std@@@?$_Tree_comp_alloc@V?$_Tmap_traits@KUParsedBoxInfo@TradQT_Manager@@U?$less@K@std@@V?$allocator@U?$pair@$$CBKUParsedBoxInfo@TradQT_Manager@@@std@@@4@$0A@@std@@@std@@QEAAPEAU?$_Tree_node@U?$pair@$$CBKUParsedBoxInfo@TradQT_Manager@@@std@@PEAX@1@$$QEAU?$pair@$$CBKUParsedBoxInfo@TradQT_Manager@@@1@@Z 000000018006d3e0 f i QuickTime_Support.obj
 0001:0006c44c       ??$_Uninitialized_move_al_unchecked1@PEAUValueInfo@TradQT_Manager@@PEAU12@V?$allocator@UValueInfo@TradQT_Manager@@@std@@@std@@YAPEAUValueInfo@TradQT_Manager@@PEAU12@00AEAU?$_Wrap_alloc@V?$allocator@UValueInfo@TradQT_Manager@@@std@@@0@U_General_ptr_iterator_tag@0@U_Any_tag@0@@Z 000000018006d44c f i QuickTime_Support.obj
 0001:0006c4c0       ?_Buynode0@?$_Tree_comp_alloc@V?$_Tmap_traits@KUParsedBoxInfo@TradQT_Manager@@U?$less@K@std@@V?$allocator@U?$pair@$$CBKUParsedBoxInfo@TradQT_Manager@@@std@@@4@$0A@@std@@@std@@QEAAPEAU?$_Tree_node@U?$pair@$$CBKUParsedBoxInfo@TradQT_Manager@@@std@@PEAX@2@XZ 000000018006d4c0 f i QuickTime_Support.obj
 0001:0006c4c0       ?_Buynode0@?$_Tree_comp_alloc@V?$_Tmap_traits@GVInternalTagInfo@TIFF_FileWriter@@U?$less@G@std@@V?$allocator@U?$pair@$$CBGVInternalTagInfo@TIFF_FileWriter@@@std@@@4@$0A@@std@@@std@@QEAAPEAU?$_Tree_node@U?$pair@$$CBGVInternalTagInfo@TIFF_FileWriter@@@std@@PEAX@2@XZ 000000018006d4c0 f i TIFF_FileWriter.obj
 0001:0006c508       ?getChunk@RIFF@@YAPEAVChunk@1@PEAVContainerChunk@1@PEAVRIFF_MetaHandler@@@Z 000000018006d508 f   RIFF.obj
 0001:0006c990       ??0Chunk@RIFF@@QEAA@PEAVContainerChunk@1@W4ChunkType@1@K@Z 000000018006d990 f   RIFF.obj
 0001:0006ca94       ??_GChunk@RIFF@@UEAAPEAXI@Z 000000018006da94 f i RIFF.obj
 0001:0006ca94       ??_EXMPChunk@RIFF@@UEAAPEAXI@Z 000000018006da94 f i * CIL library *:* CIL module *
 0001:0006ca94       ??_GXMPChunk@RIFF@@UEAAPEAXI@Z 000000018006da94 f i RIFF.obj
 0001:0006ca94       ??_EChunk@RIFF@@UEAAPEAXI@Z 000000018006da94 f i * CIL library *:* CIL module *
 0001:0006ca94       ??_GJunkChunk@RIFF@@UEAAPEAXI@Z 000000018006da94 f i RIFF.obj
 0001:0006ca94       ??_EJunkChunk@RIFF@@UEAAPEAXI@Z 000000018006da94 f i * CIL library *:* CIL module *
 0001:0006cac0       ??0Chunk@RIFF@@QEAA@PEAVContainerChunk@1@PEAVRIFF_MetaHandler@@_NW4ChunkType@1@@Z 000000018006dac0 f   RIFF.obj
 0001:0006ccc4       ?changesAndSize@Chunk@RIFF@@UEAAXPEAVRIFF_MetaHandler@@@Z 000000018006dcc4 f   RIFF.obj
 0001:0006ccd4       ?toString@Chunk@RIFF@@UEAA?AV?$basic_string@DU?$char_traits@D@std@@V?$allocator@D@2@@std@@E@Z 000000018006dcd4 f   RIFF.obj
 0001:0006cd88       ?write@Chunk@RIFF@@UEAAXPEAVRIFF_MetaHandler@@PEAVXMP_IO@@_N@Z 000000018006dd88 f   RIFF.obj
 0001:0006cdc8       ??1Chunk@RIFF@@UEAA@XZ     000000018006ddc8 f   RIFF.obj
 0001:0006cdd4       ??_EContainerChunk@RIFF@@UEAAPEAXI@Z 000000018006ddd4 f i * CIL library *:* CIL module *
 0001:0006cdd4       ??_GContainerChunk@RIFF@@UEAAPEAXI@Z 000000018006ddd4 f i RIFF.obj
 0001:0006ce80       ??0ContainerChunk@RIFF@@QEAA@PEAV01@PEAVRIFF_MetaHandler@@@Z 000000018006de80 f   RIFF.obj
 0001:0006d270       ?changesAndSize@ContainerChunk@RIFF@@UEAAXPEAVRIFF_MetaHandler@@@Z 000000018006e270 f   RIFF.obj
 0001:0006d9e0       ?toString@ContainerChunk@RIFF@@UEAA?AV?$basic_string@DU?$char_traits@D@std@@V?$allocator@D@2@@std@@E@Z 000000018006e9e0 f   RIFF.obj
 0001:0006dd48       ?write@ContainerChunk@RIFF@@UEAAXPEAVRIFF_MetaHandler@@PEAVXMP_IO@@_N@Z 000000018006ed48 f   RIFF.obj
 0001:0006df54       ??0XMPChunk@RIFF@@QEAA@PEAVContainerChunk@1@PEAVRIFF_MetaHandler@@@Z 000000018006ef54 f   RIFF.obj
 0001:0006e03c       ?changesAndSize@XMPChunk@RIFF@@UEAAXPEAVRIFF_MetaHandler@@@Z 000000018006f03c f   RIFF.obj
 0001:0006e0ec       ?write@XMPChunk@RIFF@@UEAAXPEAVRIFF_MetaHandler@@PEAVXMP_IO@@_N@Z 000000018006f0ec f   RIFF.obj
 0001:0006e16c       ??0ValueChunk@RIFF@@QEAA@PEAVContainerChunk@1@V?$basic_string@DU?$char_traits@D@std@@V?$allocator@D@2@@std@@K@Z 000000018006f16c f   RIFF.obj
 0001:0006e2ac       ??_EValueChunk@RIFF@@UEAAPEAXI@Z 000000018006f2ac f i * CIL library *:* CIL module *
 0001:0006e2ac       ??_GValueChunk@RIFF@@UEAAPEAXI@Z 000000018006f2ac f i RIFF.obj
 0001:0006e370       ??0ValueChunk@RIFF@@QEAA@PEAVContainerChunk@1@PEAVRIFF_MetaHandler@@@Z 000000018006f370 f   RIFF.obj
 0001:0006e4a8       ?SetValue@ValueChunk@RIFF@@QEAAXV?$basic_string@DU?$char_traits@D@std@@V?$allocator@D@2@@std@@_N@Z 000000018006f4a8 f   RIFF.obj
 0001:0006e564       ?changesAndSize@ValueChunk@RIFF@@UEAAXPEAVRIFF_MetaHandler@@@Z 000000018006f564 f   RIFF.obj
 0001:0006e5b0       ?write@ValueChunk@RIFF@@UEAAXPEAVRIFF_MetaHandler@@PEAVXMP_IO@@_N@Z 000000018006f5b0 f   RIFF.obj
 0001:0006e624       ?removeValue@ContainerChunk@RIFF@@QEAA_NK@Z 000000018006f624 f   RIFF.obj
 0001:0006e718       ?replaceChildWithJunk@ContainerChunk@RIFF@@QEAAXPEAVChunk@2@_N@Z 000000018006f718 f   RIFF.obj
 0001:0006e7d8       ??0JunkChunk@RIFF@@QEAA@PEAVContainerChunk@1@_J@Z 000000018006f7d8 f   RIFF.obj
 0001:0006e820       ?changesAndSize@JunkChunk@RIFF@@UEAAXPEAVRIFF_MetaHandler@@@Z 000000018006f820 f   RIFF.obj
 0001:0006e874       ?write@JunkChunk@RIFF@@UEAAXPEAVRIFF_MetaHandler@@PEAVXMP_IO@@_N@Z 000000018006f874 f   RIFF.obj
 0001:0006e98c       ?erase@?$_Tree@V?$_Tmap_traits@KPEAVValueChunk@RIFF@@U?$less@K@std@@V?$allocator@U?$pair@$$CBKPEAVValueChunk@RIFF@@@std@@@4@$0A@@std@@@std@@QEAA?AV?$_Tree_iterator@V?$_Tree_val@U?$_Tree_simple_types@U?$pair@$$CBKPEAVValueChunk@RIFF@@@std@@@std@@@std@@@2@V?$_Tree_const_iterator@V?$_Tree_val@U?$_Tree_simple_types@U?$pair@$$CBKPEAVValueChunk@RIFF@@@std@@@std@@@std@@@2@@Z 000000018006f98c f i RIFF.obj
 0001:0006e98c       ?erase@?$_Tree@V?$_Tmap_traits@KPEAVValueObject@@U?$less@K@std@@V?$allocator@U?$pair@$$CBKPEAVValueObject@@@std@@@3@$0A@@std@@@std@@QEAA?AV?$_Tree_iterator@V?$_Tree_val@U?$_Tree_simple_types@U?$pair@$$CBKPEAVValueObject@@@std@@@std@@@std@@@2@V?$_Tree_const_iterator@V?$_Tree_val@U?$_Tree_simple_types@U?$pair@$$CBKPEAVValueObject@@@std@@@std@@@std@@@2@@Z 000000018006f98c f i IMetadata.cpp.obj
 0001:0006e98c       ?erase@?$_Tree@V?$_Tmap_traits@PEAXPEAVFileHandlerInstance@XMP_PLUGIN@@U?$less@PEAX@std@@V?$allocator@U?$pair@QEAXPEAVFileHandlerInstance@XMP_PLUGIN@@@std@@@4@$0A@@std@@@std@@QEAA?AV?$_Tree_iterator@V?$_Tree_val@U?$_Tree_simple_types@U?$pair@QEAXPEAVFileHandlerInstance@XMP_PLUGIN@@@std@@@std@@@std@@@2@V?$_Tree_const_iterator@V?$_Tree_val@U?$_Tree_simple_types@U?$pair@QEAXPEAVFileHandlerInstance@XMP_PLUGIN@@@std@@@std@@@std@@@2@@Z 000000018006f98c f i PluginManager.obj
 0001:0006ee30       ??$?HDU?$char_traits@D@std@@V?$allocator@D@1@@std@@YA?AV?$basic_string@DU?$char_traits@D@std@@V?$allocator@D@2@@0@$$QEAV10@0@Z 000000018006fe30 f i RIFF.obj
 0001:0006ee9c       ??$_Buynode@U?$pair@KPEAVValueChunk@RIFF@@@std@@@?$_Tree_comp_alloc@V?$_Tmap_traits@KPEAVValueChunk@RIFF@@U?$less@K@std@@V?$allocator@U?$pair@$$CBKPEAVValueChunk@RIFF@@@std@@@4@$0A@@std@@@std@@QEAAPEAU?$_Tree_node@U?$pair@$$CBKPEAVValueChunk@RIFF@@@std@@PEAX@1@$$QEAU?$pair@KPEAVValueChunk@RIFF@@@1@@Z 000000018006fe9c f i RIFF.obj
 0001:00070350       ?importProperties@RIFF@@YAXPEAVRIFF_MetaHandler@@@Z 0000000180071350 f   RIFF_Support.obj
 0001:00070658       ?relocateWronglyPlacedXMPChunk@RIFF@@YAXPEAVRIFF_MetaHandler@@@Z 0000000180071658 f   RIFF_Support.obj
 0001:000720e4       ?exportAndRemoveProperties@RIFF@@YAXPEAVRIFF_MetaHandler@@@Z 00000001800730e4 f   RIFF_Support.obj
 0001:00072414       ??0?$basic_stringstream@DU?$char_traits@D@std@@V?$allocator@D@2@@std@@QEAA@H@Z 0000000180073414 f i RIFF_Support.obj
 0001:000724cc       ??$?6U?$char_traits@D@std@@@std@@YAAEAV?$basic_ostream@DU?$char_traits@D@std@@@0@AEAV10@PEBD@Z 00000001800734cc f i RIFF_Support.obj
 0001:00072654       ?CheckIPTCDigest@PhotoDataUtils@@YAHPEBXK0@Z 0000000180073654 f   ReconcileIPTC.obj
 0001:000726fc       ?ImportIPTC_Simple@PhotoDataUtils@@YAXAEBVIPTC_Manager@@PEAV?$TXMPMeta@V?$basic_string@DU?$char_traits@D@std@@V?$allocator@D@2@@std@@@@EPEBD2@Z 00000001800736fc f   ReconcileIPTC.obj
 0001:000727f0       ?ImportIPTC_LangAlt@PhotoDataUtils@@YAXAEBVIPTC_Manager@@PEAV?$TXMPMeta@V?$basic_string@DU?$char_traits@D@std@@V?$allocator@D@2@@std@@@@EPEBD2@Z 00000001800737f0 f   ReconcileIPTC.obj
 0001:000728fc       ?ImportIPTC_Array@PhotoDataUtils@@YAXAEBVIPTC_Manager@@PEAV?$TXMPMeta@V?$basic_string@DU?$char_traits@D@std@@V?$allocator@D@2@@std@@@@EPEBD2@Z 00000001800738fc f   ReconcileIPTC.obj
 0001:00072a7c       ?ImportIPTC_Date@PhotoDataUtils@@YAXEAEBVIPTC_Manager@@PEAV?$TXMPMeta@V?$basic_string@DU?$char_traits@D@std@@V?$allocator@D@2@@std@@@@@Z 0000000180073a7c f   ReconcileIPTC.obj
 0001:0007310c       ?Import2WayIPTC@PhotoDataUtils@@YAXAEBVIPTC_Manager@@PEAV?$TXMPMeta@V?$basic_string@DU?$char_traits@D@std@@V?$allocator@D@2@@std@@@@H@Z 000000018007410c f   ReconcileIPTC.obj
 0001:000733f4       ?ImportPSIR@PhotoDataUtils@@YAXAEBVPSIR_Manager@@PEAV?$TXMPMeta@V?$basic_string@DU?$char_traits@D@std@@V?$allocator@D@2@@std@@@@H@Z 00000001800743f4 f   ReconcileIPTC.obj
 0001:0007406c       ?ExportIPTC@PhotoDataUtils@@YAXAEBV?$TXMPMeta@V?$basic_string@DU?$char_traits@D@std@@V?$allocator@D@2@@std@@@@PEAVIPTC_Manager@@@Z 000000018007506c f   ReconcileIPTC.obj
 0001:00074220       ?ExportPSIR@PhotoDataUtils@@YAXAEBV?$TXMPMeta@V?$basic_string@DU?$char_traits@D@std@@V?$allocator@D@2@@std@@@@PEAVPSIR_Manager@@@Z 0000000180075220 f   ReconcileIPTC.obj
 0001:00074430       ?ImportPhotoData@@YAXAEBVTIFF_Manager@@AEBVIPTC_Manager@@AEBVPSIR_Manager@@HPEAV?$TXMPMeta@V?$basic_string@DU?$char_traits@D@std@@V?$allocator@D@2@@std@@@@K@Z 0000000180075430 f   ReconcileLegacy.obj
 0001:00074894       ?ExportPhotoData@@YAXKPEAV?$TXMPMeta@V?$basic_string@DU?$char_traits@D@std@@V?$allocator@D@2@@std@@@@PEAVTIFF_Manager@@PEAVIPTC_Manager@@PEAVPSIR_Manager@@K@Z 0000000180075894 f   ReconcileLegacy.obj
 0001:00074ca8       ?GetNativeInfo@PhotoDataUtils@@YA_NAEBVTIFF_Manager@@EGPEAUTagInfo@2@@Z 0000000180075ca8 f   ReconcileTIFF.obj
 0001:00074d18       ?GetNativeInfo@PhotoDataUtils@@YA_KAEBVIPTC_Manager@@EH_NPEAUDataSetInfo@2@@Z 0000000180075d18 f   ReconcileTIFF.obj
 0001:00074dcc       ?IsValueDifferent@PhotoDataUtils@@YA_NAEBUTagInfo@TIFF_Manager@@AEBV?$basic_string@DU?$char_traits@D@std@@V?$allocator@D@2@@std@@PEAV45@@Z 0000000180075dcc f   ReconcileTIFF.obj
 0001:00074e98       ?IsValueDifferent@PhotoDataUtils@@YA_NAEBVIPTC_Manager@@0E@Z 0000000180075e98 f   ReconcileTIFF.obj
 0001:00077c68       ?Import2WayExif@PhotoDataUtils@@YAXAEBVTIFF_Manager@@PEAV?$TXMPMeta@V?$basic_string@DU?$char_traits@D@std@@V?$allocator@D@2@@std@@@@H@Z 0000000180078c68 f   ReconcileTIFF.obj
 0001:0007884c       ?Import3WayItems@PhotoDataUtils@@YAXAEBVTIFF_Manager@@AEBVIPTC_Manager@@PEAV?$TXMPMeta@V?$basic_string@DU?$char_traits@D@std@@V?$allocator@D@2@@std@@@@H@Z 000000018007984c f   ReconcileTIFF.obj
 0001:0007aa68       ?ExportExif@PhotoDataUtils@@YAXPEAV?$TXMPMeta@V?$basic_string@DU?$char_traits@D@std@@V?$allocator@D@2@@std@@@@PEAVTIFF_Manager@@@Z 000000018007ba68 f   ReconcileTIFF.obj
 0001:0007b4e4       ??1?$vector@GV?$allocator@G@std@@@std@@QEAA@XZ 000000018007c4e4 f i ReconcileTIFF.obj
 0001:0007b520       ?_Insert_n@?$vector@KV?$allocator@K@std@@@std@@IEAA?AV?$_Vector_iterator@V?$_Vector_val@U?$_Simple_types@K@std@@@std@@@2@V?$_Vector_const_iterator@V?$_Vector_val@U?$_Simple_types@K@std@@@std@@@2@_KAEBK@Z 000000018007c520 f i ReconcileTIFF.obj
 0001:0007b7c4       ?_Insert_n@?$vector@GV?$allocator@G@std@@@std@@IEAA?AV?$_Vector_iterator@V?$_Vector_val@U?$_Simple_types@G@std@@@std@@@2@V?$_Vector_const_iterator@V?$_Vector_val@U?$_Simple_types@G@std@@@std@@@2@_KAEBG@Z 000000018007c7c4 f i ReconcileTIFF.obj
 0001:0007ba5c       ??$_Uninit_alloc_fill_n1@PEAG_KV?$allocator@G@std@@@std@@YAXPEAG_KPEBGAEAU?$_Wrap_alloc@V?$allocator@G@std@@@0@U?$integral_constant@_N$0A@@0@@Z 000000018007ca5c f i ReconcileTIFF.obj
 0001:0007ba78       ?IsUTF8@ReconcileUtils@@YA_NPEBX_K@Z 000000018007ca78 f   Reconcile_Impl.obj
 0001:0007bac8       ?UTF8ToWinEncoding@ReconcileUtils@@YAXIPEBE_KPEAV?$basic_string@DU?$char_traits@D@std@@V?$allocator@D@2@@std@@@Z 000000018007cac8 f   Reconcile_Impl.obj
 0001:0007bbd4       ?UTF8ToLocal@ReconcileUtils@@YAXPEBX_KPEAV?$basic_string@DU?$char_traits@D@std@@V?$allocator@D@2@@std@@@Z 000000018007cbd4 f   Reconcile_Impl.obj
 0001:0007bc24       ?UTF8ToLatin1@ReconcileUtils@@YAXPEBX_KPEAV?$basic_string@DU?$char_traits@D@std@@V?$allocator@D@2@@std@@@Z 000000018007cc24 f   Reconcile_Impl.obj
 0001:0007bd68       ?WinEncodingToUTF8@ReconcileUtils@@YAXIPEBE_KPEAV?$basic_string@DU?$char_traits@D@std@@V?$allocator@D@2@@std@@@Z 000000018007cd68 f   Reconcile_Impl.obj
 0001:0007be4c       ?LocalToUTF8@ReconcileUtils@@YAXPEBX_KPEAV?$basic_string@DU?$char_traits@D@std@@V?$allocator@D@2@@std@@@Z 000000018007ce4c f   Reconcile_Impl.obj
 0001:0007be9c       ?Latin1ToUTF8@ReconcileUtils@@YAXPEBX_KPEAV?$basic_string@DU?$char_traits@D@std@@V?$allocator@D@2@@std@@@Z 000000018007ce9c f   Reconcile_Impl.obj
 0001:0007bf90       ?NativeToUTF8@ReconcileUtils@@YAXAEBV?$basic_string@DU?$char_traits@D@std@@V?$allocator@D@2@@std@@AEAV23@@Z 000000018007cf90 f   Reconcile_Impl.obj
 0001:0007c00c       ?_Construct_n@?$vector@GV?$allocator@G@std@@@std@@QEAAX_KPEBG@Z 000000018007d00c f i Reconcile_Impl.obj
 0001:0007c0d8       ??1XMLParserAdapter@@UEAA@XZ 000000018007d0d8 f i SVG_Adapter.obj
 0001:0007c138       ?SetErrorCallback@XMLParserAdapter@@UEAAXPEAVGenericErrorCallback@@@Z 000000018007d138 f i SVG_Adapter.obj
 0001:0007c140       ?NotifyClient@XMLParserAdapter@@UEAAXEAEAVXMP_Error@@@Z 000000018007d140 f i SVG_Adapter.obj
 0001:0007c160       ??_EXMLParserAdapter@@UEAAPEAXI@Z 000000018007d160 f i * CIL library *:* CIL module *
 0001:0007c160       ??_GXMLParserAdapter@@UEAAPEAXI@Z 000000018007d160 f i SVG_Adapter.obj
 0001:0007c1e0       ??0SVG_Adapter@@QEAA@XZ    000000018007d1e0 f   SVG_Adapter.obj
 0001:0007c48c       ??_GSVG_Adapter@@UEAAPEAXI@Z 000000018007d48c f i SVG_Adapter.obj
 0001:0007c48c       ??_ESVG_Adapter@@UEAAPEAXI@Z 000000018007d48c f i * CIL library *:* CIL module *
 0001:0007c4c0       ??1?$multimap@V?$basic_string@DU?$char_traits@D@std@@V?$allocator@D@2@@std@@_JU?$less@V?$basic_string@DU?$char_traits@D@std@@V?$allocator@D@2@@std@@@2@V?$allocator@U?$pair@$$CBV?$basic_string@DU?$char_traits@D@std@@V?$allocator@D@2@@std@@_J@std@@@2@@std@@QEAA@XZ 000000018007d4c0 f i SVG_Adapter.obj
 0001:0007c524       ??1?$map@V?$basic_string@DU?$char_traits@D@std@@V?$allocator@D@2@@std@@UOffsetStruct@@U?$less@V?$basic_string@DU?$char_traits@D@std@@V?$allocator@D@2@@std@@@2@V?$allocator@U?$pair@$$CBV?$basic_string@DU?$char_traits@D@std@@V?$allocator@D@2@@std@@UOffsetStruct@@@std@@@2@@std@@QEAA@XZ 000000018007d524 f i SVG_Adapter.obj
 0001:0007c52c       ??1SVG_Adapter@@UEAA@XZ    000000018007d52c f   SVG_Adapter.obj
 0001:0007c678       ?GetElementOffsets@SVG_Adapter@@UEAA?AUOffsetStruct@@V?$basic_string@DU?$char_traits@D@std@@V?$allocator@D@2@@std@@@Z 000000018007d678 f   SVG_Adapter.obj
 0001:0007c7bc       ?RegisterElement@SVG_Adapter@@UEAAXV?$basic_string@DU?$char_traits@D@std@@V?$allocator@D@2@@std@@0@Z 000000018007d7bc f   SVG_Adapter.obj
 0001:0007ca18       ??1?$pair@V?$basic_string@DU?$char_traits@D@std@@V?$allocator@D@2@@std@@UOffsetStruct@@@std@@QEAA@XZ 000000018007da18 f i SVG_Adapter.obj
 0001:0007caac       ?GetPIOffset@SVG_Adapter@@UEAA_JV?$basic_string@DU?$char_traits@D@std@@V?$allocator@D@2@@std@@K@Z 000000018007daac f   SVG_Adapter.obj
 0001:0007cc54       ?RegisterPI@SVG_Adapter@@UEAAXV?$basic_string@DU?$char_traits@D@std@@V?$allocator@D@2@@std@@@Z 000000018007dc54 f   SVG_Adapter.obj
 0001:0007cda0       ?IsParsingRequire@SVG_Adapter@@UEAAEXZ 000000018007dda0 f   SVG_Adapter.obj
 0001:0007ce0c       ?ParseBuffer@SVG_Adapter@@UEAAXPEBX_K_N@Z 000000018007de0c f   SVG_Adapter.obj
 0001:0007ce70       ?ParseBufferNoThrow@SVG_Adapter@@UEAAEPEBX_K_N@Z 000000018007de70 f   SVG_Adapter.obj
 0001:0007d8b4       ??1?$_Tree@V?$_Tmap_traits@V?$basic_string@DU?$char_traits@D@std@@V?$allocator@D@2@@std@@UOffsetStruct@@U?$less@V?$basic_string@DU?$char_traits@D@std@@V?$allocator@D@2@@std@@@2@V?$allocator@U?$pair@$$CBV?$basic_string@DU?$char_traits@D@std@@V?$allocator@D@2@@std@@UOffsetStruct@@@std@@@2@$0A@@std@@@std@@QEAA@XZ 000000018007e8b4 f i SVG_Adapter.obj
 0001:0007d950       ?_Erase@?$_Tree@V?$_Tmap_traits@V?$basic_string@DU?$char_traits@D@std@@V?$allocator@D@2@@std@@_JU?$less@V?$basic_string@DU?$char_traits@D@std@@V?$allocator@D@2@@std@@@2@V?$allocator@U?$pair@$$CBV?$basic_string@DU?$char_traits@D@std@@V?$allocator@D@2@@std@@_J@std@@@2@$00@std@@@std@@IEAAXPEAU?$_Tree_node@U?$pair@$$CBV?$basic_string@DU?$char_traits@D@std@@V?$allocator@D@2@@std@@_J@std@@PEAX@2@@Z 000000018007e950 f i SVG_Adapter.obj
 0001:0007d950       ?_Erase@?$_Tree@V?$_Tmap_traits@V?$basic_string@DU?$char_traits@D@std@@V?$allocator@D@2@@std@@KUStringCompare@XMP_PLUGIN@@V?$allocator@U?$pair@$$CBV?$basic_string@DU?$char_traits@D@std@@V?$allocator@D@2@@std@@K@std@@@2@$0A@@std@@@std@@IEAAXPEAU?$_Tree_node@U?$pair@$$CBV?$basic_string@DU?$char_traits@D@std@@V?$allocator@D@2@@std@@K@std@@PEAX@2@@Z 000000018007e950 f i XMPAtoms.obj
 0001:0007d9f4       ?_Buyheadnode@?$_Tree_comp_alloc@V?$_Tmap_traits@V?$basic_string@DU?$char_traits@D@std@@V?$allocator@D@2@@std@@UOffsetStruct@@U?$less@V?$basic_string@DU?$char_traits@D@std@@V?$allocator@D@2@@std@@@2@V?$allocator@U?$pair@$$CBV?$basic_string@DU?$char_traits@D@std@@V?$allocator@D@2@@std@@UOffsetStruct@@@std@@@2@$0A@@std@@@std@@QEAAPEAU?$_Tree_node@U?$pair@$$CBV?$basic_string@DU?$char_traits@D@std@@V?$allocator@D@2@@std@@UOffsetStruct@@@std@@PEAX@2@XZ 000000018007e9f4 f i SVG_Adapter.obj
 0001:0007da30       ?_Erase@?$_Tree@V?$_Tmap_traits@V?$basic_string@DU?$char_traits@D@std@@V?$allocator@D@2@@std@@UOffsetStruct@@U?$less@V?$basic_string@DU?$char_traits@D@std@@V?$allocator@D@2@@std@@@2@V?$allocator@U?$pair@$$CBV?$basic_string@DU?$char_traits@D@std@@V?$allocator@D@2@@std@@UOffsetStruct@@@std@@@2@$0A@@std@@@std@@IEAAXPEAU?$_Tree_node@U?$pair@$$CBV?$basic_string@DU?$char_traits@D@std@@V?$allocator@D@2@@std@@UOffsetStruct@@@std@@PEAX@2@@Z 000000018007ea30 f i SVG_Adapter.obj
 0001:0007da90       ??$destroy@U?$pair@$$CBV?$basic_string@DU?$char_traits@D@std@@V?$allocator@D@2@@std@@UOffsetStruct@@@std@@@?$_Wrap_alloc@V?$allocator@U?$_Tree_node@U?$pair@$$CBV?$basic_string@DU?$char_traits@D@std@@V?$allocator@D@2@@std@@UOffsetStruct@@@std@@PEAX@std@@@std@@@std@@QEAAXPEAU?$pair@$$CBV?$basic_string@DU?$char_traits@D@std@@V?$allocator@D@2@@std@@UOffsetStruct@@@1@@Z 000000018007ea90 f i SVG_Adapter.obj
 0001:0007db20       ??$_Buynode@U?$pair@V?$basic_string@DU?$char_traits@D@std@@V?$allocator@D@2@@std@@UOffsetStruct@@@std@@@?$_Tree_comp_alloc@V?$_Tmap_traits@V?$basic_string@DU?$char_traits@D@std@@V?$allocator@D@2@@std@@UOffsetStruct@@U?$less@V?$basic_string@DU?$char_traits@D@std@@V?$allocator@D@2@@std@@@2@V?$allocator@U?$pair@$$CBV?$basic_string@DU?$char_traits@D@std@@V?$allocator@D@2@@std@@UOffsetStruct@@@std@@@2@$0A@@std@@@std@@QEAAPEAU?$_Tree_node@U?$pair@$$CBV?$basic_string@DU?$char_traits@D@std@@V?$allocator@D@2@@std@@UOffsetStruct@@@std@@PEAX@1@$$QEAU?$pair@V?$basic_string@DU?$char_traits@D@std@@V?$allocator@D@2@@std@@UOffsetStruct@@@1@@Z 000000018007eb20 f i SVG_Adapter.obj
 0001:0007db8c       ??$_Insert_hint@AEAU?$pair@$$CBV?$basic_string@DU?$char_traits@D@std@@V?$allocator@D@2@@std@@UOffsetStruct@@@std@@PEAU?$_Tree_node@U?$pair@$$CBV?$basic_string@DU?$char_traits@D@std@@V?$allocator@D@2@@std@@UOffsetStruct@@@std@@PEAX@2@@?$_Tree@V?$_Tmap_traits@V?$basic_string@DU?$char_traits@D@std@@V?$allocator@D@2@@std@@UOffsetStruct@@U?$less@V?$basic_string@DU?$char_traits@D@std@@V?$allocator@D@2@@std@@@2@V?$allocator@U?$pair@$$CBV?$basic_string@DU?$char_traits@D@std@@V?$allocator@D@2@@std@@UOffsetStruct@@@std@@@2@$0A@@std@@@std@@IEAA?AV?$_Tree_iterator@V?$_Tree_val@U?$_Tree_simple_types@U?$pair@$$CBV?$basic_string@DU?$char_traits@D@std@@V?$allocator@D@2@@std@@UOffsetStruct@@@std@@@std@@@std@@@1@V?$_Tree_const_iterator@V?$_Tree_val@U?$_Tree_simple_types@U?$pair@$$CBV?$basic_string@DU?$char_traits@D@std@@V?$allocator@D@2@@std@@UOffsetStruct@@@std@@@std@@@std@@@1@AEAU?$pair@$$CBV?$basic_string@DU?$char_traits@D@std@@V?$allocator@D@2@@std@@UOffsetStruct@@@1@PEAU?$_Tree_node@U?$pair@$$CBV?$basic_string@DU?$char_traits@D@std@@V?$allocator@D@2@@std@@UOffsetStruct@@@std@@PEAX@1@@Z 000000018007eb8c f i SVG_Adapter.obj
 0001:0007de28       ??$_Buynode@U?$pair@V?$basic_string@DU?$char_traits@D@std@@V?$allocator@D@2@@std@@_J@std@@@?$_Tree_comp_alloc@V?$_Tmap_traits@V?$basic_string@DU?$char_traits@D@std@@V?$allocator@D@2@@std@@_JU?$less@V?$basic_string@DU?$char_traits@D@std@@V?$allocator@D@2@@std@@@2@V?$allocator@U?$pair@$$CBV?$basic_string@DU?$char_traits@D@std@@V?$allocator@D@2@@std@@_J@std@@@2@$00@std@@@std@@QEAAPEAU?$_Tree_node@U?$pair@$$CBV?$basic_string@DU?$char_traits@D@std@@V?$allocator@D@2@@std@@_J@std@@PEAX@1@$$QEAU?$pair@V?$basic_string@DU?$char_traits@D@std@@V?$allocator@D@2@@std@@_J@1@@Z 000000018007ee28 f i SVG_Adapter.obj
 0001:0007de78       ??$_Insert_hint@AEAU?$pair@$$CBV?$basic_string@DU?$char_traits@D@std@@V?$allocator@D@2@@std@@_J@std@@PEAU?$_Tree_node@U?$pair@$$CBV?$basic_string@DU?$char_traits@D@std@@V?$allocator@D@2@@std@@_J@std@@PEAX@2@@?$_Tree@V?$_Tmap_traits@V?$basic_string@DU?$char_traits@D@std@@V?$allocator@D@2@@std@@_JU?$less@V?$basic_string@DU?$char_traits@D@std@@V?$allocator@D@2@@std@@@2@V?$allocator@U?$pair@$$CBV?$basic_string@DU?$char_traits@D@std@@V?$allocator@D@2@@std@@_J@std@@@2@$00@std@@@std@@IEAA?AV?$_Tree_iterator@V?$_Tree_val@U?$_Tree_simple_types@U?$pair@$$CBV?$basic_string@DU?$char_traits@D@std@@V?$allocator@D@2@@std@@_J@std@@@std@@@std@@@1@V?$_Tree_const_iterator@V?$_Tree_val@U?$_Tree_simple_types@U?$pair@$$CBV?$basic_string@DU?$char_traits@D@std@@V?$allocator@D@2@@std@@_J@std@@@std@@@std@@@1@AEAU?$pair@$$CBV?$basic_string@DU?$char_traits@D@std@@V?$allocator@D@2@@std@@_J@1@PEAU?$_Tree_node@U?$pair@$$CBV?$basic_string@DU?$char_traits@D@std@@V?$allocator@D@2@@std@@_J@std@@PEAX@1@@Z 000000018007ee78 f i SVG_Adapter.obj
 0001:0007e118       ?_Buynode0@?$_Tree_comp_alloc@V?$_Tmap_traits@V?$basic_string@DU?$char_traits@D@std@@V?$allocator@D@2@@std@@UOffsetStruct@@U?$less@V?$basic_string@DU?$char_traits@D@std@@V?$allocator@D@2@@std@@@2@V?$allocator@U?$pair@$$CBV?$basic_string@DU?$char_traits@D@std@@V?$allocator@D@2@@std@@UOffsetStruct@@@std@@@2@$0A@@std@@@std@@QEAAPEAU?$_Tree_node@U?$pair@$$CBV?$basic_string@DU?$char_traits@D@std@@V?$allocator@D@2@@std@@UOffsetStruct@@@std@@PEAX@2@XZ 000000018007f118 f i SVG_Adapter.obj
 0001:0007e160       ??$_Insert_at@AEAU?$pair@$$CBV?$basic_string@DU?$char_traits@D@std@@V?$allocator@D@2@@std@@UOffsetStruct@@@std@@PEAU?$_Tree_node@U?$pair@$$CBV?$basic_string@DU?$char_traits@D@std@@V?$allocator@D@2@@std@@UOffsetStruct@@@std@@PEAX@2@@?$_Tree@V?$_Tmap_traits@V?$basic_string@DU?$char_traits@D@std@@V?$allocator@D@2@@std@@UOffsetStruct@@U?$less@V?$basic_string@DU?$char_traits@D@std@@V?$allocator@D@2@@std@@@2@V?$allocator@U?$pair@$$CBV?$basic_string@DU?$char_traits@D@std@@V?$allocator@D@2@@std@@UOffsetStruct@@@std@@@2@$0A@@std@@@std@@IEAA?AV?$_Tree_iterator@V?$_Tree_val@U?$_Tree_simple_types@U?$pair@$$CBV?$basic_string@DU?$char_traits@D@std@@V?$allocator@D@2@@std@@UOffsetStruct@@@std@@@std@@@std@@@1@_NPEAU?$_Tree_node@U?$pair@$$CBV?$basic_string@DU?$char_traits@D@std@@V?$allocator@D@2@@std@@UOffsetStruct@@@std@@PEAX@1@AEAU?$pair@$$CBV?$basic_string@DU?$char_traits@D@std@@V?$allocator@D@2@@std@@UOffsetStruct@@@1@1@Z 000000018007f160 f i SVG_Adapter.obj
 0001:0007e3f0       ??$_Insert_nohint@AEAU?$pair@$$CBV?$basic_string@DU?$char_traits@D@std@@V?$allocator@D@2@@std@@UOffsetStruct@@@std@@PEAU?$_Tree_node@U?$pair@$$CBV?$basic_string@DU?$char_traits@D@std@@V?$allocator@D@2@@std@@UOffsetStruct@@@std@@PEAX@2@@?$_Tree@V?$_Tmap_traits@V?$basic_string@DU?$char_traits@D@std@@V?$allocator@D@2@@std@@UOffsetStruct@@U?$less@V?$basic_string@DU?$char_traits@D@std@@V?$allocator@D@2@@std@@@2@V?$allocator@U?$pair@$$CBV?$basic_string@DU?$char_traits@D@std@@V?$allocator@D@2@@std@@UOffsetStruct@@@std@@@2@$0A@@std@@@std@@IEAA?AU?$pair@V?$_Tree_iterator@V?$_Tree_val@U?$_Tree_simple_types@U?$pair@$$CBV?$basic_string@DU?$char_traits@D@std@@V?$allocator@D@2@@std@@UOffsetStruct@@@std@@@std@@@std@@@std@@_N@1@_NAEAU?$pair@$$CBV?$basic_string@DU?$char_traits@D@std@@V?$allocator@D@2@@std@@UOffsetStruct@@@1@PEAU?$_Tree_node@U?$pair@$$CBV?$basic_string@DU?$char_traits@D@std@@V?$allocator@D@2@@std@@UOffsetStruct@@@std@@PEAX@1@@Z 000000018007f3f0 f i SVG_Adapter.obj
 0001:0007e558       ??$_Insert_at@AEAU?$pair@$$CBV?$basic_string@DU?$char_traits@D@std@@V?$allocator@D@2@@std@@K@std@@PEAU?$_Tree_node@U?$pair@$$CBV?$basic_string@DU?$char_traits@D@std@@V?$allocator@D@2@@std@@K@std@@PEAX@2@@?$_Tree@V?$_Tmap_traits@V?$basic_string@DU?$char_traits@D@std@@V?$allocator@D@2@@std@@KUStringCompare@XMP_PLUGIN@@V?$allocator@U?$pair@$$CBV?$basic_string@DU?$char_traits@D@std@@V?$allocator@D@2@@std@@K@std@@@2@$0A@@std@@@std@@IEAA?AV?$_Tree_iterator@V?$_Tree_val@U?$_Tree_simple_types@U?$pair@$$CBV?$basic_string@DU?$char_traits@D@std@@V?$allocator@D@2@@std@@K@std@@@std@@@std@@@1@_NPEAU?$_Tree_node@U?$pair@$$CBV?$basic_string@DU?$char_traits@D@std@@V?$allocator@D@2@@std@@K@std@@PEAX@1@AEAU?$pair@$$CBV?$basic_string@DU?$char_traits@D@std@@V?$allocator@D@2@@std@@K@1@1@Z 000000018007f558 f i XMPAtoms.obj
 0001:0007e558       ??$_Insert_at@AEAU?$pair@$$CBV?$basic_string@DU?$char_traits@D@std@@V?$allocator@D@2@@std@@_J@std@@PEAU?$_Tree_node@U?$pair@$$CBV?$basic_string@DU?$char_traits@D@std@@V?$allocator@D@2@@std@@_J@std@@PEAX@2@@?$_Tree@V?$_Tmap_traits@V?$basic_string@DU?$char_traits@D@std@@V?$allocator@D@2@@std@@_JU?$less@V?$basic_string@DU?$char_traits@D@std@@V?$allocator@D@2@@std@@@2@V?$allocator@U?$pair@$$CBV?$basic_string@DU?$char_traits@D@std@@V?$allocator@D@2@@std@@_J@std@@@2@$00@std@@@std@@IEAA?AV?$_Tree_iterator@V?$_Tree_val@U?$_Tree_simple_types@U?$pair@$$CBV?$basic_string@DU?$char_traits@D@std@@V?$allocator@D@2@@std@@_J@std@@@std@@@std@@@1@_NPEAU?$_Tree_node@U?$pair@$$CBV?$basic_string@DU?$char_traits@D@std@@V?$allocator@D@2@@std@@_J@std@@PEAX@1@AEAU?$pair@$$CBV?$basic_string@DU?$char_traits@D@std@@V?$allocator@D@2@@std@@_J@1@1@Z 000000018007f558 f i SVG_Adapter.obj
 0001:0007e828       ??$_Insert_nohint@AEAU?$pair@$$CBV?$basic_string@DU?$char_traits@D@std@@V?$allocator@D@2@@std@@_J@std@@PEAU?$_Tree_node@U?$pair@$$CBV?$basic_string@DU?$char_traits@D@std@@V?$allocator@D@2@@std@@_J@std@@PEAX@2@@?$_Tree@V?$_Tmap_traits@V?$basic_string@DU?$char_traits@D@std@@V?$allocator@D@2@@std@@_JU?$less@V?$basic_string@DU?$char_traits@D@std@@V?$allocator@D@2@@std@@@2@V?$allocator@U?$pair@$$CBV?$basic_string@DU?$char_traits@D@std@@V?$allocator@D@2@@std@@_J@std@@@2@$00@std@@@std@@IEAA?AU?$pair@V?$_Tree_iterator@V?$_Tree_val@U?$_Tree_simple_types@U?$pair@$$CBV?$basic_string@DU?$char_traits@D@std@@V?$allocator@D@2@@std@@_J@std@@@std@@@std@@@std@@_N@1@_NAEAU?$pair@$$CBV?$basic_string@DU?$char_traits@D@std@@V?$allocator@D@2@@std@@_J@1@PEAU?$_Tree_node@U?$pair@$$CBV?$basic_string@DU?$char_traits@D@std@@V?$allocator@D@2@@std@@_J@std@@PEAX@1@@Z 000000018007f828 f i SVG_Adapter.obj
 0001:0007e8e8       ?GetTagInfo@SWF_IO@@YA_NAEBV?$vector@EV?$allocator@E@std@@@std@@KPEAVTagInfo@1@@Z 000000018007f8e8 f   SWF_Support.obj
 0001:0007e970       ?DecompressFileToMemory@SWF_IO@@YA_JPEAVXMP_IO@@PEAV?$vector@EV?$allocator@E@std@@@std@@@Z 000000018007f970 f   SWF_Support.obj
 0001:0007ed50       ?CompressMemoryToFile@SWF_IO@@YA_JAEBV?$vector@EV?$allocator@E@std@@@std@@PEAVXMP_IO@@@Z 000000018007fd50 f   SWF_Support.obj
 0001:0007ef8c       ?HasExifIFD@TIFF_FileWriter@@UEBA_NXZ 000000018007ff8c f i TIFF_FileWriter.obj
 0001:0007ef98       ?HasGPSInfoIFD@TIFF_FileWriter@@UEBA_NXZ 000000018007ff98 f i TIFF_FileWriter.obj
 0001:0007efa4       ?IsChanged@TIFF_FileWriter@@UEAA_NXZ 000000018007ffa4 f i TIFF_FileWriter.obj
 0001:0007efa8       ??0InternalIFDInfo@TIFF_FileWriter@@QEAA@XZ 000000018007ffa8 f i TIFF_FileWriter.obj
 0001:0007efe8       ??0TIFF_FileWriter@@QEAA@XZ 000000018007ffe8 f   TIFF_FileWriter.obj
 0001:0007f0b4       ??_GTIFF_FileWriter@@UEAAPEAXI@Z 00000001800800b4 f i TIFF_FileWriter.obj
 0001:0007f0b4       ??_ETIFF_FileWriter@@UEAAPEAXI@Z 00000001800800b4 f i * CIL library *:* CIL module *
 0001:0007f0e8       ??1InternalIFDInfo@TIFF_FileWriter@@QEAA@XZ 00000001800800e8 f i TIFF_FileWriter.obj
 0001:0007f124       ??1TIFF_FileWriter@@UEAA@XZ 0000000180080124 f   TIFF_FileWriter.obj
 0001:0007f17c       ?DeleteExistingInfo@TIFF_FileWriter@@AEAAXXZ 000000018008017c f   TIFF_FileWriter.obj
 0001:0007f1f0       ?PickIFD@TIFF_FileWriter@@CAEEG@Z 00000001800801f0 f   TIFF_FileWriter.obj
 0001:0007f24c       ?FindTagInIFD@TIFF_FileWriter@@AEBAPEBVInternalTagInfo@1@EG@Z 000000018008024c f   TIFF_FileWriter.obj
 0001:0007f2bc       ?GetIFD@TIFF_FileWriter@@UEBA_NEPEAV?$map@GUTagInfo@TIFF_Manager@@U?$less@G@std@@V?$allocator@U?$pair@$$CBGUTagInfo@TIFF_Manager@@@std@@@4@@std@@@Z 00000001800802bc f   TIFF_FileWriter.obj
 0001:0007f428       ?GetValueOffset@TIFF_FileWriter@@UEBAKEG@Z 0000000180080428 f   TIFF_FileWriter.obj
 0001:0007f448       ?GetTag@TIFF_FileWriter@@UEBA_NEGPEAUTagInfo@TIFF_Manager@@@Z 0000000180080448 f   TIFF_FileWriter.obj
 0001:0007f4a4       ?SetTag@TIFF_FileWriter@@UEAAXEGGKPEBX@Z 00000001800804a4 f   TIFF_FileWriter.obj
 0001:0007f70c       ??1?$pair@$$CBGVInternalTagInfo@TIFF_FileWriter@@@std@@QEAA@XZ 000000018008070c f i TIFF_FileWriter.obj
 0001:0007f74c       ?DeleteTag@TIFF_FileWriter@@UEAAXEG@Z 000000018008074c f   TIFF_FileWriter.obj
 0001:0007f7f8       ?GetTag_Integer@TIFF_FileWriter@@UEBA_NEGPEAK@Z 00000001800807f8 f   TIFF_FileWriter.obj
 0001:0007f884       ?GetTag_Byte@TIFF_FileWriter@@UEBA_NEGPEAE@Z 0000000180080884 f   TIFF_FileWriter.obj
 0001:0007f8c4       ?GetTag_SByte@TIFF_FileWriter@@UEBA_NEGPEAC@Z 00000001800808c4 f   TIFF_FileWriter.obj
 0001:0007f900       ?GetTag_Short@TIFF_FileWriter@@UEBA_NEGPEAG@Z 0000000180080900 f   TIFF_FileWriter.obj
 0001:0007f948       ?GetTag_SShort@TIFF_FileWriter@@UEBA_NEGPEAF@Z 0000000180080948 f   TIFF_FileWriter.obj
 0001:0007f990       ?GetTag_Long@TIFF_FileWriter@@UEBA_NEGPEAK@Z 0000000180080990 f   TIFF_FileWriter.obj
 0001:0007f9dc       ?GetTag_SLong@TIFF_FileWriter@@UEBA_NEGPEAJ@Z 00000001800809dc f   TIFF_FileWriter.obj
 0001:0007fa24       ?GetTag_Rational@TIFF_FileWriter@@UEBA_NEGPEAURational@TIFF_Manager@@@Z 0000000180080a24 f   TIFF_FileWriter.obj
 0001:0007fa88       ?GetTag_SRational@TIFF_FileWriter@@UEBA_NEGPEAUSRational@TIFF_Manager@@@Z 0000000180080a88 f   TIFF_FileWriter.obj
 0001:0007faec       ?GetTag_Float@TIFF_FileWriter@@UEBA_NEGPEAM@Z 0000000180080aec f   TIFF_FileWriter.obj
 0001:0007fb34       ?GetTag_Double@TIFF_FileWriter@@UEBA_NEGPEAN@Z 0000000180080b34 f   TIFF_FileWriter.obj
 0001:0007fb84       ?GetTag_ASCII@TIFF_FileWriter@@UEBA_NEGPEAPEBDPEAK@Z 0000000180080b84 f   TIFF_FileWriter.obj
 0001:0007fbd8       ?GetTag_EncodedString@TIFF_FileWriter@@UEBA_NEGPEAV?$basic_string@DU?$char_traits@D@std@@V?$allocator@D@2@@std@@@Z 0000000180080bd8 f   TIFF_FileWriter.obj
 0001:0007fc24       ?SetTag_EncodedString@TIFF_FileWriter@@UEAAXEGAEBV?$basic_string@DU?$char_traits@D@std@@V?$allocator@D@2@@std@@E@Z 0000000180080c24 f   TIFF_FileWriter.obj
 0001:0007fce0       ?IsLegacyChanged@TIFF_FileWriter@@UEAA_NXZ 0000000180080ce0 f   TIFF_FileWriter.obj
 0001:0007fd6c       ?ParseMemoryStream@TIFF_FileWriter@@UEAAXPEBXK_N1@Z 0000000180080d6c f   TIFF_FileWriter.obj
 0001:0007ffec       ?ProcessMemoryIFD@TIFF_FileWriter@@AEAAKKE@Z 0000000180080fec f   TIFF_FileWriter.obj
 0001:0008029c       ?ParseFileStream@TIFF_FileWriter@@UEAAXPEAVXMP_IO@@@Z 000000018008129c f   TIFF_FileWriter.obj
 0001:00080508       ?ProcessFileIFD@TIFF_FileWriter@@AEAAKEKPEAVXMP_IO@@@Z 0000000180081508 f   TIFF_FileWriter.obj
 0001:000809b4       ?IntegrateFromPShop6@TIFF_FileWriter@@UEAAXPEBX_K@Z 00000001800819b4 f   TIFF_FileWriter.obj
 0001:00080ab0       ?CopyTagToMasterIFD@TIFF_FileWriter@@AEAAPEAXAEBUTagInfo@TIFF_Manager@@PEAUInternalIFDInfo@1@@Z 0000000180081ab0 f   TIFF_FileWriter.obj
 0001:00080cbc       ?ProcessPShop6IFD@TIFF_FileWriter@@AEAAXAEBVTIFF_MemoryReader@@E@Z 0000000180081cbc f   TIFF_FileWriter.obj
 0001:00081024       ?PreflightIFDLinkage@TIFF_FileWriter@@AEAAXXZ 0000000180082024 f   TIFF_FileWriter.obj
 0001:0008110c       ?DetermineAppendInfo@TIFF_FileWriter@@AEAAKKQEA_NQEAK_N@Z 000000018008210c f   TIFF_FileWriter.obj
 0001:0008136c       ?UpdateMemByAppend@TIFF_FileWriter@@AEAAXPEAPEAEPEAK_NK@Z 000000018008236c f   TIFF_FileWriter.obj
 0001:00081658       ?UpdateMemByRewrite@TIFF_FileWriter@@AEAAXPEAPEAEPEAK@Z 0000000180082658 f   TIFF_FileWriter.obj
 0001:00081920       ?UpdateMemoryStream@TIFF_FileWriter@@UEAAKPEAPEAX_N@Z 0000000180082920 f   TIFF_FileWriter.obj
 0001:00081a44       ?UpdateFileStream@TIFF_FileWriter@@UEAAXPEAVXMP_IO@@PEAVXMP_ProgressTracker@@@Z 0000000180082a44 f   TIFF_FileWriter.obj
 0001:00081ee4       ?WriteFileIFD@TIFF_FileWriter@@AEAAXPEAVXMP_IO@@AEAUInternalIFDInfo@1@@Z 0000000180082ee4 f   TIFF_FileWriter.obj
 0001:00081fe8       ?clear@?$_Tree@V?$_Tmap_traits@GVInternalTagInfo@TIFF_FileWriter@@U?$less@G@std@@V?$allocator@U?$pair@$$CBGVInternalTagInfo@TIFF_FileWriter@@@std@@@4@$0A@@std@@@std@@QEAAXXZ 0000000180082fe8 f i TIFF_FileWriter.obj
 0001:00082090       ?erase@?$_Tree@V?$_Tmap_traits@GVInternalTagInfo@TIFF_FileWriter@@U?$less@G@std@@V?$allocator@U?$pair@$$CBGVInternalTagInfo@TIFF_FileWriter@@@std@@@4@$0A@@std@@@std@@QEAA?AV?$_Tree_iterator@V?$_Tree_val@U?$_Tree_simple_types@U?$pair@$$CBGVInternalTagInfo@TIFF_FileWriter@@@std@@@std@@@std@@@2@V?$_Tree_const_iterator@V?$_Tree_val@U?$_Tree_simple_types@U?$pair@$$CBGVInternalTagInfo@TIFF_FileWriter@@@std@@@std@@@std@@@2@@Z 0000000180083090 f i TIFF_FileWriter.obj
 0001:00082558       ??0?$vector@EV?$allocator@E@std@@@std@@QEAA@_K@Z 0000000180083558 f i TIFF_FileWriter.obj
 0001:000825cc       ?_Erase@?$_Tree@V?$_Tmap_traits@GVInternalTagInfo@TIFF_FileWriter@@U?$less@G@std@@V?$allocator@U?$pair@$$CBGVInternalTagInfo@TIFF_FileWriter@@@std@@@4@$0A@@std@@@std@@IEAAXPEAU?$_Tree_node@U?$pair@$$CBGVInternalTagInfo@TIFF_FileWriter@@@std@@PEAX@2@@Z 00000001800835cc f i TIFF_FileWriter.obj
 0001:00082654       ??$_Buynode@AEAU?$pair@$$CBGVInternalTagInfo@TIFF_FileWriter@@@std@@@?$_Tree_comp_alloc@V?$_Tmap_traits@GVInternalTagInfo@TIFF_FileWriter@@U?$less@G@std@@V?$allocator@U?$pair@$$CBGVInternalTagInfo@TIFF_FileWriter@@@std@@@4@$0A@@std@@@std@@QEAAPEAU?$_Tree_node@U?$pair@$$CBGVInternalTagInfo@TIFF_FileWriter@@@std@@PEAX@1@AEAU?$pair@$$CBGVInternalTagInfo@TIFF_FileWriter@@@1@@Z 0000000180083654 f i TIFF_FileWriter.obj
 0001:0008268c       ??$_Insert_hint@AEAU?$pair@$$CBGVInternalTagInfo@TIFF_FileWriter@@@std@@PEAU?$_Tree_node@U?$pair@$$CBGVInternalTagInfo@TIFF_FileWriter@@@std@@PEAX@2@@?$_Tree@V?$_Tmap_traits@GVInternalTagInfo@TIFF_FileWriter@@U?$less@G@std@@V?$allocator@U?$pair@$$CBGVInternalTagInfo@TIFF_FileWriter@@@std@@@4@$0A@@std@@@std@@IEAA?AV?$_Tree_iterator@V?$_Tree_val@U?$_Tree_simple_types@U?$pair@$$CBGVInternalTagInfo@TIFF_FileWriter@@@std@@@std@@@std@@@1@V?$_Tree_const_iterator@V?$_Tree_val@U?$_Tree_simple_types@U?$pair@$$CBGVInternalTagInfo@TIFF_FileWriter@@@std@@@std@@@std@@@1@AEAU?$pair@$$CBGVInternalTagInfo@TIFF_FileWriter@@@1@PEAU?$_Tree_node@U?$pair@$$CBGVInternalTagInfo@TIFF_FileWriter@@@std@@PEAX@1@@Z 000000018008368c f i TIFF_FileWriter.obj
 0001:000828b0       ??$_Insert_at@AEAU?$pair@$$CBGVInternalTagInfo@TIFF_FileWriter@@@std@@PEAU?$_Tree_node@U?$pair@$$CBGVInternalTagInfo@TIFF_FileWriter@@@std@@PEAX@2@@?$_Tree@V?$_Tmap_traits@GVInternalTagInfo@TIFF_FileWriter@@U?$less@G@std@@V?$allocator@U?$pair@$$CBGVInternalTagInfo@TIFF_FileWriter@@@std@@@4@$0A@@std@@@std@@IEAA?AV?$_Tree_iterator@V?$_Tree_val@U?$_Tree_simple_types@U?$pair@$$CBGVInternalTagInfo@TIFF_FileWriter@@@std@@@std@@@std@@@1@_NPEAU?$_Tree_node@U?$pair@$$CBGVInternalTagInfo@TIFF_FileWriter@@@std@@PEAX@1@AEAU?$pair@$$CBGVInternalTagInfo@TIFF_FileWriter@@@1@1@Z 00000001800838b0 f i TIFF_FileWriter.obj
 0001:00082b58       ??$_Insert_nohint@AEAU?$pair@$$CBGVInternalTagInfo@TIFF_FileWriter@@@std@@PEAU?$_Tree_node@U?$pair@$$CBGVInternalTagInfo@TIFF_FileWriter@@@std@@PEAX@2@@?$_Tree@V?$_Tmap_traits@GVInternalTagInfo@TIFF_FileWriter@@U?$less@G@std@@V?$allocator@U?$pair@$$CBGVInternalTagInfo@TIFF_FileWriter@@@std@@@4@$0A@@std@@@std@@IEAA?AU?$pair@V?$_Tree_iterator@V?$_Tree_val@U?$_Tree_simple_types@U?$pair@$$CBGVInternalTagInfo@TIFF_FileWriter@@@std@@@std@@@std@@@std@@_N@1@_NAEAU?$pair@$$CBGVInternalTagInfo@TIFF_FileWriter@@@1@PEAU?$_Tree_node@U?$pair@$$CBGVInternalTagInfo@TIFF_FileWriter@@@std@@PEAX@1@@Z 0000000180083b58 f i TIFF_FileWriter.obj
 0001:00082cbc       ??$_Buynode@AEBUpiecewise_construct_t@std@@V?$tuple@AEBG@2@V?$tuple@$$V@2@@?$_Tree_comp_alloc@V?$_Tmap_traits@GUTagInfo@TIFF_Manager@@U?$less@G@std@@V?$allocator@U?$pair@$$CBGUTagInfo@TIFF_Manager@@@std@@@4@$0A@@std@@@std@@QEAAPEAU?$_Tree_node@U?$pair@$$CBGUTagInfo@TIFF_Manager@@@std@@PEAX@1@AEBUpiecewise_construct_t@1@$$QEAV?$tuple@AEBG@1@$$QEAV?$tuple@$$V@1@@Z 0000000180083cbc f i TIFF_FileWriter.obj
 0001:00082cf8       ??$_Insert_hint@AEAU?$pair@$$CBGUTagInfo@TIFF_Manager@@@std@@PEAU?$_Tree_node@U?$pair@$$CBGUTagInfo@TIFF_Manager@@@std@@PEAX@2@@?$_Tree@V?$_Tmap_traits@GUTagInfo@TIFF_Manager@@U?$less@G@std@@V?$allocator@U?$pair@$$CBGUTagInfo@TIFF_Manager@@@std@@@4@$0A@@std@@@std@@IEAA?AV?$_Tree_iterator@V?$_Tree_val@U?$_Tree_simple_types@U?$pair@$$CBGUTagInfo@TIFF_Manager@@@std@@@std@@@std@@@1@V?$_Tree_const_iterator@V?$_Tree_val@U?$_Tree_simple_types@U?$pair@$$CBGUTagInfo@TIFF_Manager@@@std@@@std@@@std@@@1@AEAU?$pair@$$CBGUTagInfo@TIFF_Manager@@@1@PEAU?$_Tree_node@U?$pair@$$CBGUTagInfo@TIFF_Manager@@@std@@PEAX@1@@Z 0000000180083cf8 f i TIFF_FileWriter.obj
 0001:00082f1c       ??$_Insert_nohint@AEAU?$pair@$$CBGUTagInfo@TIFF_Manager@@@std@@PEAU?$_Tree_node@U?$pair@$$CBGUTagInfo@TIFF_Manager@@@std@@PEAX@2@@?$_Tree@V?$_Tmap_traits@GUTagInfo@TIFF_Manager@@U?$less@G@std@@V?$allocator@U?$pair@$$CBGUTagInfo@TIFF_Manager@@@std@@@4@$0A@@std@@@std@@IEAA?AU?$pair@V?$_Tree_iterator@V?$_Tree_val@U?$_Tree_simple_types@U?$pair@$$CBGUTagInfo@TIFF_Manager@@@std@@@std@@@std@@@std@@_N@1@_NAEAU?$pair@$$CBGUTagInfo@TIFF_Manager@@@1@PEAU?$_Tree_node@U?$pair@$$CBGUTagInfo@TIFF_Manager@@@std@@PEAX@1@@Z 0000000180083f1c f i TIFF_FileWriter.obj
 0001:00083084       ?GetIFD@TIFF_MemoryReader@@UEBA_NEPEAV?$map@GUTagInfo@TIFF_Manager@@U?$less@G@std@@V?$allocator@U?$pair@$$CBGUTagInfo@TIFF_Manager@@@std@@@4@@std@@@Z 0000000180084084 f   TIFF_MemoryReader.obj
 0001:0008323c       ?FindTagInIFD@TIFF_MemoryReader@@AEBAPEBUTweakedIFDEntry@1@EG@Z 000000018008423c f   TIFF_MemoryReader.obj
 0001:000832d4       ?GetValueOffset@TIFF_MemoryReader@@UEBAKEG@Z 00000001800842d4 f   TIFF_MemoryReader.obj
 0001:00083304       ?GetTag@TIFF_MemoryReader@@UEBA_NEGPEAUTagInfo@TIFF_Manager@@@Z 0000000180084304 f   TIFF_MemoryReader.obj
 0001:00083388       ?GetTag_Integer@TIFF_MemoryReader@@UEBA_NEGPEAK@Z 0000000180084388 f   TIFF_MemoryReader.obj
 0001:00083478       ?GetTag_Byte@TIFF_MemoryReader@@UEBA_NEGPEAE@Z 0000000180084478 f   TIFF_MemoryReader.obj
 0001:000834b4       ?GetTag_SByte@TIFF_MemoryReader@@UEBA_NEGPEAC@Z 00000001800844b4 f   TIFF_MemoryReader.obj
 0001:000834ec       ?GetTag_Short@TIFF_MemoryReader@@UEBA_NEGPEAG@Z 00000001800844ec f   TIFF_MemoryReader.obj
 0001:00083534       ?GetTag_SShort@TIFF_MemoryReader@@UEBA_NEGPEAF@Z 0000000180084534 f   TIFF_MemoryReader.obj
 0001:0008357c       ?GetTag_Long@TIFF_MemoryReader@@UEBA_NEGPEAK@Z 000000018008457c f   TIFF_MemoryReader.obj
 0001:000835c8       ?GetTag_SLong@TIFF_MemoryReader@@UEBA_NEGPEAJ@Z 00000001800845c8 f   TIFF_MemoryReader.obj
 0001:00083610       ?GetTag_Rational@TIFF_MemoryReader@@UEBA_NEGPEAURational@TIFF_Manager@@@Z 0000000180084610 f   TIFF_MemoryReader.obj
 0001:00083670       ?GetTag_SRational@TIFF_MemoryReader@@UEBA_NEGPEAUSRational@TIFF_Manager@@@Z 0000000180084670 f   TIFF_MemoryReader.obj
 0001:000836d0       ?GetTag_Float@TIFF_MemoryReader@@UEBA_NEGPEAM@Z 00000001800846d0 f   TIFF_MemoryReader.obj
 0001:00083718       ?GetTag_Double@TIFF_MemoryReader@@UEBA_NEGPEAN@Z 0000000180084718 f   TIFF_MemoryReader.obj
 0001:00083764       ?GetTag_ASCII@TIFF_MemoryReader@@UEBA_NEGPEAPEBDPEAK@Z 0000000180084764 f   TIFF_MemoryReader.obj
 0001:000837c0       ?GetTag_EncodedString@TIFF_MemoryReader@@UEBA_NEGPEAV?$basic_string@DU?$char_traits@D@std@@V?$allocator@D@2@@std@@@Z 00000001800847c0 f   TIFF_MemoryReader.obj
 0001:0008381c       ?ParseMemoryStream@TIFF_MemoryReader@@UEAAXPEBXK_N1@Z 000000018008481c f   TIFF_MemoryReader.obj
 0001:00083b20       ?ProcessOneIFD@TIFF_MemoryReader@@AEAAKKE_N@Z 0000000180084b20 f   TIFF_MemoryReader.obj
 0001:00083fd8       ?CheckTIFFHeader@TIFF_Manager@@IEAAKPEBEK@Z 0000000180084fd8 f   TIFF_Support.obj
 0001:00084198       ?SetTag_Short@TIFF_Manager@@QEAAXEGG@Z 0000000180085198 f   TIFF_Support.obj
 0001:000841f8       ?SetTag_Long@TIFF_Manager@@QEAAXEGK@Z 00000001800851f8 f   TIFF_Support.obj
 0001:00084254       ?SetTag_Rational@TIFF_Manager@@QEAAXEGKK@Z 0000000180085254 f   TIFF_Support.obj
 0001:000842bc       ?SetTag_ASCII@TIFF_Manager@@QEAAXEGPEBD@Z 00000001800852bc f   TIFF_Support.obj
 0001:0008441c       ?DecodeString@TIFF_Manager@@QEBA_NPEBX_KPEAV?$basic_string@DU?$char_traits@D@std@@V?$allocator@D@2@@std@@@Z 000000018008541c f   TIFF_Support.obj
 0001:000845b4       ?EncodeString@TIFF_Manager@@QEAA_NAEBV?$basic_string@DU?$char_traits@D@std@@V?$allocator@D@2@@std@@EPEAV23@@Z 00000001800855b4 f   TIFF_Support.obj
 0001:00084728       ?NotifyClient@TIFF_Manager@@UEAAXEAEAVXMP_Error@@@Z 0000000180085728 f   TIFF_Support.obj
 0001:00084770       ?DropFrameToHMSF@TimeConversionUtils@@YAX_J0AEAK111@Z 0000000180085770 f   TimeConversionUtils.obj
 0001:0008485c       ?ConvertSamplesToTimecode@TimeConversionUtils@@YA_NAEAV?$basic_string@DU?$char_traits@D@std@@V?$allocator@D@2@@std@@_J_K1_N333333@Z 000000018008585c f   TimeConversionUtils.obj
 0001:00084e50       ?ConvertSamplesToSMPTETimecode@TimeConversionUtils@@YA_NAEAV?$basic_string@DU?$char_traits@D@std@@V?$allocator@D@2@@std@@_J_KAEBV23@@Z 0000000180085e50 f   TimeConversionUtils.obj
 0001:0008534c       ?GetMediaProLegacyMetadata@XDCAM_Support@@YA_NPEAV?$TXMPMeta@V?$basic_string@DU?$char_traits@D@std@@V?$allocator@D@2@@std@@@@AEBV?$basic_string@DU?$char_traits@D@std@@V?$allocator@D@2@@std@@1_N@Z 000000018008634c f   XDCAM_Support.obj
 0001:00085610       ?GetLegacyMetadata@XDCAM_Support@@YA_NPEAV?$TXMPMeta@V?$basic_string@DU?$char_traits@D@std@@V?$allocator@D@2@@std@@@@PEAVXML_Node@@PEBD_NAEAV?$basic_string@DU?$char_traits@D@std@@V?$allocator@D@2@@std@@@Z 0000000180086610 f   XDCAM_Support.obj
 0001:00086138       ?SetLegacyMetadata@XDCAM_Support@@YA_NPEAVXML_Node@@PEAV?$TXMPMeta@V?$basic_string@DU?$char_traits@D@std@@V?$allocator@D@2@@std@@@@PEBD@Z 0000000180087138 f   XDCAM_Support.obj
 0001:000863b4       ??0exception@std@@QEAA@AEBV01@@Z 00000001800873b4 f i XMPScanner.obj
 0001:000863ec       ?what@exception@std@@UEBAPEBDXZ 00000001800873ec f i XMPScanner.obj
 0001:00086400       ??_Gexception@std@@UEAAPEAXI@Z 0000000180087400 f i XMPScanner.obj
 0001:00086400       ??_Elogic_error@std@@UEAAPEAXI@Z 0000000180087400 f i * CIL library *:* CIL module *
 0001:00086400       ??_Eexception@std@@UEAAPEAXI@Z 0000000180087400 f i * CIL library *:* CIL module *
 0001:00086400       ??_EScanError@XMPScanner@@UEAAPEAXI@Z 0000000180087400 f i * CIL library *:* CIL module *
 0001:00086400       ??_GScanError@XMPScanner@@UEAAPEAXI@Z 0000000180087400 f i XMPScanner.obj
 0001:00086400       ??_Gruntime_error@std@@UEAAPEAXI@Z 0000000180087400 f i XMPScanner.obj
 0001:00086400       ??_Eruntime_error@std@@UEAAPEAXI@Z 0000000180087400 f i * CIL library *:* CIL module *
 0001:00086400       ??_Glogic_error@std@@UEAAPEAXI@Z 0000000180087400 f i XMPScanner.obj
 0001:00086444       ??1ScanError@XMPScanner@@UEAA@XZ 0000000180087444 f i XMPScanner.obj
 0001:00086444       ??1runtime_error@std@@UEAA@XZ 0000000180087444 f i XMPScanner.obj
 0001:0008645c       ??0runtime_error@std@@QEAA@AEBV01@@Z 000000018008745c f i XMPScanner.obj
 0001:0008649c       ?ResetMachine@PacketMachine@XMPScanner@@QEAAXXZ 000000018008749c f   XMPScanner.obj
 0001:00086594       ?FindLessThan@PacketMachine@XMPScanner@@CA?AW4TriState@12@PEAV12@PEBD@Z 0000000180087594 f   XMPScanner.obj
 0001:00086608       ?MatchString@PacketMachine@XMPScanner@@CA?AW4TriState@12@PEAV12@PEBD@Z 0000000180087608 f   XMPScanner.obj
 0001:00086698       ?MatchChar@PacketMachine@XMPScanner@@CA?AW4TriState@12@PEAV12@PEBD@Z 0000000180087698 f   XMPScanner.obj
 0001:000866c4       ?MatchOpenQuote@PacketMachine@XMPScanner@@CA?AW4TriState@12@PEAV12@PEBD@Z 00000001800876c4 f   XMPScanner.obj
 0001:000866f8       ?MatchCloseQuote@PacketMachine@XMPScanner@@CA?AW4TriState@12@PEAV12@PEBD@Z 00000001800876f8 f   XMPScanner.obj
 0001:00086704       ?CaptureAttrName@PacketMachine@XMPScanner@@CA?AW4TriState@12@PEAV12@PEBD@Z 0000000180087704 f   XMPScanner.obj
 0001:00086880       ?CaptureAttrValue@PacketMachine@XMPScanner@@CA?AW4TriState@12@PEAV12@PEBD@Z 0000000180087880 f   XMPScanner.obj
 0001:0008696c       ?RecordStart@PacketMachine@XMPScanner@@CA?AW4TriState@12@PEAV12@PEBD@Z 000000018008796c f   XMPScanner.obj
 0001:00086a08       ?RecognizeBOM@PacketMachine@XMPScanner@@CA?AW4TriState@12@PEAV12@PEBD@Z 0000000180087a08 f   XMPScanner.obj
 0001:00086c18       ?RecordHeadAttr@PacketMachine@XMPScanner@@CA?AW4TriState@12@PEAV12@PEBD@Z 0000000180087c18 f   XMPScanner.obj
 0001:00086d88       ?CaptureAccess@PacketMachine@XMPScanner@@CA?AW4TriState@12@PEAV12@PEBD@Z 0000000180087d88 f   XMPScanner.obj
 0001:00086dfc       ?RecordTailAttr@PacketMachine@XMPScanner@@CA?AW4TriState@12@PEAV12@PEBD@Z 0000000180087dfc f   XMPScanner.obj
 0001:00086e9c       ?CheckPacketEnd@PacketMachine@XMPScanner@@CA?AW4TriState@12@PEAV12@PEBD@Z 0000000180087e9c f   XMPScanner.obj
 0001:00086ffc       ?CheckFinalNulls@PacketMachine@XMPScanner@@CA?AW4TriState@12@PEAV12@PEBD@Z 0000000180087ffc f   XMPScanner.obj
 0001:0008701c       ??1InternalSnip@XMPScanner@@QEAA@XZ 000000018008801c f   XMPScanner.obj
 0001:00087034       ??0XMPScanner@@QEAA@_J@Z   0000000180088034 f   XMPScanner.obj
 0001:0008711c       ??1XMPScanner@@QEAA@XZ     000000018008811c f   XMPScanner.obj
 0001:00087198       ?SplitInternalSnip@XMPScanner@@AEAAXV?$_List_iterator@V?$_List_val@U?$_List_simple_types@VInternalSnip@XMPScanner@@@std@@@std@@@std@@_J1@Z 0000000180088198 f   XMPScanner.obj
 0001:00087380       ?MergeInternalSnips@XMPScanner@@AEAA?AV?$_List_iterator@V?$_List_val@U?$_List_simple_types@VInternalSnip@XMPScanner@@@std@@@std@@@std@@V23@0@Z 0000000180088380 f   XMPScanner.obj
 0001:000873f4       ?Scan@XMPScanner@@QEAAXPEBX_J1@Z 00000001800883f4 f   XMPScanner.obj
 0001:000878dc       ??0ScanError@XMPScanner@@QEAA@AEBV01@@Z 00000001800888dc f i XMPScanner.obj
 0001:0008791c       ??0logic_error@std@@QEAA@AEBV01@@Z 000000018008891c f i XMPScanner.obj
 0001:0008795c       ?Report@XMPScanner@@QEAAXAEAV?$vector@USnipInfo@XMPScanner@@V?$allocator@USnipInfo@XMPScanner@@@std@@@std@@@Z 000000018008895c f   XMPScanner.obj
 0001:00087b14       ??1?$list@VInternalSnip@XMPScanner@@V?$allocator@VInternalSnip@XMPScanner@@@std@@@std@@QEAA@XZ 0000000180088b14 f i XMPScanner.obj
 0001:00087b8c       ??_GPacketMachine@XMPScanner@@QEAAPEAXI@Z 0000000180088b8c f i XMPScanner.obj
 0001:00087c78       ?_Buynode0@?$_List_alloc@U?$_List_base_types@VInternalSnip@XMPScanner@@V?$allocator@VInternalSnip@XMPScanner@@@std@@@std@@@std@@QEAAPEAU?$_List_node@VInternalSnip@XMPScanner@@PEAX@2@PEAU32@0@Z 0000000180088c78 f i XMPScanner.obj
 0001:00087cbc       ??$_Buynode@AEBVInternalSnip@XMPScanner@@@?$_List_buy@VInternalSnip@XMPScanner@@V?$allocator@VInternalSnip@XMPScanner@@@std@@@std@@QEAAPEAU?$_List_node@VInternalSnip@XMPScanner@@PEAX@1@PEAU21@0AEBVInternalSnip@XMPScanner@@@Z 0000000180088cbc f i XMPScanner.obj
 0001:00087cf8       ?getModule@FileHandler@XMP_PLUGIN@@QEBA?AV?$shared_ptr@VModule@XMP_PLUGIN@@@std@@XZ 0000000180088cf8 f i FileHandlerInstance.obj
 0001:00087d18       ??0FileHandlerInstance@XMP_PLUGIN@@QEAA@PEAXV?$shared_ptr@VFileHandler@XMP_PLUGIN@@@std@@PEAVXMPFiles@@@Z 0000000180088d18 f   FileHandlerInstance.obj
 0001:00087f0c       ??_GFileHandlerInstance@XMP_PLUGIN@@UEAAPEAXI@Z 0000000180088f0c f i FileHandlerInstance.obj
 0001:00087f0c       ??_EFileHandlerInstance@XMP_PLUGIN@@UEAAPEAXI@Z 0000000180088f0c f i * CIL library *:* CIL module *
 0001:00087f40       ??1FileHandlerInstance@XMP_PLUGIN@@UEAA@XZ 0000000180088f40 f   FileHandlerInstance.obj
 0001:000880b4       ?GetFileModDate@FileHandlerInstance@XMP_PLUGIN@@UEAA_NPEAUXMP_DateTime@@@Z 00000001800890b4 f   FileHandlerInstance.obj
 0001:000881bc       ?CacheFileData@FileHandlerInstance@XMP_PLUGIN@@UEAAXXZ 00000001800891bc f   FileHandlerInstance.obj
 0001:00088308       ?ProcessXMP@FileHandlerInstance@XMP_PLUGIN@@UEAAXXZ 0000000180089308 f   FileHandlerInstance.obj
 0001:00088868       ?UpdateFile@FileHandlerInstance@XMP_PLUGIN@@UEAAX_N@Z 0000000180089868 f   FileHandlerInstance.obj
 0001:00088c20       ?WriteTempFile@FileHandlerInstance@XMP_PLUGIN@@UEAAXPEAVXMP_IO@@@Z 0000000180089c20 f   FileHandlerInstance.obj
 0001:00088f18       ?FillMetadataFiles@FileHandlerInstance@XMP_PLUGIN@@UEAAXPEAV?$vector@V?$basic_string@DU?$char_traits@D@std@@V?$allocator@D@2@@std@@V?$allocator@V?$basic_string@DU?$char_traits@D@std@@V?$allocator@D@2@@std@@@2@@std@@@Z 0000000180089f18 f   FileHandlerInstance.obj
 0001:00089048       ?FillAssociatedResources@FileHandlerInstance@XMP_PLUGIN@@UEAAXPEAV?$vector@V?$basic_string@DU?$char_traits@D@std@@V?$allocator@D@2@@std@@V?$allocator@V?$basic_string@DU?$char_traits@D@std@@V?$allocator@D@2@@std@@@2@@std@@@Z 000000018008a048 f   FileHandlerInstance.obj
 0001:00089178       ?IsMetadataWritable@FileHandlerInstance@XMP_PLUGIN@@UEAA_NXZ 000000018008a178 f   FileHandlerInstance.obj
 0001:000892a0       ?SetErrorCallback@FileHandlerInstance@XMP_PLUGIN@@UEAAXUErrorCallbackBox@@@Z 000000018008a2a0 f   FileHandlerInstance.obj
 0001:000893dc       ?SetProgressCallback@FileHandlerInstance@XMP_PLUGIN@@UEAAXPEAUCallbackInfo@XMP_ProgressTracker@@@Z 000000018008a3dc f   FileHandlerInstance.obj
 0001:00089508       ??1?$shared_ptr@VFileHandler@XMP_PLUGIN@@@std@@QEAA@XZ 000000018008a508 f i FileHandlerInstance.obj
 0001:00089508       ??1?$shared_ptr@VModule@XMP_PLUGIN@@@std@@QEAA@XZ 000000018008a508 f i FileHandlerInstance.obj
 0001:00089548       ??0?$shared_ptr@VFileHandler@XMP_PLUGIN@@@std@@QEAA@AEBV01@@Z 000000018008a548 f i FileHandlerInstance.obj
 0001:00089548       ??0?$shared_ptr@VModule@XMP_PLUGIN@@@std@@QEAA@AEBV01@@Z 000000018008a548 f i FileHandlerInstance.obj
 0001:0008adfc       ?SetupHostAPI_V1@PluginManager@XMP_PLUGIN@@CAXPEAUHostAPI@2@@Z 000000018008bdfc f   HostAPIImpl.obj
 0001:0008afd4       ?getPluginAPIs@Module@XMP_PLUGIN@@QEAAPEAUPluginAPI@2@XZ 000000018008bfd4 f   Module.obj
 0001:0008b028       ?load@Module@XMP_PLUGIN@@QEAA_NXZ 000000018008c028 f   Module.obj
 0001:0008b078       ?unloadInternal@Module@XMP_PLUGIN@@AEAAXXZ 000000018008c078 f   Module.obj
 0001:0008b134       ?loadInternal@Module@XMP_PLUGIN@@AEAA_NXZ 000000018008c134 f   Module.obj
 0001:0008b440       _is_c_termination_complete 000000018008c440 f i MSVCRT:ucrt_stubs.obj
 0001:0008b440       ?_Get_deleter@_Ref_count_base@std@@UEBAPEAXAEBVtype_info@@@Z 000000018008c440 f i PluginManager.obj
 0001:0008b440       __scrt_stub_for_is_c_termination_complete 000000018008c440 f i MSVCRT:ucrt_stubs.obj
 0001:0008b444       ??_G_Ref_count_base@std@@UEAAPEAXI@Z 000000018008c444 f i PluginManager.obj
 0001:0008b444       ??_E_Ref_count_base@std@@UEAAPEAXI@Z 000000018008c444 f i * CIL library *:* CIL module *
 0001:0008b470       ?getCheckFormat@FileHandler@XMP_PLUGIN@@QEBA?AUCheckFormat@2@K@Z 000000018008c470 f i PluginManager.obj
 0001:0008b524       ??0ResourceParser@XMP_PLUGIN@@QEAA@V?$shared_ptr@VModule@XMP_PLUGIN@@@std@@@Z 000000018008c524 f i PluginManager.obj
 0001:0008b624       ?GetHandlerInfo@FileHandlerInstance@XMP_PLUGIN@@QEBA?AV?$shared_ptr@VFileHandler@XMP_PLUGIN@@@std@@XZ 000000018008c624 f i PluginManager.obj
 0001:0008c378       ??0PluginManager@XMP_PLUGIN@@AEAA@AEBV?$basic_string@DU?$char_traits@D@std@@V?$allocator@D@2@@std@@0@Z 000000018008d378 f   PluginManager.obj
 0001:0008c728       ??1?$map@KUFileHandlerPair@XMP_PLUGIN@@U?$less@K@std@@V?$allocator@U?$pair@$$CBKUFileHandlerPair@XMP_PLUGIN@@@std@@@4@@std@@QEAA@XZ 000000018008d728 f i PluginManager.obj
 0001:0008c760       ??1?$map@PEAXPEAVFileHandlerInstance@XMP_PLUGIN@@U?$less@PEAX@std@@V?$allocator@U?$pair@QEAXPEAVFileHandlerInstance@XMP_PLUGIN@@@std@@@4@@std@@QEAA@XZ 000000018008d760 f i PluginManager.obj
 0001:0008c794       ??1PluginManager@XMP_PLUGIN@@AEAA@XZ 000000018008d794 f   PluginManager.obj
 0001:0008cb2c       ?initialize@PluginManager@XMP_PLUGIN@@SAXAEBV?$basic_string@DU?$char_traits@D@std@@V?$allocator@D@2@@std@@0@Z 000000018008db2c f   PluginManager.obj
 0001:0008cd60       ??1FileHandlerPair@XMP_PLUGIN@@QEAA@XZ 000000018008dd60 f i PluginManager.obj
 0001:0008cde8       ?terminate@PluginManager@XMP_PLUGIN@@SAXXZ 000000018008dde8 f   PluginManager.obj
 0001:0008ce94       ?addFileHandler@PluginManager@XMP_PLUGIN@@SAXKV?$shared_ptr@VFileHandler@XMP_PLUGIN@@@std@@@Z 000000018008de94 f   PluginManager.obj
 0001:0008d1a8       ??1?$pair@KUFileHandlerPair@XMP_PLUGIN@@@std@@QEAA@XZ 000000018008e1a8 f i PluginManager.obj
 0001:0008d1b4       ?getFileHandler@PluginManager@XMP_PLUGIN@@SA?AV?$shared_ptr@VFileHandler@XMP_PLUGIN@@@std@@KW4HandlerPriority@12@@Z 000000018008e1b4 f   PluginManager.obj
 0001:0008d238       ?getHandlerInstance@PluginManager@XMP_PLUGIN@@SAPEAVFileHandlerInstance@2@PEAX@Z 000000018008e238 f   PluginManager.obj
 0001:0008d310       ?getHandlerPriority@PluginManager@XMP_PLUGIN@@SA?AW4HandlerPriority@12@PEAVFileHandlerInstance@2@@Z 000000018008e310 f   PluginManager.obj
 0001:0008d564       ?loadResourceFile@PluginManager@XMP_PLUGIN@@AEAAXV?$shared_ptr@VModule@XMP_PLUGIN@@@std@@@Z 000000018008e564 f   PluginManager.obj
 0001:0008d814       ??1ResourceParser@XMP_PLUGIN@@QEAA@XZ 000000018008e814 f i PluginManager.obj
 0001:0008d9a4       ?scanRecursive@PluginManager@XMP_PLUGIN@@AEAAXAEBV?$basic_string@DU?$char_traits@D@std@@V?$allocator@D@2@@std@@AEAV?$vector@V?$basic_string@DU?$char_traits@D@std@@V?$allocator@D@2@@std@@V?$allocator@V?$basic_string@DU?$char_traits@D@std@@V?$allocator@D@2@@std@@@2@@4@JJ@Z 000000018008e9a4 f   PluginManager.obj
 0001:0008ddbc       ?doScan@PluginManager@XMP_PLUGIN@@AEAAXJ@Z 000000018008edbc f   PluginManager.obj
 0001:0008df70       ?getHostAPI@PluginManager@XMP_PLUGIN@@SAPEAUHostAPI@2@K@Z 000000018008ef70 f   PluginManager.obj
 0001:0008dfcc       ?erase@?$_Tree@V?$_Tmap_traits@PEAXPEAVFileHandlerInstance@XMP_PLUGIN@@U?$less@PEAX@std@@V?$allocator@U?$pair@QEAXPEAVFileHandlerInstance@XMP_PLUGIN@@@std@@@4@$0A@@std@@@std@@QEAA_KAEBQEAX@Z 000000018008efcc f i PluginManager.obj
 0001:0008e0b8       ?clear@?$_Tree@V?$_Tmap_traits@KUFileHandlerPair@XMP_PLUGIN@@U?$less@K@std@@V?$allocator@U?$pair@$$CBKUFileHandlerPair@XMP_PLUGIN@@@std@@@4@$0A@@std@@@std@@QEAAXXZ 000000018008f0b8 f i PluginManager.obj
 0001:0008e144       ?erase@?$_Tree@V?$_Tmap_traits@PEAXPEAVFileHandlerInstance@XMP_PLUGIN@@U?$less@PEAX@std@@V?$allocator@U?$pair@QEAXPEAVFileHandlerInstance@XMP_PLUGIN@@@std@@@4@$0A@@std@@@std@@QEAA?AV?$_Tree_iterator@V?$_Tree_val@U?$_Tree_simple_types@U?$pair@QEAXPEAVFileHandlerInstance@XMP_PLUGIN@@@std@@@std@@@std@@@2@V?$_Tree_const_iterator@V?$_Tree_val@U?$_Tree_simple_types@U?$pair@QEAXPEAVFileHandlerInstance@XMP_PLUGIN@@@std@@@std@@@std@@@2@0@Z 000000018008f144 f i PluginManager.obj
 0001:0008e254       ?_Erase@?$_Tree@V?$_Tmap_traits@KUFileHandlerPair@XMP_PLUGIN@@U?$less@K@std@@V?$allocator@U?$pair@$$CBKUFileHandlerPair@XMP_PLUGIN@@@std@@@4@$0A@@std@@@std@@IEAAXPEAU?$_Tree_node@U?$pair@$$CBKUFileHandlerPair@XMP_PLUGIN@@@std@@PEAX@2@@Z 000000018008f254 f i PluginManager.obj
 0001:0008e2b4       ??$bind2nd@U?$equal_to@V?$basic_string@DU?$char_traits@D@std@@V?$allocator@D@2@@std@@@std@@V?$basic_string@DU?$char_traits@D@std@@V?$allocator@D@2@@2@@std@@YA?AV?$binder2nd@U?$equal_to@V?$basic_string@DU?$char_traits@D@std@@V?$allocator@D@2@@std@@@std@@@0@AEBU?$equal_to@V?$basic_string@DU?$char_traits@D@std@@V?$allocator@D@2@@std@@@0@AEBV?$basic_string@DU?$char_traits@D@std@@V?$allocator@D@2@@0@@Z 000000018008f2b4 f i PluginManager.obj
 0001:0008e36c       ??$find_if@V?$_Vector_iterator@V?$_Vector_val@U?$_Simple_types@V?$basic_string@DU?$char_traits@D@std@@V?$allocator@D@2@@std@@@std@@@std@@@std@@V?$binder2nd@U?$equal_to@V?$basic_string@DU?$char_traits@D@std@@V?$allocator@D@2@@std@@@std@@@2@@std@@YA?AV?$_Vector_iterator@V?$_Vector_val@U?$_Simple_types@V?$basic_string@DU?$char_traits@D@std@@V?$allocator@D@2@@std@@@std@@@std@@@0@V10@0V?$binder2nd@U?$equal_to@V?$basic_string@DU?$char_traits@D@std@@V?$allocator@D@2@@std@@@std@@@0@@Z 000000018008f36c f i PluginManager.obj
 0001:0008e460       ??$_Resetp@VModule@XMP_PLUGIN@@@?$shared_ptr@VModule@XMP_PLUGIN@@@std@@AEAAXPEAVModule@XMP_PLUGIN@@@Z 000000018008f460 f i PluginManager.obj
 0001:0008e4f0       ??_GModule@XMP_PLUGIN@@QEAAPEAXI@Z 000000018008f4f0 f i PluginManager.obj
 0001:0008e59c       ?_Delete_this@?$_Ref_count@VModule@XMP_PLUGIN@@@std@@EEAAXXZ 000000018008f59c f i PluginManager.obj
 0001:0008e59c       ?_Delete_this@?$_Ref_count@VFileHandler@XMP_PLUGIN@@@std@@EEAAXXZ 000000018008f59c f i XMPAtoms.obj
 0001:0008e5b8       ?_Destroy@?$_Ref_count@VModule@XMP_PLUGIN@@@std@@EEAAXXZ 000000018008f5b8 f i PluginManager.obj
 0001:0008e5d0       ??_E?$_Ref_count@VModule@XMP_PLUGIN@@@std@@UEAAPEAXI@Z 000000018008f5d0 f i * CIL library *:* CIL module *
 0001:0008e5d0       ??_E?$_Ref_count@VFileHandler@XMP_PLUGIN@@@std@@UEAAPEAXI@Z 000000018008f5d0 f i * CIL library *:* CIL module *
 0001:0008e5d0       ??_G?$_Ref_count@VModule@XMP_PLUGIN@@@std@@UEAAPEAXI@Z 000000018008f5d0 f i PluginManager.obj
 0001:0008e5d0       ??_G?$_Ref_count@VFileHandler@XMP_PLUGIN@@@std@@UEAAPEAXI@Z 000000018008f5d0 f i XMPAtoms.obj
 0001:0008e5fc       ??$_Buynode@U?$pair@KUFileHandlerPair@XMP_PLUGIN@@@std@@@?$_Tree_comp_alloc@V?$_Tmap_traits@KUFileHandlerPair@XMP_PLUGIN@@U?$less@K@std@@V?$allocator@U?$pair@$$CBKUFileHandlerPair@XMP_PLUGIN@@@std@@@4@$0A@@std@@@std@@QEAAPEAU?$_Tree_node@U?$pair@$$CBKUFileHandlerPair@XMP_PLUGIN@@@std@@PEAX@1@$$QEAU?$pair@KUFileHandlerPair@XMP_PLUGIN@@@1@@Z 000000018008f5fc f i PluginManager.obj
 0001:0008e65c       ??$_Insert_hint@AEAU?$pair@$$CBKUFileHandlerPair@XMP_PLUGIN@@@std@@PEAU?$_Tree_node@U?$pair@$$CBKUFileHandlerPair@XMP_PLUGIN@@@std@@PEAX@2@@?$_Tree@V?$_Tmap_traits@KUFileHandlerPair@XMP_PLUGIN@@U?$less@K@std@@V?$allocator@U?$pair@$$CBKUFileHandlerPair@XMP_PLUGIN@@@std@@@4@$0A@@std@@@std@@IEAA?AV?$_Tree_iterator@V?$_Tree_val@U?$_Tree_simple_types@U?$pair@$$CBKUFileHandlerPair@XMP_PLUGIN@@@std@@@std@@@std@@@1@V?$_Tree_const_iterator@V?$_Tree_val@U?$_Tree_simple_types@U?$pair@$$CBKUFileHandlerPair@XMP_PLUGIN@@@std@@@std@@@std@@@1@AEAU?$pair@$$CBKUFileHandlerPair@XMP_PLUGIN@@@1@PEAU?$_Tree_node@U?$pair@$$CBKUFileHandlerPair@XMP_PLUGIN@@@std@@PEAX@1@@Z 000000018008f65c f i PluginManager.obj
 0001:0008e878       ??$_Insert_at@AEAU?$pair@$$CBKUFileHandlerPair@XMP_PLUGIN@@@std@@PEAU?$_Tree_node@U?$pair@$$CBKUFileHandlerPair@XMP_PLUGIN@@@std@@PEAX@2@@?$_Tree@V?$_Tmap_traits@KUFileHandlerPair@XMP_PLUGIN@@U?$less@K@std@@V?$allocator@U?$pair@$$CBKUFileHandlerPair@XMP_PLUGIN@@@std@@@4@$0A@@std@@@std@@IEAA?AV?$_Tree_iterator@V?$_Tree_val@U?$_Tree_simple_types@U?$pair@$$CBKUFileHandlerPair@XMP_PLUGIN@@@std@@@std@@@std@@@1@_NPEAU?$_Tree_node@U?$pair@$$CBKUFileHandlerPair@XMP_PLUGIN@@@std@@PEAX@1@AEAU?$pair@$$CBKUFileHandlerPair@XMP_PLUGIN@@@1@1@Z 000000018008f878 f i PluginManager.obj
 0001:0008eb08       ??$_Insert_nohint@AEAU?$pair@$$CBKUFileHandlerPair@XMP_PLUGIN@@@std@@PEAU?$_Tree_node@U?$pair@$$CBKUFileHandlerPair@XMP_PLUGIN@@@std@@PEAX@2@@?$_Tree@V?$_Tmap_traits@KUFileHandlerPair@XMP_PLUGIN@@U?$less@K@std@@V?$allocator@U?$pair@$$CBKUFileHandlerPair@XMP_PLUGIN@@@std@@@4@$0A@@std@@@std@@IEAA?AU?$pair@V?$_Tree_iterator@V?$_Tree_val@U?$_Tree_simple_types@U?$pair@$$CBKUFileHandlerPair@XMP_PLUGIN@@@std@@@std@@@std@@@std@@_N@1@_NAEAU?$pair@$$CBKUFileHandlerPair@XMP_PLUGIN@@@1@PEAU?$_Tree_node@U?$pair@$$CBKUFileHandlerPair@XMP_PLUGIN@@@std@@PEAX@1@@Z 000000018008fb08 f i PluginManager.obj
 0001:0008ec40       ??$_Buynode@AEBUpiecewise_construct_t@std@@V?$tuple@AEBQEAX@2@V?$tuple@$$V@2@@?$_Tree_comp_alloc@V?$_Tmap_traits@PEAXPEAVFileHandlerInstance@XMP_PLUGIN@@U?$less@PEAX@std@@V?$allocator@U?$pair@QEAXPEAVFileHandlerInstance@XMP_PLUGIN@@@std@@@4@$0A@@std@@@std@@QEAAPEAU?$_Tree_node@U?$pair@QEAXPEAVFileHandlerInstance@XMP_PLUGIN@@@std@@PEAX@1@AEBUpiecewise_construct_t@1@$$QEAV?$tuple@AEBQEAX@1@$$QEAV?$tuple@$$V@1@@Z 000000018008fc40 f i PluginManager.obj
 0001:0008ec74       ??$_Insert_hint@AEAU?$pair@QEAXPEAVFileHandlerInstance@XMP_PLUGIN@@@std@@PEAU?$_Tree_node@U?$pair@QEAXPEAVFileHandlerInstance@XMP_PLUGIN@@@std@@PEAX@2@@?$_Tree@V?$_Tmap_traits@PEAXPEAVFileHandlerInstance@XMP_PLUGIN@@U?$less@PEAX@std@@V?$allocator@U?$pair@QEAXPEAVFileHandlerInstance@XMP_PLUGIN@@@std@@@4@$0A@@std@@@std@@IEAA?AV?$_Tree_iterator@V?$_Tree_val@U?$_Tree_simple_types@U?$pair@QEAXPEAVFileHandlerInstance@XMP_PLUGIN@@@std@@@std@@@std@@@1@V?$_Tree_const_iterator@V?$_Tree_val@U?$_Tree_simple_types@U?$pair@QEAXPEAVFileHandlerInstance@XMP_PLUGIN@@@std@@@std@@@std@@@1@AEAU?$pair@QEAXPEAVFileHandlerInstance@XMP_PLUGIN@@@1@PEAU?$_Tree_node@U?$pair@QEAXPEAVFileHandlerInstance@XMP_PLUGIN@@@std@@PEAX@1@@Z 000000018008fc74 f i PluginManager.obj
 0001:0008ee90       ??$_Buynode@AEBUpiecewise_construct_t@std@@V?$tuple@AEBK@2@V?$tuple@$$V@2@@?$_Tree_comp_alloc@V?$_Tmap_traits@KUFileHandlerPair@XMP_PLUGIN@@U?$less@K@std@@V?$allocator@U?$pair@$$CBKUFileHandlerPair@XMP_PLUGIN@@@std@@@4@$0A@@std@@@std@@QEAAPEAU?$_Tree_node@U?$pair@$$CBKUFileHandlerPair@XMP_PLUGIN@@@std@@PEAX@1@AEBUpiecewise_construct_t@1@$$QEAV?$tuple@AEBK@1@$$QEAV?$tuple@$$V@1@@Z 000000018008fe90 f i PluginManager.obj
 0001:0008eef8       ??$_Insert_nohint@AEAU?$pair@QEAXPEAVFileHandlerInstance@XMP_PLUGIN@@@std@@PEAU?$_Tree_node@U?$pair@QEAXPEAVFileHandlerInstance@XMP_PLUGIN@@@std@@PEAX@2@@?$_Tree@V?$_Tmap_traits@PEAXPEAVFileHandlerInstance@XMP_PLUGIN@@U?$less@PEAX@std@@V?$allocator@U?$pair@QEAXPEAVFileHandlerInstance@XMP_PLUGIN@@@std@@@4@$0A@@std@@@std@@IEAA?AU?$pair@V?$_Tree_iterator@V?$_Tree_val@U?$_Tree_simple_types@U?$pair@QEAXPEAVFileHandlerInstance@XMP_PLUGIN@@@std@@@std@@@std@@@std@@_N@1@_NAEAU?$pair@QEAXPEAVFileHandlerInstance@XMP_PLUGIN@@@1@PEAU?$_Tree_node@U?$pair@QEAXPEAVFileHandlerInstance@XMP_PLUGIN@@@std@@PEAX@1@@Z 000000018008fef8 f i PluginManager.obj
 0001:0008f01c       ??1FileHandler@XMP_PLUGIN@@UEAA@XZ 000000018009001c f i XMPAtoms.obj
 0001:0008f0c0       ??_GFileHandler@XMP_PLUGIN@@UEAAPEAXI@Z 00000001800900c0 f i XMPAtoms.obj
 0001:0008f0c0       ??_EFileHandler@XMP_PLUGIN@@UEAAPEAXI@Z 00000001800900c0 f i * CIL library *:* CIL module *
 0001:0008f0f4       ?clear@ResourceParser@XMP_PLUGIN@@AEAAXXZ 00000001800900f4 f   XMPAtoms.obj
 0001:0008f1bc       ?parseElementAttrs@ResourceParser@XMP_PLUGIN@@AEAA_NPEBVXML_Node@@_N@Z 00000001800901bc f   XMPAtoms.obj
 0001:0008f764       ?parseElementList@ResourceParser@XMP_PLUGIN@@QEAAXPEBVXML_Node@@_N@Z 0000000180090764 f   XMPAtoms.obj
 0001:0008f95c       ?initialize@ResourceParser@XMP_PLUGIN@@SA_NXZ 000000018009095c f   XMPAtoms.obj
 0001:0008fadc       ?getXMPAtomFromString@ResourceParser@XMP_PLUGIN@@CAKAEBV?$basic_string@DU?$char_traits@D@std@@V?$allocator@D@2@@std@@@Z 0000000180090adc f   XMPAtoms.obj
 0001:0008fb68       ?getHandlerFlag@ResourceParser@XMP_PLUGIN@@CAKAEBV?$basic_string@DU?$char_traits@D@std@@V?$allocator@D@2@@std@@@Z 0000000180090b68 f   XMPAtoms.obj
 0001:0008fc24       ?getSerializeOption@ResourceParser@XMP_PLUGIN@@CAKAEBV?$basic_string@DU?$char_traits@D@std@@V?$allocator@D@2@@std@@@Z 0000000180090c24 f   XMPAtoms.obj
 0001:0008fce8       ?getPluginFileFormat@ResourceParser@XMP_PLUGIN@@SAKAEBV?$basic_string@DU?$char_traits@D@std@@V?$allocator@D@2@@std@@_N@Z 0000000180090ce8 f   XMPAtoms.obj
 0001:0008fee8       ?_Reserve@?$vector@UCheckFormat@XMP_PLUGIN@@V?$allocator@UCheckFormat@XMP_PLUGIN@@@std@@@std@@IEAAX_K@Z 0000000180090ee8 f i XMPAtoms.obj
 0001:0008ffa4       ?_Reallocate@?$vector@UCheckFormat@XMP_PLUGIN@@V?$allocator@UCheckFormat@XMP_PLUGIN@@@std@@@std@@IEAAX_K@Z 0000000180090fa4 f i XMPAtoms.obj
 0001:00090128       ??$?0U?$_Wrap_alloc@V?$allocator@U?$_Tree_node@KPEAX@std@@@std@@@std@@@?$_Tree@V?$_Tset_traits@KU?$less@K@std@@V?$allocator@K@2@$0A@@std@@@std@@QEAA@AEBV01@$$QEAU?$_Wrap_alloc@V?$allocator@U?$_Tree_node@KPEAX@std@@@std@@@1@@Z 0000000180091128 f i XMPAtoms.obj
 0001:000901e4       ??$_Resetp@VFileHandler@XMP_PLUGIN@@@?$shared_ptr@VFileHandler@XMP_PLUGIN@@@std@@AEAAXPEAVFileHandler@XMP_PLUGIN@@@Z 00000001800911e4 f i XMPAtoms.obj
 0001:00090274       ?_Destroy@?$_Ref_count@VFileHandler@XMP_PLUGIN@@@std@@EEAAXXZ 0000000180091274 f i XMPAtoms.obj
 0001:00090290       ??$_Copy_nodes@U_Copy_tag@?$_Tree@V?$_Tset_traits@KU?$less@K@std@@V?$allocator@K@2@$0A@@std@@@std@@@?$_Tree@V?$_Tset_traits@KU?$less@K@std@@V?$allocator@K@2@$0A@@std@@@std@@IEAAPEAU?$_Tree_node@KPEAX@1@PEAU21@0U_Copy_tag@01@@Z 0000000180091290 f i XMPAtoms.obj
 0001:0009032c       ??$_Buynode@AEBUpiecewise_construct_t@std@@V?$tuple@$$QEAV?$basic_string@DU?$char_traits@D@std@@V?$allocator@D@2@@std@@@2@V?$tuple@$$V@2@@?$_Tree_comp_alloc@V?$_Tmap_traits@V?$basic_string@DU?$char_traits@D@std@@V?$allocator@D@2@@std@@KUStringCompare@XMP_PLUGIN@@V?$allocator@U?$pair@$$CBV?$basic_string@DU?$char_traits@D@std@@V?$allocator@D@2@@std@@K@std@@@2@$0A@@std@@@std@@QEAAPEAU?$_Tree_node@U?$pair@$$CBV?$basic_string@DU?$char_traits@D@std@@V?$allocator@D@2@@std@@K@std@@PEAX@1@AEBUpiecewise_construct_t@1@$$QEAV?$tuple@$$QEAV?$basic_string@DU?$char_traits@D@std@@V?$allocator@D@2@@std@@@1@$$QEAV?$tuple@$$V@1@@Z 000000018009132c f i XMPAtoms.obj
 0001:00090378       ??$_Insert_hint@AEAU?$pair@$$CBV?$basic_string@DU?$char_traits@D@std@@V?$allocator@D@2@@std@@K@std@@PEAU?$_Tree_node@U?$pair@$$CBV?$basic_string@DU?$char_traits@D@std@@V?$allocator@D@2@@std@@K@std@@PEAX@2@@?$_Tree@V?$_Tmap_traits@V?$basic_string@DU?$char_traits@D@std@@V?$allocator@D@2@@std@@KUStringCompare@XMP_PLUGIN@@V?$allocator@U?$pair@$$CBV?$basic_string@DU?$char_traits@D@std@@V?$allocator@D@2@@std@@K@std@@@2@$0A@@std@@@std@@IEAA?AV?$_Tree_iterator@V?$_Tree_val@U?$_Tree_simple_types@U?$pair@$$CBV?$basic_string@DU?$char_traits@D@std@@V?$allocator@D@2@@std@@K@std@@@std@@@std@@@1@V?$_Tree_const_iterator@V?$_Tree_val@U?$_Tree_simple_types@U?$pair@$$CBV?$basic_string@DU?$char_traits@D@std@@V?$allocator@D@2@@std@@K@std@@@std@@@std@@@1@AEAU?$pair@$$CBV?$basic_string@DU?$char_traits@D@std@@V?$allocator@D@2@@std@@K@1@PEAU?$_Tree_node@U?$pair@$$CBV?$basic_string@DU?$char_traits@D@std@@V?$allocator@D@2@@std@@K@std@@PEAX@1@@Z 0000000180091378 f i XMPAtoms.obj
 0001:00090614       ??$_Buynode@AEBUpiecewise_construct_t@std@@V?$tuple@AEBV?$basic_string@DU?$char_traits@D@std@@V?$allocator@D@2@@std@@@2@V?$tuple@$$V@2@@?$_Tree_comp_alloc@V?$_Tmap_traits@V?$basic_string@DU?$char_traits@D@std@@V?$allocator@D@2@@std@@KUStringCompare@XMP_PLUGIN@@V?$allocator@U?$pair@$$CBV?$basic_string@DU?$char_traits@D@std@@V?$allocator@D@2@@std@@K@std@@@2@$0A@@std@@@std@@QEAAPEAU?$_Tree_node@U?$pair@$$CBV?$basic_string@DU?$char_traits@D@std@@V?$allocator@D@2@@std@@K@std@@PEAX@1@AEBUpiecewise_construct_t@1@$$QEAV?$tuple@AEBV?$basic_string@DU?$char_traits@D@std@@V?$allocator@D@2@@std@@@1@$$QEAV?$tuple@$$V@1@@Z 0000000180091614 f i XMPAtoms.obj
 0001:00090698       ??$_Uninitialized_move_al_unchecked1@PEAUCheckFormat@XMP_PLUGIN@@PEAU12@V?$allocator@UCheckFormat@XMP_PLUGIN@@@std@@@std@@YAPEAUCheckFormat@XMP_PLUGIN@@PEAU12@00AEAU?$_Wrap_alloc@V?$allocator@UCheckFormat@XMP_PLUGIN@@@std@@@0@U_General_ptr_iterator_tag@0@U_Any_tag@0@@Z 0000000180091698 f i XMPAtoms.obj
 0001:00090700       ??$_Insert_nohint@AEAU?$pair@$$CBV?$basic_string@DU?$char_traits@D@std@@V?$allocator@D@2@@std@@K@std@@PEAU?$_Tree_node@U?$pair@$$CBV?$basic_string@DU?$char_traits@D@std@@V?$allocator@D@2@@std@@K@std@@PEAX@2@@?$_Tree@V?$_Tmap_traits@V?$basic_string@DU?$char_traits@D@std@@V?$allocator@D@2@@std@@KUStringCompare@XMP_PLUGIN@@V?$allocator@U?$pair@$$CBV?$basic_string@DU?$char_traits@D@std@@V?$allocator@D@2@@std@@K@std@@@2@$0A@@std@@@std@@IEAA?AU?$pair@V?$_Tree_iterator@V?$_Tree_val@U?$_Tree_simple_types@U?$pair@$$CBV?$basic_string@DU?$char_traits@D@std@@V?$allocator@D@2@@std@@K@std@@@std@@@std@@@std@@_N@1@_NAEAU?$pair@$$CBV?$basic_string@DU?$char_traits@D@std@@V?$allocator@D@2@@std@@K@1@PEAU?$_Tree_node@U?$pair@$$CBV?$basic_string@DU?$char_traits@D@std@@V?$allocator@D@2@@std@@K@std@@PEAX@1@@Z 0000000180091700 f i XMPAtoms.obj
 0001:00090898       ?LoadModule@XMP_PLUGIN@@YAPEAUHINSTANCE__@@AEBV?$basic_string@DU?$char_traits@D@std@@V?$allocator@D@2@@std@@_N@Z 0000000180091898 f   OS_Utils_WIN.obj
 0001:00090958       ?GetResourceDataFromModule@XMP_PLUGIN@@YA_NPEAUHINSTANCE__@@AEBV?$basic_string@DU?$char_traits@D@std@@V?$allocator@D@2@@std@@1AEAV34@@Z 0000000180091958 f   OS_Utils_WIN.obj
 0001:00090e44       XML_ParserFree             0000000180091e44 f   xmlparse.obj
 0001:00090f8c       XML_Parse                  0000000180091f8c f   xmlparse.obj
 0001:0009110c       XML_ParseBuffer            000000018009210c f   xmlparse.obj
 0001:00091250       XML_GetBuffer              0000000180092250 f   xmlparse.obj
 0001:000a23b0       XmlUtf8Encode              00000001800a33b0 f   xmltok.obj
 0001:000a26d4       XmlInitUnknownEncoding     00000001800a36d4 f   xmltok.obj
 0001:000a2bcc       XmlInitEncoding            00000001800a3bcc f   xmltok.obj
 0001:000a2cf0       XmlParseXmlDecl            00000001800a3cf0 f   xmltok.obj
 0001:000a2db0       XmlInitEncodingNS          00000001800a3db0 f   xmltok.obj
 0001:000a2ed4       XmlParseXmlDeclNS          00000001800a3ed4 f   xmltok.obj
 0001:000a2f40       XmlInitUnknownEncodingNS   00000001800a3f40 f   xmltok.obj
 0001:000a2f5c       ??_EIMetadata@@UEAAPEAXI@Z 00000001800a3f5c f i * CIL library *:* CIL module *
 0001:000a2f5c       ??_GIMetadata@@UEAAPEAXI@Z 00000001800a3f5c f i IMetadata.cpp.obj
 0001:000a2f90       ??0IMetadata@@QEAA@XZ      00000001800a3f90 f   IMetadata.cpp.obj
 0001:000a2fd4       ??1IMetadata@@UEAA@XZ      00000001800a3fd4 f   IMetadata.cpp.obj
 0001:000a305c       ?serialize@IMetadata@@UEAA_KPEAPEAE@Z 00000001800a405c f   IMetadata.cpp.obj
 0001:000a305c       ?parse@IMetadata@@UEAAXPEBE_K@Z 00000001800a405c f   IMetadata.cpp.obj
 0001:000a305c       ?parse@IMetadata@@UEAAXPEAVXMP_IO@@@Z 00000001800a405c f   IMetadata.cpp.obj
 0001:000a308c       ?hasChanged@IMetadata@@UEBA_NXZ 00000001800a408c f   IMetadata.cpp.obj
 0001:000a30ec       ?resetChanges@IMetadata@@UEAAXXZ 00000001800a40ec f   IMetadata.cpp.obj
 0001:000a3148       ?isEmpty@IMetadata@@UEBA_NXZ 00000001800a4148 f   IMetadata.cpp.obj
 0001:000a3154       ?deleteValue@IMetadata@@UEAAXK@Z 00000001800a4154 f   IMetadata.cpp.obj
 0001:000a31d8       ?deleteAll@IMetadata@@UEAAXXZ 00000001800a41d8 f   IMetadata.cpp.obj
 0001:000a32bc       ?valueExists@IMetadata@@UEBA_NK@Z 00000001800a42bc f   IMetadata.cpp.obj
 0001:000a32fc       ?valueChanged@IMetadata@@UEBA_NK@Z 00000001800a42fc f   IMetadata.cpp.obj
 0001:000a3340       __acrt_initialize          00000001800a4340 f   MSVCRT:ucrt_stubs.obj
 0001:000a3340       __vcrt_initialize          00000001800a4340 f   MSVCRT:ucrt_stubs.obj
 0001:000a3340       __scrt_stub_for_acrt_thread_attach 00000001800a4340 f   MSVCRT:ucrt_stubs.obj
 0001:000a3340       __vcrt_thread_attach       00000001800a4340 f   MSVCRT:ucrt_stubs.obj
 0001:000a3340       __scrt_stub_for_acrt_uninitialize_critical 00000001800a4340 f   MSVCRT:ucrt_stubs.obj
 0001:000a3340       __vcrt_uninitialize_critical 00000001800a4340 f   MSVCRT:ucrt_stubs.obj
 0001:000a3340       __acrt_uninitialize        00000001800a4340 f   MSVCRT:ucrt_stubs.obj
 0001:000a3340       ?valueValid@IMetadata@@MEAA_NKPEAVValueObject@@@Z 00000001800a4340 f   IMetadata.cpp.obj
 0001:000a3340       __scrt_stub_for_acrt_initialize 00000001800a4340 f   MSVCRT:ucrt_stubs.obj
 0001:000a3340       __acrt_uninitialize_critical 00000001800a4340 f   MSVCRT:ucrt_stubs.obj
 0001:000a3340       __scrt_stub_for_acrt_thread_detach 00000001800a4340 f   MSVCRT:ucrt_stubs.obj
 0001:000a3340       __acrt_thread_detach       00000001800a4340 f   MSVCRT:ucrt_stubs.obj
 0001:000a3340       __vcrt_uninitialize        00000001800a4340 f   MSVCRT:ucrt_stubs.obj
 0001:000a3340       __vcrt_thread_detach       00000001800a4340 f   MSVCRT:ucrt_stubs.obj
 0001:000a3340       __scrt_stub_for_acrt_uninitialize 00000001800a4340 f   MSVCRT:ucrt_stubs.obj
 0001:000a3340       __acrt_thread_attach       00000001800a4340 f   MSVCRT:ucrt_stubs.obj
 0001:000a3360       __security_check_cookie    00000001800a4360 f   MSVCRT:_amdsecgs_.obj
 0001:000a3384       __raise_securityfailure    00000001800a4384 f   MSVCRT:gs_report.obj
 0001:000a33b8       __report_gsfailure         00000001800a43b8 f   MSVCRT:gs_report.obj
 0001:000a348c       __report_rangecheckfailure 00000001800a448c f   MSVCRT:gs_report.obj
 0001:000a34a0       __report_securityfailure   00000001800a44a0 f   MSVCRT:gs_report.obj
 0001:000a3768       _Init_thread_footer        00000001800a4768 f   MSVCRT:thread_safe_statics.obj
 0001:000a37c8       _Init_thread_header        00000001800a47c8 f   MSVCRT:thread_safe_statics.obj
 0001:000a3830       _Init_thread_notify        00000001800a4830 f   MSVCRT:thread_safe_statics.obj
 0001:000a388c       _Init_thread_wait          00000001800a488c f   MSVCRT:thread_safe_statics.obj
 0001:000a3924       ??2@YAPEAX_K@Z             00000001800a4924 f   MSVCRT:new_scalar.obj
 0001:000a3960       __scrt_acquire_startup_lock 00000001800a4960 f   MSVCRT:utility.obj
 0001:000a399c       __scrt_dllmain_after_initialize_c 00000001800a499c f   MSVCRT:utility.obj
 0001:000a39d0       __scrt_dllmain_before_initialize_c 00000001800a49d0 f   MSVCRT:utility.obj
 0001:000a39e8       __scrt_dllmain_crt_thread_attach 00000001800a49e8 f   MSVCRT:utility.obj
 0001:000a3a10       __scrt_dllmain_crt_thread_detach 00000001800a4a10 f   MSVCRT:utility.obj
 0001:000a3a28       __scrt_dllmain_exception_filter 00000001800a4a28 f   MSVCRT:utility.obj
 0001:000a3a8c       __scrt_dllmain_uninitialize_c 00000001800a4a8c f   MSVCRT:utility.obj
 0001:000a3abc       __scrt_dllmain_uninitialize_critical 00000001800a4abc f   MSVCRT:utility.obj
 0001:000a3ad0       __scrt_initialize_crt      00000001800a4ad0 f   MSVCRT:utility.obj
 0001:000a3b1c       __scrt_initialize_onexit_tables 00000001800a4b1c f   MSVCRT:utility.obj
 0001:000a3be8       __scrt_is_nonwritable_in_current_image 00000001800a4be8 f   MSVCRT:utility.obj
 0001:000a3c84       __scrt_release_startup_lock 00000001800a4c84 f   MSVCRT:utility.obj
 0001:000a3ca8       __scrt_uninitialize_crt    00000001800a4ca8 f   MSVCRT:utility.obj
 0001:000a3cd4       _onexit                    00000001800a4cd4 f   MSVCRT:utility.obj
 0001:000a3d24       atexit                     00000001800a4d24 f   MSVCRT:utility.obj
 0001:000a3d3c       ??3@YAXPEAX@Z              00000001800a4d3c f   MSVCRT:delete_scalar.obj
 0001:000a3d44       ??_Gtype_info@@UEAAPEAXI@Z 00000001800a4d44 f i MSVCRT:std_type_info_static.obj
 0001:000a3d44       ??_Etype_info@@UEAAPEAXI@Z 00000001800a4d44 f i MSVCRT:std_type_info_static.obj
 0001:000a3d70       ??_M@YAXPEAX_K1P6AX0@Z@Z   00000001800a4d70 f   MSVCRT:ehvecdtr.obj
 0001:000a3ddc       ?__ArrayUnwind@@YAXPEAX_K1P6AX0@Z@Z 00000001800a4ddc f   MSVCRT:ehvecdtr.obj
 0001:000a3e40       ??_L@YAXPEAX_K1P6AX0@Z2@Z  00000001800a4e40 f   MSVCRT:ehvecctr.obj
 0001:000a3eb0       ??_V@YAXPEAX@Z             00000001800a4eb0 f   MSVCRT:delete_array.obj
 0001:000a3eb0       ??3@YAXPEAX_K@Z            00000001800a4eb0 f   MSVCRT:delete_scalar_size.obj
 0001:000a3eb8       ??_U@YAPEAX_K@Z            00000001800a4eb8 f   MSVCRT:new_array.obj
 0001:000a3ec0       ??_V@YAXPEAX_K@Z           00000001800a4ec0 f   MSVCRT:delete_array_size.obj
 0001:000a4214       _DllMainCRTStartup         00000001800a5214 f   MSVCRT:dll_dllmain.obj
 0001:000a4254       __scrt_fastfail            00000001800a5254 f   MSVCRT:utility_desktop.obj
 0001:000a439c       _guard_check_icall         00000001800a539c f i MSVCRT:checkcfg.obj
 0001:000a43a4       ??0bad_alloc@std@@QEAA@AEBV01@@Z 00000001800a53a4 f i MSVCRT:throw_bad_alloc.obj
 0001:000a43e4       ??0bad_alloc@std@@QEAA@XZ  00000001800a53e4 f i MSVCRT:throw_bad_alloc.obj
 0001:000a4404       ??0bad_array_new_length@std@@QEAA@AEBV01@@Z 00000001800a5404 f i MSVCRT:throw_bad_alloc.obj
 0001:000a4444       ??0bad_array_new_length@std@@QEAA@XZ 00000001800a5444 f i MSVCRT:throw_bad_alloc.obj
 0001:000a4464       ??1bad_alloc@std@@UEAA@XZ  00000001800a5464 f i MSVCRT:throw_bad_alloc.obj
 0001:000a4464       ??1bad_array_new_length@std@@UEAA@XZ 00000001800a5464 f i MSVCRT:throw_bad_alloc.obj
 0001:000a4478       ??_Ebad_alloc@std@@UEAAPEAXI@Z 00000001800a5478 f i MSVCRT:throw_bad_alloc.obj
 0001:000a4478       ??_Ebad_array_new_length@std@@UEAAPEAXI@Z 00000001800a5478 f i MSVCRT:throw_bad_alloc.obj
 0001:000a4478       ??_Gbad_alloc@std@@UEAAPEAXI@Z 00000001800a5478 f i MSVCRT:throw_bad_alloc.obj
 0001:000a4478       ??_Gbad_array_new_length@std@@UEAAPEAXI@Z 00000001800a5478 f i MSVCRT:throw_bad_alloc.obj
 0001:000a44bc       ?__scrt_throw_std_bad_alloc@@YAXXZ 00000001800a54bc f   MSVCRT:throw_bad_alloc.obj
 0001:000a44dc       ?__scrt_throw_std_bad_array_new_length@@YAXXZ 00000001800a54dc f   MSVCRT:throw_bad_alloc.obj
 0001:000a44fc       __isa_available_init       00000001800a54fc f   MSVCRT:_cpu_disp_.obj
 0001:000a46c4       _get_startup_argv_mode     00000001800a56c4 f   MSVCRT:argv_mode.obj
 0001:000a46cc       __scrt_is_ucrt_dll_in_use  00000001800a56cc f   MSVCRT:ucrt_detection.obj
 0001:000a46d8       __security_init_cookie     00000001800a56d8 f   MSVCRT:gs_support.obj
 0001:000a4784       DllMain                    00000001800a5784 f   MSVCRT:dll_dllmain_stub.obj
 0001:000a47a8       ?__scrt_initialize_type_info@@YAXXZ 00000001800a57a8 f   MSVCRT:tncleanup.obj
 0001:000a47b8       ?__scrt_uninitialize_type_info@@YAXXZ 00000001800a57b8 f   MSVCRT:tncleanup.obj
 0001:000a47c4       __scrt_initialize_default_local_stdio_options 00000001800a57c4 f   MSVCRT:default_local_stdio_options.obj
 0001:000a47e0       __scrt_get_dyn_tls_init_callback 00000001800a57e0 f   MSVCRT:dyn_tls_init.obj
 0001:000a47e8       _RTC_Initialize            00000001800a57e8 f   MSVCRT:_initsect_.obj
 0001:000a4834       _RTC_Terminate             00000001800a5834 f   MSVCRT:_initsect_.obj
 0001:000a4880       ?_Lock@?$basic_streambuf@DU?$char_traits@D@std@@@std@@UEAAXXZ 00000001800a5880 f   msvcprt:MSVCP140.dll
 0001:000a4886       ?_Unlock@?$basic_streambuf@DU?$char_traits@D@std@@@std@@UEAAXXZ 00000001800a5886 f   msvcprt:MSVCP140.dll
 0001:000a488c       ?showmanyc@?$basic_streambuf@DU?$char_traits@D@std@@@std@@MEAA_JXZ 00000001800a588c f   msvcprt:MSVCP140.dll
 0001:000a4892       ?uflow@?$basic_streambuf@DU?$char_traits@D@std@@@std@@MEAAHXZ 00000001800a5892 f   msvcprt:MSVCP140.dll
 0001:000a4898       ?xsgetn@?$basic_streambuf@DU?$char_traits@D@std@@@std@@MEAA_JPEAD_J@Z 00000001800a5898 f   msvcprt:MSVCP140.dll
 0001:000a489e       ?xsputn@?$basic_streambuf@DU?$char_traits@D@std@@@std@@MEAA_JPEBD_J@Z 00000001800a589e f   msvcprt:MSVCP140.dll
 0001:000a48a4       ?setbuf@?$basic_streambuf@DU?$char_traits@D@std@@@std@@MEAAPEAV12@PEAD_J@Z 00000001800a58a4 f   msvcprt:MSVCP140.dll
 0001:000a48aa       ?sync@?$basic_streambuf@DU?$char_traits@D@std@@@std@@MEAAHXZ 00000001800a58aa f   msvcprt:MSVCP140.dll
 0001:000a48b0       ?imbue@?$basic_streambuf@DU?$char_traits@D@std@@@std@@MEAAXAEBVlocale@2@@Z 00000001800a58b0 f   msvcprt:MSVCP140.dll
 0001:000a48b6       memset                     00000001800a58b6 f   vcruntime:VCRUNTIME140.dll
 0001:000a48bc       _purecall                  00000001800a58bc f   vcruntime:VCRUNTIME140.dll
 0001:000a48c2       __std_terminate            00000001800a58c2 f   vcruntime:VCRUNTIME140.dll
 0001:000a48c8       __std_exception_destroy    00000001800a58c8 f   vcruntime:VCRUNTIME140.dll
 0001:000a48ce       __std_exception_copy       00000001800a58ce f   vcruntime:VCRUNTIME140.dll
 0001:000a48d4       __vcrt_InitializeCriticalSectionEx 00000001800a58d4 f   vcruntime:VCRUNTIME140.dll
 0001:000a48da       __C_specific_handler       00000001800a58da f   vcruntime:VCRUNTIME140.dll
 0001:000a48e0       _CxxThrowException         00000001800a58e0 f   vcruntime:VCRUNTIME140.dll
 0001:000a48e6       __std_type_info_destroy_list 00000001800a58e6 f   vcruntime:VCRUNTIME140.dll
 0001:000a48ec       free                       00000001800a58ec f   ucrt:api-ms-win-crt-heap-l1-1-0.dll
 0001:000a48f2       malloc                     00000001800a58f2 f   ucrt:api-ms-win-crt-heap-l1-1-0.dll
 0001:000a48f8       terminate                  00000001800a58f8 f   ucrt:api-ms-win-crt-runtime-l1-1-0.dll
 0001:000a48fe       __initialize_lconv_for_unsigned_char 00000001800a58fe f   ucrt:api-ms-win-crt-locale-l1-1-0.dll
 0001:000a4904       _callnewh                  00000001800a5904 f   ucrt:api-ms-win-crt-heap-l1-1-0.dll
 0001:000a490a       _seh_filter_dll            00000001800a590a f   ucrt:api-ms-win-crt-runtime-l1-1-0.dll
 0001:000a4910       _configure_narrow_argv     00000001800a5910 f   ucrt:api-ms-win-crt-runtime-l1-1-0.dll
 0001:000a4916       _initialize_narrow_environment 00000001800a5916 f   ucrt:api-ms-win-crt-runtime-l1-1-0.dll
 0001:000a491c       _initialize_onexit_table   00000001800a591c f   ucrt:api-ms-win-crt-runtime-l1-1-0.dll
 0001:000a4922       _register_onexit_function  00000001800a5922 f   ucrt:api-ms-win-crt-runtime-l1-1-0.dll
 0001:000a4928       _execute_onexit_table      00000001800a5928 f   ucrt:api-ms-win-crt-runtime-l1-1-0.dll
 0001:000a492e       _crt_atexit                00000001800a592e f   ucrt:api-ms-win-crt-runtime-l1-1-0.dll
 0001:000a4934       _cexit                     00000001800a5934 f   ucrt:api-ms-win-crt-runtime-l1-1-0.dll
 0001:000a493a       _initterm                  00000001800a593a f   ucrt:api-ms-win-crt-runtime-l1-1-0.dll
 0001:000a4940       _initterm_e                00000001800a5940 f   ucrt:api-ms-win-crt-runtime-l1-1-0.dll
 0001:000a4946       IsProcessorFeaturePresent  00000001800a5946 f   kernel32:KERNEL32.dll
 0001:000a494c       __GSHandlerCheck           00000001800a594c f   MSVCRT:_gshandler_.obj
 0001:000a496c       __GSHandlerCheckCommon     00000001800a596c f   MSVCRT:_gshandler_.obj
 0001:000a49c8       __GSHandlerCheck_EH        00000001800a59c8 f   MSVCRT:gshandlereh.obj
 0001:000a4a60       _alloca_probe              00000001800a5a60 f   MSVCRT:_chkstk_.obj
 0001:000a4a60       __chkstk                   00000001800a5a60 f   MSVCRT:_chkstk_.obj
 0001:000a4ab2       __CxxFrameHandler3         00000001800a5ab2 f   vcruntime:VCRUNTIME140.dll
 0001:000a4ab8       __RTDynamicCast            00000001800a5ab8 f   vcruntime:VCRUNTIME140.dll
 0001:000a4ad0       _guard_dispatch_icall_nop  00000001800a5ad0 f   MSVCRT:_guard_dispatch_.obj
 0001:000ad2dc       ??__Finstance@?1??getInstance@LittleEndian@@SAAEBV1@XZ@YAXXZ 00000001800ae2dc f i IReconcile.obj
 0001:000ad9d8       ??__Finstance@?1??getInstance@BigEndian@@SAAEBV1@XZ@YAXXZ 00000001800ae9d8 f i AIFF_Handler.obj
 0002:00000000       __imp_GetProcAddress       00000001800b0000     kernel32:KERNEL32.dll
 0002:00000008       __imp_LoadResource         00000001800b0008     kernel32:KERNEL32.dll
 0002:00000010       __imp_InitializeSListHead  00000001800b0010     kernel32:KERNEL32.dll
 0002:00000018       __imp_DisableThreadLibraryCalls 00000001800b0018     kernel32:KERNEL32.dll
 0002:00000020       __imp_GetSystemTimeAsFileTime 00000001800b0020     kernel32:KERNEL32.dll
 0002:00000028       __imp_GetCurrentThreadId   00000001800b0028     kernel32:KERNEL32.dll
 0002:00000030       __imp_GetCurrentProcessId  00000001800b0030     kernel32:KERNEL32.dll
 0002:00000038       __imp_IsDebuggerPresent    00000001800b0038     kernel32:KERNEL32.dll
 0002:00000040       __imp_GetModuleHandleW     00000001800b0040     kernel32:KERNEL32.dll
 0002:00000048       __imp_WaitForSingleObjectEx 00000001800b0048     kernel32:KERNEL32.dll
 0002:00000050       __imp_ResetEvent           00000001800b0050     kernel32:KERNEL32.dll
 0002:00000058       __imp_IsProcessorFeaturePresent 00000001800b0058     kernel32:KERNEL32.dll
 0002:00000060       __imp_TerminateProcess     00000001800b0060     kernel32:KERNEL32.dll
 0002:00000068       __imp_GetCurrentProcess    00000001800b0068     kernel32:KERNEL32.dll
 0002:00000070       __imp_SetUnhandledExceptionFilter 00000001800b0070     kernel32:KERNEL32.dll
 0002:00000078       __imp_UnhandledExceptionFilter 00000001800b0078     kernel32:KERNEL32.dll
 0002:00000080       __imp_RtlVirtualUnwind     00000001800b0080     kernel32:KERNEL32.dll
 0002:00000088       __imp_RtlLookupFunctionEntry 00000001800b0088     kernel32:KERNEL32.dll
 0002:00000090       __imp_RtlCaptureContext    00000001800b0090     kernel32:KERNEL32.dll
 0002:00000098       __imp_LockResource         00000001800b0098     kernel32:KERNEL32.dll
 0002:000000a0       __imp_FreeResource         00000001800b00a0     kernel32:KERNEL32.dll
 0002:000000a8       __imp_FindResourceA        00000001800b00a8     kernel32:KERNEL32.dll
 0002:000000b0       __imp_SizeofResource       00000001800b00b0     kernel32:KERNEL32.dll
 0002:000000b8       __imp_GetFileTime          00000001800b00b8     kernel32:KERNEL32.dll
 0002:000000c0       __imp_MoveFileW            00000001800b00c0     kernel32:KERNEL32.dll
 0002:000000c8       __imp_WideCharToMultiByte  00000001800b00c8     kernel32:KERNEL32.dll
 0002:000000d0       __imp_SetFilePointerEx     00000001800b00d0     kernel32:KERNEL32.dll
 0002:000000d8       __imp_DeleteFileW          00000001800b00d8     kernel32:KERNEL32.dll
 0002:000000e0       __imp_FileTimeToSystemTime 00000001800b00e0     kernel32:KERNEL32.dll
 0002:000000e8       __imp_GetLastError         00000001800b00e8     kernel32:KERNEL32.dll
 0002:000000f0       __imp_MultiByteToWideChar  00000001800b00f0     kernel32:KERNEL32.dll
 0002:000000f8       __imp_GetFileAttributesW   00000001800b00f8     kernel32:KERNEL32.dll
 0002:00000100       __imp_CreateFileW          00000001800b0100     kernel32:KERNEL32.dll
 0002:00000108       __imp_FindClose            00000001800b0108     kernel32:KERNEL32.dll
 0002:00000110       __imp_SetEndOfFile         00000001800b0110     kernel32:KERNEL32.dll
 0002:00000118       __imp_FindNextFileW        00000001800b0118     kernel32:KERNEL32.dll
 0002:00000120       __imp_GetFileSizeEx        00000001800b0120     kernel32:KERNEL32.dll
 0002:00000128       __imp_FindFirstFileW       00000001800b0128     kernel32:KERNEL32.dll
 0002:00000130       __imp_ReadFile             00000001800b0130     kernel32:KERNEL32.dll
 0002:00000138       __imp_DeleteCriticalSection 00000001800b0138     kernel32:KERNEL32.dll
 0002:00000140       __imp_CloseHandle          00000001800b0140     kernel32:KERNEL32.dll
 0002:00000148       __imp_SetEvent             00000001800b0148     kernel32:KERNEL32.dll
 0002:00000150       __imp_CreateEventW         00000001800b0150     kernel32:KERNEL32.dll
 0002:00000158       __imp_WaitForSingleObject  00000001800b0158     kernel32:KERNEL32.dll
 0002:00000160       __imp_InitializeCriticalSection 00000001800b0160     kernel32:KERNEL32.dll
 0002:00000168       __imp_LeaveCriticalSection 00000001800b0168     kernel32:KERNEL32.dll
 0002:00000170       __imp_EnterCriticalSection 00000001800b0170     kernel32:KERNEL32.dll
 0002:00000178       __imp_QueryPerformanceCounter 00000001800b0178     kernel32:KERNEL32.dll
 0002:00000180       __imp_QueryPerformanceFrequency 00000001800b0180     kernel32:KERNEL32.dll
 0002:00000188       __imp_FreeLibrary          00000001800b0188     kernel32:KERNEL32.dll
 0002:00000190       __imp_LoadLibraryExW       00000001800b0190     kernel32:KERNEL32.dll
 0002:00000198       __imp_WriteFile            00000001800b0198     kernel32:KERNEL32.dll
 0002:000001a0       \177KERNEL32_NULL_THUNK_DATA 00000001800b01a0     kernel32:KERNEL32.dll
 0002:000001a8       __imp_?uflow@?$basic_streambuf@DU?$char_traits@D@std@@@std@@MEAAHXZ 00000001800b01a8     msvcprt:MSVCP140.dll
 0002:000001b0       __imp_?showmanyc@?$basic_streambuf@DU?$char_traits@D@std@@@std@@MEAA_JXZ 00000001800b01b0     msvcprt:MSVCP140.dll
 0002:000001b8       __imp_?_Unlock@?$basic_streambuf@DU?$char_traits@D@std@@@std@@UEAAXXZ 00000001800b01b8     msvcprt:MSVCP140.dll
 0002:000001c0       __imp_?_Lock@?$basic_streambuf@DU?$char_traits@D@std@@@std@@UEAAXXZ 00000001800b01c0     msvcprt:MSVCP140.dll
 0002:000001c8       __imp_??1?$basic_streambuf@DU?$char_traits@D@std@@@std@@UEAA@XZ 00000001800b01c8     msvcprt:MSVCP140.dll
 0002:000001d0       __imp_?clear@?$basic_ios@DU?$char_traits@D@std@@@std@@QEAAXH_N@Z 00000001800b01d0     msvcprt:MSVCP140.dll
 0002:000001d8       __imp_??1?$basic_ios@DU?$char_traits@D@std@@@std@@UEAA@XZ 00000001800b01d8     msvcprt:MSVCP140.dll
 0002:000001e0       __imp_??0?$basic_iostream@DU?$char_traits@D@std@@@std@@QEAA@PEAV?$basic_streambuf@DU?$char_traits@D@std@@@1@@Z 00000001800b01e0     msvcprt:MSVCP140.dll
 0002:000001e8       __imp_??0?$basic_ostream@DU?$char_traits@D@std@@@std@@QEAA@PEAV?$basic_streambuf@DU?$char_traits@D@std@@@1@_N@Z 00000001800b01e8     msvcprt:MSVCP140.dll
 0002:000001f0       __imp_?pbump@?$basic_streambuf@DU?$char_traits@D@std@@@std@@IEAAXH@Z 00000001800b01f0     msvcprt:MSVCP140.dll
 0002:000001f8       __imp_?gbump@?$basic_streambuf@DU?$char_traits@D@std@@@std@@IEAAXH@Z 00000001800b01f8     msvcprt:MSVCP140.dll
 0002:00000200       __imp_??0?$basic_ios@DU?$char_traits@D@std@@@std@@IEAA@XZ 00000001800b0200     msvcprt:MSVCP140.dll
 0002:00000208       __imp_?xsputn@?$basic_streambuf@DU?$char_traits@D@std@@@std@@MEAA_JPEBD_J@Z 00000001800b0208     msvcprt:MSVCP140.dll
 0002:00000210       __imp_?flush@?$basic_ostream@DU?$char_traits@D@std@@@std@@QEAAAEAV12@XZ 00000001800b0210     msvcprt:MSVCP140.dll
 0002:00000218       __imp_?_Osfx@?$basic_ostream@DU?$char_traits@D@std@@@std@@QEAAXXZ 00000001800b0218     msvcprt:MSVCP140.dll
 0002:00000220       __imp_??0?$basic_streambuf@DU?$char_traits@D@std@@@std@@IEAA@XZ 00000001800b0220     msvcprt:MSVCP140.dll
 0002:00000228       __imp_?sputc@?$basic_streambuf@DU?$char_traits@D@std@@@std@@QEAAHD@Z 00000001800b0228     msvcprt:MSVCP140.dll
 0002:00000230       __imp_?sputn@?$basic_streambuf@DU?$char_traits@D@std@@@std@@QEAA_JPEBD_J@Z 00000001800b0230     msvcprt:MSVCP140.dll
 0002:00000238       __imp_?_BADOFF@std@@3_JB   00000001800b0238     msvcprt:MSVCP140.dll
 0002:00000240       __imp_?uncaught_exception@std@@YA_NXZ 00000001800b0240     msvcprt:MSVCP140.dll
 0002:00000248       __imp_?_Xlength_error@std@@YAXPEBD@Z 00000001800b0248     msvcprt:MSVCP140.dll
 0002:00000250       __imp_?_Xout_of_range@std@@YAXPEBD@Z 00000001800b0250     msvcprt:MSVCP140.dll
 0002:00000258       __imp_?_Xbad_alloc@std@@YAXXZ 00000001800b0258     msvcprt:MSVCP140.dll
 0002:00000260       __imp_?setbuf@?$basic_streambuf@DU?$char_traits@D@std@@@std@@MEAAPEAV12@PEAD_J@Z 00000001800b0260     msvcprt:MSVCP140.dll
 0002:00000268       __imp_?sync@?$basic_streambuf@DU?$char_traits@D@std@@@std@@MEAAHXZ 00000001800b0268     msvcprt:MSVCP140.dll
 0002:00000270       __imp_?imbue@?$basic_streambuf@DU?$char_traits@D@std@@@std@@MEAAXAEBVlocale@2@@Z 00000001800b0270     msvcprt:MSVCP140.dll
 0002:00000278       __imp_??5?$basic_istream@DU?$char_traits@D@std@@@std@@QEAAAEAV01@AEAK@Z 00000001800b0278     msvcprt:MSVCP140.dll
 0002:00000280       __imp_??1?$basic_ostream@DU?$char_traits@D@std@@@std@@UEAA@XZ 00000001800b0280     msvcprt:MSVCP140.dll
 0002:00000288       __imp_??6?$basic_ostream@DU?$char_traits@D@std@@@std@@QEAAAEAV01@K@Z 00000001800b0288     msvcprt:MSVCP140.dll
 0002:00000290       __imp_??1?$basic_iostream@DU?$char_traits@D@std@@@std@@UEAA@XZ 00000001800b0290     msvcprt:MSVCP140.dll
 0002:00000298       __imp_??6?$basic_ostream@DU?$char_traits@D@std@@@std@@QEAAAEAV01@J@Z 00000001800b0298     msvcprt:MSVCP140.dll
 0002:000002a0       __imp_?put@?$basic_ostream@DU?$char_traits@D@std@@@std@@QEAAAEAV12@D@Z 00000001800b02a0     msvcprt:MSVCP140.dll
 0002:000002a8       __imp_?setw@std@@YA?AU?$_Smanip@_J@1@_J@Z 00000001800b02a8     msvcprt:MSVCP140.dll
 0002:000002b0       __imp_??6?$basic_ostream@DU?$char_traits@D@std@@@std@@QEAAAEAV01@H@Z 00000001800b02b0     msvcprt:MSVCP140.dll
 0002:000002b8       __imp_?xsgetn@?$basic_streambuf@DU?$char_traits@D@std@@@std@@MEAA_JPEAD_J@Z 00000001800b02b8     msvcprt:MSVCP140.dll
 0002:000002c0       __imp_?setstate@?$basic_ios@DU?$char_traits@D@std@@@std@@QEAAXH_N@Z 00000001800b02c0     msvcprt:MSVCP140.dll
 0002:000002c8       \177MSVCP140_NULL_THUNK_DATA 00000001800b02c8     msvcprt:MSVCP140.dll
 0002:000002d0       __imp_memcpy               00000001800b02d0     vcruntime:VCRUNTIME140.dll
 0002:000002d8       __imp_memset               00000001800b02d8     vcruntime:VCRUNTIME140.dll
 0002:000002e0       __imp_memmove              00000001800b02e0     vcruntime:VCRUNTIME140.dll
 0002:000002e8       __imp__purecall            00000001800b02e8     vcruntime:VCRUNTIME140.dll
 0002:000002f0       __imp_memcmp               00000001800b02f0     vcruntime:VCRUNTIME140.dll
 0002:000002f8       __imp___std_terminate      00000001800b02f8     vcruntime:VCRUNTIME140.dll
 0002:00000300       __imp_memchr               00000001800b0300     vcruntime:VCRUNTIME140.dll
 0002:00000308       __imp___std_type_info_compare 00000001800b0308     vcruntime:VCRUNTIME140.dll
 0002:00000310       __imp___RTtypeid           00000001800b0310     vcruntime:VCRUNTIME140.dll
 0002:00000318       __imp___std_exception_destroy 00000001800b0318     vcruntime:VCRUNTIME140.dll
 0002:00000320       __imp___std_exception_copy 00000001800b0320     vcruntime:VCRUNTIME140.dll
 0002:00000328       __imp___vcrt_InitializeCriticalSectionEx 00000001800b0328     vcruntime:VCRUNTIME140.dll
 0002:00000330       __imp___C_specific_handler 00000001800b0330     vcruntime:VCRUNTIME140.dll
 0002:00000338       __imp__CxxThrowException   00000001800b0338     vcruntime:VCRUNTIME140.dll
 0002:00000340       __imp___std_type_info_destroy_list 00000001800b0340     vcruntime:VCRUNTIME140.dll
 0002:00000348       __imp___CxxFrameHandler3   00000001800b0348     vcruntime:VCRUNTIME140.dll
 0002:00000350       __imp___RTDynamicCast      00000001800b0350     vcruntime:VCRUNTIME140.dll
 0002:00000358       \177VCRUNTIME140_NULL_THUNK_DATA 00000001800b0358     vcruntime:VCRUNTIME140.dll
 0002:00000360       __imp_WXMPMeta_GetXMPDOMFactoryInstance_1 00000001800b0360     XMPCore:XMPCore.dll
 0002:00000368       __imp_XMP_NewExpatAdapter  00000001800b0368     XMPCore:XMPCore.dll
 0002:00000370       __imp_WXMPMeta_AppendArrayItem_1 00000001800b0370     XMPCore:XMPCore.dll
 0002:00000378       __imp_WXMPMeta_GetArrayItem_1 00000001800b0378     XMPCore:XMPCore.dll
 0002:00000380       __imp_WXMPUtils_RemoveProperties_1 00000001800b0380     XMPCore:XMPCore.dll
 0002:00000388       __imp_WXMPMeta_GetProperty_Int_1 00000001800b0388     XMPCore:XMPCore.dll
 0002:00000390       __imp_WXMPMeta_Clone_1     00000001800b0390     XMPCore:XMPCore.dll
 0002:00000398       __imp_WXMPMeta_SetProperty_Date_1 00000001800b0398     XMPCore:XMPCore.dll
 0002:000003a0       __imp_WXMPMeta_SetProperty_1 00000001800b03a0     XMPCore:XMPCore.dll
 0002:000003a8       __imp_WXMPMeta_CTor_1      00000001800b03a8     XMPCore:XMPCore.dll
 0002:000003b0       __imp_WXMPMeta_DeleteProperty_1 00000001800b03b0     XMPCore:XMPCore.dll
 0002:000003b8       __imp_WXMPMeta_DeleteLocalizedText_1 00000001800b03b8     XMPCore:XMPCore.dll
 0002:000003c0       __imp_WXMPMeta_SetProperty_Float_1 00000001800b03c0     XMPCore:XMPCore.dll
 0002:000003c8       __imp_WXMPUtils_CatenateArrayItems_1 00000001800b03c8     XMPCore:XMPCore.dll
 0002:000003d0       __imp_WXMPUtils_ComposeStructFieldPath_1 00000001800b03d0     XMPCore:XMPCore.dll
 0002:000003d8       __imp_WXMPUtils_ConvertToBool_1 00000001800b03d8     XMPCore:XMPCore.dll
 0002:000003e0       __imp_WXMPMeta_GetProperty_Bool_1 00000001800b03e0     XMPCore:XMPCore.dll
 0002:000003e8       __imp_WXMPMeta_SerializeToBuffer_1 00000001800b03e8     XMPCore:XMPCore.dll
 0002:000003f0       __imp_WXMPMeta_SetLocalizedText_1 00000001800b03f0     XMPCore:XMPCore.dll
 0002:000003f8       __imp_WXMPUtils_ConvertFromFloat_1 00000001800b03f8     XMPCore:XMPCore.dll
 0002:00000400       __imp_WXMPMeta_GetQualifier_1 00000001800b0400     XMPCore:XMPCore.dll
 0002:00000408       __imp_WXMPMeta_SetProperty_Bool_1 00000001800b0408     XMPCore:XMPCore.dll
 0002:00000410       __imp_WXMPUtils_SeparateArrayItems_1 00000001800b0410     XMPCore:XMPCore.dll
 0002:00000418       __imp_WXMPUtils_ConvertFromInt_1 00000001800b0418     XMPCore:XMPCore.dll
 0002:00000420       __imp_WXMPMeta_GetProperty_Date_1 00000001800b0420     XMPCore:XMPCore.dll
 0002:00000428       __imp_WXMPMeta_SetProperty_Int64_1 00000001800b0428     XMPCore:XMPCore.dll
 0002:00000430       __imp_WXMPMeta_IncrementRefCount_1 00000001800b0430     XMPCore:XMPCore.dll
 0002:00000438       __imp_WXMPMeta_Terminate_1 00000001800b0438     XMPCore:XMPCore.dll
 0002:00000440       __imp_WXMPMeta_SetErrorCallback_1 00000001800b0440     XMPCore:XMPCore.dll
 0002:00000448       __imp_WXMPUtils_ApplyTemplate_1 00000001800b0448     XMPCore:XMPCore.dll
 0002:00000450       __imp_WXMPUtils_ComposeArrayItemPath_1 00000001800b0450     XMPCore:XMPCore.dll
 0002:00000458       __imp_WXMPMeta_DoesStructFieldExist_1 00000001800b0458     XMPCore:XMPCore.dll
 0002:00000460       __imp_WXMPMeta_Erase_1     00000001800b0460     XMPCore:XMPCore.dll
 0002:00000468       __imp_WXMPUtils_ConvertToUTCTime_1 00000001800b0468     XMPCore:XMPCore.dll
 0002:00000470       __imp_WXMPMeta_ParseFromBuffer_1 00000001800b0470     XMPCore:XMPCore.dll
 0002:00000478       __imp_WXMPMeta_GetLocalizedText_1 00000001800b0478     XMPCore:XMPCore.dll
 0002:00000480       __imp_WXMPMeta_DoesPropertyExist_1 00000001800b0480     XMPCore:XMPCore.dll
 0002:00000488       __imp_WXMPUtils_ConvertFromDate_1 00000001800b0488     XMPCore:XMPCore.dll
 0002:00000490       __imp_WXMPMeta_DoesArrayItemExist_1 00000001800b0490     XMPCore:XMPCore.dll
 0002:00000498       __imp_WXMPMeta_GetProperty_1 00000001800b0498     XMPCore:XMPCore.dll
 0002:000004a0       __imp_WXMPMeta_DecrementRefCount_1 00000001800b04a0     XMPCore:XMPCore.dll
 0002:000004a8       __imp_WXMPUtils_ConvertToDate_1 00000001800b04a8     XMPCore:XMPCore.dll
 0002:000004b0       __imp_WXMPMeta_SetProperty_Int_1 00000001800b04b0     XMPCore:XMPCore.dll
 0002:000004b8       __imp_WXMPUtils_MergeFromJPEG_1 00000001800b04b8     XMPCore:XMPCore.dll
 0002:000004c0       __imp_WXMPMeta_CountArrayItems_1 00000001800b04c0     XMPCore:XMPCore.dll
 0002:000004c8       __imp_WXMPUtils_ConvertToInt64_1 00000001800b04c8     XMPCore:XMPCore.dll
 0002:000004d0       __imp_WXMPMeta_Initialize_1 00000001800b04d0     XMPCore:XMPCore.dll
 0002:000004d8       __imp_WXMPUtils_ConvertFromBool_1 00000001800b04d8     XMPCore:XMPCore.dll
 0002:000004e0       __imp_WXMPMeta_RegisterNamespace_1 00000001800b04e0     XMPCore:XMPCore.dll
 0002:000004e8       __imp_WXMPUtils_PackageForJPEG_1 00000001800b04e8     XMPCore:XMPCore.dll
 0002:000004f0       __imp_WXMPMeta_GetStructField_1 00000001800b04f0     XMPCore:XMPCore.dll
 0002:000004f8       __imp_WXMPUtils_ConvertToInt_1 00000001800b04f8     XMPCore:XMPCore.dll
 0002:00000500       __imp_WXMPUtils_ConvertFromInt64_1 00000001800b0500     XMPCore:XMPCore.dll
 0002:00000508       __imp_WXMPUtils_CurrentDateTime_1 00000001800b0508     XMPCore:XMPCore.dll
 0002:00000510       __imp_WXMPUtils_DuplicateSubtree_1 00000001800b0510     XMPCore:XMPCore.dll
 0002:00000518       __imp_WXMPMeta_GetProperty_Int64_1 00000001800b0518     XMPCore:XMPCore.dll
 0002:00000520       __imp_WXMPMeta_SetStructField_1 00000001800b0520     XMPCore:XMPCore.dll
 0002:00000528       __imp_WXMPUtils_CompareDateTime_1 00000001800b0528     XMPCore:XMPCore.dll
 0002:00000530       \177XMPCore_NULL_THUNK_DATA 00000001800b0530     XMPCore:XMPCore.dll
 0002:00000538       __imp_strtoul              00000001800b0538     ucrt:api-ms-win-crt-convert-l1-1-0.dll
 0002:00000540       __imp_atoi                 00000001800b0540     ucrt:api-ms-win-crt-convert-l1-1-0.dll
 0002:00000548       \177api-ms-win-crt-convert-l1-1-0_NULL_THUNK_DATA 00000001800b0548     ucrt:api-ms-win-crt-convert-l1-1-0.dll
 0002:00000550       __imp_free                 00000001800b0550     ucrt:api-ms-win-crt-heap-l1-1-0.dll
 0002:00000558       __imp_realloc              00000001800b0558     ucrt:api-ms-win-crt-heap-l1-1-0.dll
 0002:00000560       __imp__callnewh            00000001800b0560     ucrt:api-ms-win-crt-heap-l1-1-0.dll
 0002:00000568       __imp_malloc               00000001800b0568     ucrt:api-ms-win-crt-heap-l1-1-0.dll
 0002:00000570       \177api-ms-win-crt-heap-l1-1-0_NULL_THUNK_DATA 00000001800b0570     ucrt:api-ms-win-crt-heap-l1-1-0.dll
 0002:00000578       __imp___initialize_lconv_for_unsigned_char 00000001800b0578     ucrt:api-ms-win-crt-locale-l1-1-0.dll
 0002:00000580       \177api-ms-win-crt-locale-l1-1-0_NULL_THUNK_DATA 00000001800b0580     ucrt:api-ms-win-crt-locale-l1-1-0.dll
 0002:00000588       __imp_modf                 00000001800b0588     ucrt:api-ms-win-crt-math-l1-1-0.dll
 0002:00000590       \177api-ms-win-crt-math-l1-1-0_NULL_THUNK_DATA 00000001800b0590     ucrt:api-ms-win-crt-math-l1-1-0.dll
 0002:00000598       __imp__initialize_narrow_environment 00000001800b0598     ucrt:api-ms-win-crt-runtime-l1-1-0.dll
 0002:000005a0       __imp__configure_narrow_argv 00000001800b05a0     ucrt:api-ms-win-crt-runtime-l1-1-0.dll
 0002:000005a8       __imp__execute_onexit_table 00000001800b05a8     ucrt:api-ms-win-crt-runtime-l1-1-0.dll
 0002:000005b0       __imp__crt_atexit          00000001800b05b0     ucrt:api-ms-win-crt-runtime-l1-1-0.dll
 0002:000005b8       __imp__cexit               00000001800b05b8     ucrt:api-ms-win-crt-runtime-l1-1-0.dll
 0002:000005c0       __imp__seh_filter_dll      00000001800b05c0     ucrt:api-ms-win-crt-runtime-l1-1-0.dll
 0002:000005c8       __imp__initterm_e          00000001800b05c8     ucrt:api-ms-win-crt-runtime-l1-1-0.dll
 0002:000005d0       __imp_terminate            00000001800b05d0     ucrt:api-ms-win-crt-runtime-l1-1-0.dll
 0002:000005d8       __imp__invalid_parameter_noinfo_noreturn 00000001800b05d8     ucrt:api-ms-win-crt-runtime-l1-1-0.dll
 0002:000005e0       __imp__register_onexit_function 00000001800b05e0     ucrt:api-ms-win-crt-runtime-l1-1-0.dll
 0002:000005e8       __imp__initialize_onexit_table 00000001800b05e8     ucrt:api-ms-win-crt-runtime-l1-1-0.dll
 0002:000005f0       __imp__initterm            00000001800b05f0     ucrt:api-ms-win-crt-runtime-l1-1-0.dll
 0002:000005f8       \177api-ms-win-crt-runtime-l1-1-0_NULL_THUNK_DATA 00000001800b05f8     ucrt:api-ms-win-crt-runtime-l1-1-0.dll
 0002:00000600       __imp___stdio_common_vsprintf 00000001800b0600     ucrt:api-ms-win-crt-stdio-l1-1-0.dll
 0002:00000608       __imp___stdio_common_vsscanf 00000001800b0608     ucrt:api-ms-win-crt-stdio-l1-1-0.dll
 0002:00000610       \177api-ms-win-crt-stdio-l1-1-0_NULL_THUNK_DATA 00000001800b0610     ucrt:api-ms-win-crt-stdio-l1-1-0.dll
 0002:00000618       __imp_strcmp               00000001800b0618     ucrt:api-ms-win-crt-string-l1-1-0.dll
 0002:00000620       __imp_strncmp              00000001800b0620     ucrt:api-ms-win-crt-string-l1-1-0.dll
 0002:00000628       __imp__stricmp             00000001800b0628     ucrt:api-ms-win-crt-string-l1-1-0.dll
 0002:00000630       __imp_tolower              00000001800b0630     ucrt:api-ms-win-crt-string-l1-1-0.dll
 0002:00000638       __imp_strnlen              00000001800b0638     ucrt:api-ms-win-crt-string-l1-1-0.dll
 0002:00000640       __imp_strlen               00000001800b0640     ucrt:api-ms-win-crt-string-l1-1-0.dll
 0002:00000648       __imp_strncpy              00000001800b0648     ucrt:api-ms-win-crt-string-l1-1-0.dll
 0002:00000650       \177api-ms-win-crt-string-l1-1-0_NULL_THUNK_DATA 00000001800b0650     ucrt:api-ms-win-crt-string-l1-1-0.dll
 0002:00000658       __imp__time64              00000001800b0658     ucrt:api-ms-win-crt-time-l1-1-0.dll
 0002:00000660       \177api-ms-win-crt-time-l1-1-0_NULL_THUNK_DATA 00000001800b0660     ucrt:api-ms-win-crt-time-l1-1-0.dll
 0002:00000668       __imp_llabs                00000001800b0668     ucrt:api-ms-win-crt-utility-l1-1-0.dll
 0002:00000670       __imp_srand                00000001800b0670     ucrt:api-ms-win-crt-utility-l1-1-0.dll
 0002:00000678       __imp_rand                 00000001800b0678     ucrt:api-ms-win-crt-utility-l1-1-0.dll
 0002:00000680       \177api-ms-win-crt-utility-l1-1-0_NULL_THUNK_DATA 00000001800b0680     ucrt:api-ms-win-crt-utility-l1-1-0.dll
 0002:00000688       __guard_check_icall_fptr   00000001800b0688     MSVCRT:guard_support.obj
 0002:00000690       __guard_dispatch_icall_fptr 00000001800b0690     MSVCRT:guard_support.obj
 0002:00000698       __xc_a                     00000001800b0698     MSVCRT:initializers.obj
 0002:00000988       __xc_z                     00000001800b0988     MSVCRT:initializers.obj
 0002:00000990       __xi_a                     00000001800b0990     MSVCRT:initializers.obj
 0002:000009a8       __xi_z                     00000001800b09a8     MSVCRT:initializers.obj
 0002:000009b0       __xl_a                     00000001800b09b0     MSVCRT:tlssup.obj
 0002:000009b8       __xl_z                     00000001800b09b8     MSVCRT:tlssup.obj
 0002:000009c0       __xp_a                     00000001800b09c0     MSVCRT:initializers.obj
 0002:000009c8       __xp_z                     00000001800b09c8     MSVCRT:initializers.obj
 0002:000009d0       __xt_a                     00000001800b09d0     MSVCRT:initializers.obj
 0002:000009d8       __xt_z                     00000001800b09d8     MSVCRT:initializers.obj
 0002:000009e0       GUID_NULL                  00000001800b09e0     uuid:cguid_i.obj
 0002:00000a00       ??_C@_1BK@MGMFAEKH@?$AAk?$AAe?$AAr?$AAn?$AAe?$AAl?$AA3?$AA2?$AA?4?$AAd?$AAl?$AAl?$AA?$AA@ 00000001800b0a00     MSVCRT:thread_safe_statics.obj
 0002:00000a20       ??_C@_0BM@HLJJNPAH@InitializeConditionVariable?$AA@ 00000001800b0a20     MSVCRT:thread_safe_statics.obj
 0002:00000a40       ??_C@_0BJ@JEBJOJFJ@SleepConditionVariableCS?$AA@ 00000001800b0a40     MSVCRT:thread_safe_statics.obj
 0002:00000a60       ??_C@_0BJ@PGPPEPCC@WakeAllConditionVariable?$AA@ 00000001800b0a60     MSVCRT:thread_safe_statics.obj
 0002:00000a88       ??_7type_info@@6B@         00000001800b0a88     MSVCRT:std_type_info_static.obj
 0002:00000a90       _pDefaultRawDllMain        00000001800b0a90     MSVCRT:dll_dllmain.obj
 0002:00000a90       _pRawDllMain               00000001800b0a90     MSVCRT:dll_dllmain.obj
 0002:00000aa0       ??_7exception@std@@6B@     00000001800b0aa0     MSVCRT:throw_bad_alloc.obj
 0002:00000ab8       ??_7bad_alloc@std@@6B@     00000001800b0ab8     MSVCRT:throw_bad_alloc.obj
 0002:00000ac8       ??_C@_0P@GHFPNOJB@bad?5allocation?$AA@ 00000001800b0ac8     MSVCRT:throw_bad_alloc.obj
 0002:00000ae0       ??_7bad_array_new_length@std@@6B@ 00000001800b0ae0     MSVCRT:throw_bad_alloc.obj
 0002:00000af0       ??_C@_0BF@KINCDENJ@bad?5array?5new?5length?$AA@ 00000001800b0af0     MSVCRT:throw_bad_alloc.obj
 0002:00003e10       _length_code               00000001800b3e10     trees.obj
 0002:00003f10       _dist_code                 00000001800b3f10     trees.obj
 0002:00004258       ?kXMPFiles_EmbeddedCopyright@@3PEBDEB 00000001800b4258     XMPFiles.obj
 0002:000042d8       ?kXMPFiles_EmbeddedVersion@@3PEBDEB 00000001800b42d8     XMPFiles.obj
 0002:00004890       z_errmsg                   00000001800b4890     zutil.obj
 0002:00004a28       ?kAIFCAnno@AIFF_MetaHandler@@0QBUChunkIdentifier@IFF_RIFF@@B 00000001800b4a28     AIFF_Handler.obj
 0002:00004b58       ?kAIFFAnno@AIFF_MetaHandler@@0QBUChunkIdentifier@IFF_RIFF@@B 00000001800b4b58     AIFF_Handler.obj
 0002:00004bb8       ?kAIFCName@AIFF_MetaHandler@@0QBUChunkIdentifier@IFF_RIFF@@B 00000001800b4bb8     AIFF_Handler.obj
 0002:00004bd0       ?kFileExtMap@@3QBUFileExtMapping@@B 00000001800b4bd0     XMPFiles_Impl.obj
 0002:00005030       ?kKnownRejectedFiles@@3PAPEBDA 00000001800b5030     XMPFiles_Impl.obj
 0002:00005110       ?kKnownScannedFiles@@3PAPEBDA 00000001800b5110     XMPFiles_Impl.obj
 0002:000051a0       ?kAIFFCpr@AIFF_MetaHandler@@0QBUChunkIdentifier@IFF_RIFF@@B 00000001800b51a0     AIFF_Handler.obj
 0002:000051b0       ?kAIFFName@AIFF_MetaHandler@@0QBUChunkIdentifier@IFF_RIFF@@B 00000001800b51b0     AIFF_Handler.obj
 0002:000051c0       ?kAIFCCpr@AIFF_MetaHandler@@0QBUChunkIdentifier@IFF_RIFF@@B 00000001800b51c0     AIFF_Handler.obj
 0002:000051d0       ?kAIFFAuth@AIFF_MetaHandler@@0QBUChunkIdentifier@IFF_RIFF@@B 00000001800b51d0     AIFF_Handler.obj
 0002:000051e0       ?kAIFCAuth@AIFF_MetaHandler@@0QBUChunkIdentifier@IFF_RIFF@@B 00000001800b51e0     AIFF_Handler.obj
 0002:000051f0       ?kAIFCXMP@AIFF_MetaHandler@@0QBUChunkIdentifier@IFF_RIFF@@B 00000001800b51f0     AIFF_Handler.obj
 0002:00005200       ?kAIFFXMP@AIFF_MetaHandler@@0QBUChunkIdentifier@IFF_RIFF@@B 00000001800b5200     AIFF_Handler.obj
 0002:00005588       ?kRIFFBext@WAVE_MetaHandler@@0QBUChunkIdentifier@IFF_RIFF@@B 00000001800b5588     WAVE_Handler.obj
 0002:000055f8       ?kRIFFInfo@WAVE_MetaHandler@@0QBUChunkIdentifier@IFF_RIFF@@B 00000001800b55f8     WAVE_Handler.obj
 0002:00006928       ?kRF64Disp@WAVE_MetaHandler@@0QBUChunkIdentifier@IFF_RIFF@@B 00000001800b6928     WAVE_Handler.obj
 0002:00006988       ?kRF64Bext@WAVE_MetaHandler@@0QBUChunkIdentifier@IFF_RIFF@@B 00000001800b6988     WAVE_Handler.obj
 0002:00006ad8       ?kRIFFCart@WAVE_MetaHandler@@0QBUChunkIdentifier@IFF_RIFF@@B 00000001800b6ad8     WAVE_Handler.obj
 0002:00006b38       ?kRF64Cart@WAVE_MetaHandler@@0QBUChunkIdentifier@IFF_RIFF@@B 00000001800b6b38     WAVE_Handler.obj
 0002:00006bc0       ?kRF64iXML@WAVE_MetaHandler@@0QBUChunkIdentifier@IFF_RIFF@@B 00000001800b6bc0     WAVE_Handler.obj
 0002:00006bd0       ?kRIFFXMP@WAVE_MetaHandler@@0QBUChunkIdentifier@IFF_RIFF@@B 00000001800b6bd0     WAVE_Handler.obj
 0002:00006be0       ?kRF64Info@WAVE_MetaHandler@@0QBUChunkIdentifier@IFF_RIFF@@B 00000001800b6be0     WAVE_Handler.obj
 0002:00006bf0       ?kRIFFiXML@WAVE_MetaHandler@@0QBUChunkIdentifier@IFF_RIFF@@B 00000001800b6bf0     WAVE_Handler.obj
 0002:00006c00       ?kRIFFDisp@WAVE_MetaHandler@@0QBUChunkIdentifier@IFF_RIFF@@B 00000001800b6c00     WAVE_Handler.obj
 0002:00006c10       ?kRF64XMP@WAVE_MetaHandler@@0QBUChunkIdentifier@IFF_RIFF@@B 00000001800b6c10     WAVE_Handler.obj
 0002:0000790c       ?CR8R_SIZE@RIFF@@3JA       00000001800b790c     RIFF_Support.obj
 0002:00007a04       ?MAX_BEXT_SIZE@RIFF@@3JA   00000001800b7a04     RIFF_Support.obj
 0002:00007a08       ?IDIT_SIZE@RIFF@@3JA       00000001800b7a08     RIFF_Support.obj
 0002:00007a64       ?MIN_BEXT_SIZE@RIFF@@3JA   00000001800b7a64     RIFF_Support.obj
 0002:00007a68       ?PRML_SIZE@RIFF@@3JA       00000001800b7a68     RIFF_Support.obj
 0002:00008430       ?kIntellectualGenreMappings@@3QBUIntellectualGenreMapping@@B 00000001800b8430     IPTC_Support.obj
 0002:00008840       ?kKnownDataSets@@3QBUDataSetCharacteristics@@B 00000001800b8840     IPTC_Support.obj
 0002:000092e8       ?kResourceName_UIDs@XMP_PLUGIN@@3PEBDEB 00000001800b92e8     PluginManager.obj
 0002:000093d8       ?kLibraryExtensions@XMP_PLUGIN@@3PAPEBDA 00000001800b93d8     PluginManager.obj
 0002:0000d858       ?voidPacketInfo@@3UXMP_PacketInfo@@A 00000001800bd858     XMPFiles_Impl.obj
 0002:0000d870       ??_C@_0BD@PJCBIDD@invalid?5block?5type?$AA@ 00000001800bd870     infback.obj
 0002:0000d888       ??_C@_0BN@LGAADGOK@invalid?5stored?5block?5lengths?$AA@ 00000001800bd888     infback.obj
 0002:0000d8a8       ??_C@_0CE@GMIGFPBB@too?5many?5length?5or?5distance?5symb@ 00000001800bd8a8     infback.obj
 0002:0000d8d0       ??_C@_0BJ@HDEPPGOH@invalid?5code?5lengths?5set?$AA@ 00000001800bd8d0     infback.obj
 0002:0000d8f0       ??_C@_0BK@BMMPFBBH@invalid?5bit?5length?5repeat?$AA@ 00000001800bd8f0     infback.obj
 0002:0000d910       ??_C@_0BM@IIMGAINC@invalid?5literal?1lengths?5set?$AA@ 00000001800bd910     infback.obj
 0002:0000d930       ??_C@_0BG@GMDFCBGP@invalid?5distances?5set?$AA@ 00000001800bd930     infback.obj
 0002:0000d948       ??_C@_0BM@FFFLPBBC@invalid?5literal?1length?5code?$AA@ 00000001800bd948     infback.obj
 0002:0000d968       ??_C@_0BG@LBKINIKP@invalid?5distance?5code?$AA@ 00000001800bd968     infback.obj
 0002:0000d980       ??_C@_0BO@ECPMAOGG@invalid?5distance?5too?5far?5back?$AA@ 00000001800bd980     infback.obj
 0002:0000d9a0       ??_C@_0BH@LIBMMIGA@incorrect?5header?5check?$AA@ 00000001800bd9a0     inflate.obj
 0002:0000d9b8       ??_C@_0BL@IHKGDAEE@unknown?5compression?5method?$AA@ 00000001800bd9b8     inflate.obj
 0002:0000d9d8       ??_C@_0BE@EMOGCLGO@invalid?5window?5size?$AA@ 00000001800bd9d8     inflate.obj
 0002:0000d9f0       ??_C@_0BJ@BLBBCOMO@unknown?5header?5flags?5set?$AA@ 00000001800bd9f0     inflate.obj
 0002:0000da10       ??_C@_0BE@GONKLEPM@header?5crc?5mismatch?$AA@ 00000001800bda10     inflate.obj
 0002:0000da28       ??_C@_0BF@MEIGEHBE@incorrect?5data?5check?$AA@ 00000001800bda28     inflate.obj
 0002:0000da40       ??_C@_0BH@FGKKJGOC@incorrect?5length?5check?$AA@ 00000001800bda40     inflate.obj
 0002:0000da58       ??_C@_0BA@MOKMMFOD@need?5dictionary?$AA@ 00000001800bda58     zutil.obj
 0002:0000da68       ??_C@_0L@FNAOCBOG@stream?5end?$AA@ 00000001800bda68     zutil.obj
 0002:0000da73       ??_C@_00CNPNBAHC@?$AA@     00000001800bda73     zutil.obj
 0002:0000da78       ??_C@_0L@KIJFAKBJ@file?5error?$AA@ 00000001800bda78     zutil.obj
 0002:0000da88       ??_C@_0N@MKKNPMJD@stream?5error?$AA@ 00000001800bda88     zutil.obj
 0002:0000da98       ??_C@_0L@HAHMBNLP@data?5error?$AA@ 00000001800bda98     zutil.obj
 0002:0000daa8       ??_C@_0BE@OGGJBMCE@insufficient?5memory?$AA@ 00000001800bdaa8     zutil.obj
 0002:0000dac0       ??_C@_0N@DFPGLBGC@buffer?5error?$AA@ 00000001800bdac0     zutil.obj
 0002:0000dad0       ??_C@_0BF@CJFPCCEG@incompatible?5version?$AA@ 00000001800bdad0     zutil.obj
 0002:0000dae8       ??_C@_0L@CCBFPMDD@?5?5?5?5?5?5?5?5?5?5?$AA@ 00000001800bdae8     IReconcile.obj
 0002:0000daf8       ??_C@_0BB@FLJEKHKC@?$DM?$DPxpacket?5begin?$DN?$AA@ 00000001800bdaf8     IReconcile.obj
 0002:0000db10       ??_C@_0BJ@IPGHFDDK@W5M0MpCehiHzreSzNTczkc9d?$AA@ 00000001800bdb10     IReconcile.obj
 0002:0000db30       ??_C@_0BB@JGGOGLEG@0123456789ABCDEF?$AA@ 00000001800bdb30     IReconcile.obj
 0002:0000db48       ??_C@_09CLPKJGLA@x?9default?$AA@ 00000001800bdb48     IReconcile.obj
 0002:0000db58       ??_C@_0BG@HKHKILFD@Unknown?5XMP?5data?5type?$AA@ 00000001800bdb58     IReconcile.obj
 0002:0000db70       ??_C@_04FCIJFPNK@?$CFllu?$AA@ 00000001800bdb70     IReconcile.obj
 0002:0000db78       ??_C@_03FKNCMABI@?$CFlu?$AA@ 00000001800bdb78     IReconcile.obj
 0002:0000db80       ??_C@_0BJ@KKFJIIMH@Unknown?5native?5data?5type?$AA@ 00000001800bdb80     IReconcile.obj
 0002:0000dba0       ??_C@_0BA@JFNIOLAK@string?5too?5long?$AA@ 00000001800bdba0     IReconcile.obj
 0002:0000dbb0       ??_C@_0BD@OLBABOEK@vector?$DMT?$DO?5too?5long?$AA@ 00000001800bdbb0     IReconcile.obj
 0002:0000dbc8       ??_C@_0BI@CFPLBAOH@invalid?5string?5position?$AA@ 00000001800bdbc8     IReconcile.obj
 0002:0000dbe0       ??_C@_0BD@PLFNPHCL@Invalid?5identifier?$AA@ 00000001800bdbe0     IReconcile.obj
 0002:0000dbf8       ??_C@_0BE@JONHPENG@map?1set?$DMT?$DO?5too?5long?$AA@ 00000001800bdbf8     IReconcile.obj
 0002:0000dc18       ??_7?$TValueObject@K@@6B@  00000001800bdc18     IReconcile.obj
 0002:0000dc28       ??_7?$TValueObject@V?$basic_string@DU?$char_traits@D@std@@V?$allocator@D@2@@std@@@@6B@ 00000001800bdc28     IReconcile.obj
 0002:0000dc38       ??_7?$TValueObject@_K@@6B@ 00000001800bdc38     IReconcile.obj
 0002:0000dc48       ??_7ValueObject@@6B@       00000001800bdc48     IReconcile.obj
 0002:0000dc58       ??_7?$TValueObject@G@@6B@  00000001800bdc58     IReconcile.obj
 0002:0000dc68       ??_7?$TValueObject@_N@@6B@ 00000001800bdc68     IReconcile.obj
 0002:0000dc78       ??_7?$TValueObject@J@@6B@  00000001800bdc78     IReconcile.obj
 0002:0000dc88       ??_7LittleEndian@@6B@      00000001800bdc88     IReconcile.obj
 0002:0000dce8       ??_7IEndian@@6B@           00000001800bdce8     IReconcile.obj
 0002:0000dd40       ??_C@_0BM@NMJKDPPO@invalid?5vector?$DMT?$DO?5subscript?$AA@ 00000001800bdd40     MetadataSet.obj
 0002:0000dd60       ??_C@_0CE@PLJALPCM@Incomplete?5Unicode?5at?5end?5of?5str@ 00000001800bdd60     UnicodeConversions.obj
 0002:0000dd88       ??_C@_0BK@MBBLNICM@Bad?5UTF?932?5?9?5out?5of?5range?$AA@ 00000001800bdd88     UnicodeConversions.obj
 0002:0000dda8       ??_C@_0CC@GJKPIFKH@Bad?5UTF?932?5?9?5surrogate?5code?5poin@ 00000001800bdda8     UnicodeConversions.obj
 0002:0000ddd0       ??_C@_0BO@HJPPCLJN@Invalid?5UTF?98?5sequence?5length?$AA@ 00000001800bddd0     UnicodeConversions.obj
 0002:0000ddf0       ??_C@_0BI@GNCOKLLJ@Invalid?5UTF?98?5data?5byte?$AA@ 00000001800bddf0     UnicodeConversions.obj
 0002:0000de08       ??_C@_0CB@CGOIBEBG@Bad?5UTF?98?5?9?5surrogate?5code?5point@ 00000001800bde08     UnicodeConversions.obj
 0002:0000de30       ??_C@_0BJ@OPHKDNOD@Bad?5UTF?98?5?9?5out?5of?5range?$AA@ 00000001800bde30     UnicodeConversions.obj
 0002:0000de50       ??_C@_0CD@BAGDPDLH@Bad?5UTF?916?5?9?5leading?5low?5surroga@ 00000001800bde50     UnicodeConversions.obj
 0002:0000de78       ??_C@_0CD@EDDEPHFC@Bad?5UTF?916?5?9?5missing?5low?5surroga@ 00000001800bde78     UnicodeConversions.obj
 0002:0000dea0       ??_C@_0M@EGHAPGKC@?$CF?$CBPS?9Adobe?9?$AA@ 00000001800bdea0     HandlerRegistry.obj
 0002:0000deb0       ??_C@_0BC@LDBBDOGH@?$CFADO_ContainsXMP?3?$AA@ 00000001800bdeb0     HandlerRegistry.obj
 0002:0000dec8       ??_C@_0P@CDILBPNM@?$CF?$CFBoundingBox?3?$AA@ 00000001800bdec8     HandlerRegistry.obj
 0002:0000ded8       ??_C@_0BB@JDAOKBFB@?$CF?$CFBeginDocument?3?$AA@ 00000001800bded8     HandlerRegistry.obj
 0002:0000def0       ??_C@_0O@LEPIHFLM@?$CF?$CFEndDocument?$AA@ 00000001800bdef0     HandlerRegistry.obj
 0002:0000df00       ??_C@_09KCJDDHAI@?$CF?$CFTrailer?$AA@ 00000001800bdf00     HandlerRegistry.obj
 0002:0000df10       ??_C@_0L@MEEAHAJN@?$CF?$CFCreator?3?$AA@ 00000001800bdf10     HandlerRegistry.obj
 0002:0000df20       ??_C@_0BA@GBOILKJN@?$CF?$CFCreationDate?3?$AA@ 00000001800bdf20     HandlerRegistry.obj
 0002:0000df30       ??_C@_06GOFNIKME@?$CF?$CFFor?3?$AA@ 00000001800bdf30     HandlerRegistry.obj
 0002:0000df38       ??_C@_08IOHAAKLP@?$CF?$CFTitle?3?$AA@ 00000001800bdf38     HandlerRegistry.obj
 0002:0000df48       ??_C@_07IMIPNFOJ@?$CIatend?$CJ?$AA@ 00000001800bdf48     HandlerRegistry.obj
 0002:0000df50       ??_C@_0O@NGKCJPHP@?$CF?$CFEndComments?$AA@ 00000001800bdf50     HandlerRegistry.obj
 0002:0000df60       ??_C@_08PPDIKAOI@?1DOCINFO?$AA@ 00000001800bdf60     HandlerRegistry.obj
 0002:0000df70       ??_C@_07KEJNBIHP@pdfmark?$AA@ 00000001800bdf70     HandlerRegistry.obj
 0002:0000df78       ??_C@_0BN@LJNBFJGE@?$CFADO_ContainsXMP?3?5MainFirst?6?$AA@ 00000001800bdf78     HandlerRegistry.obj
 0002:0000df98       ??_C@_0BM@MKPMMJFH@?$CFADO_ContainsXMP?3?5MainLast?6?$AA@ 00000001800bdf98     HandlerRegistry.obj
 0002:0000dfc0       ??_C@_0CME@NKMADCJ@?6?1currentdistillerparams?5where?6?$HL@ 00000001800bdfc0     HandlerRegistry.obj
 0002:0000e290       ??_C@_0CLI@BCEKFK@?6?1currentdistillerparams?5where?6?$HL@ 00000001800be290     HandlerRegistry.obj
 0002:0000e550       ??_C@_0KK@HCKDKKGA@?6?$CF?5?$CG?$CGend?5EPS?5XMP?5packet?5marker?$CG?$CG@ 00000001800be550     HandlerRegistry.obj
 0002:0000e600       ??_C@_0IA@FMBLIMBD@?6?$CF?5?$CG?$CGend?5PS?5XMP?5packet?5marker?$CG?$CG?6@ 00000001800be600     HandlerRegistry.obj
 0002:0000e680       ??_C@_0PC@PKPPMEOD@?6?1currentdistillerparams?5where?6?$HL@ 00000001800be680     HandlerRegistry.obj
 0002:0000e774       ??_C@_04DCLMCGOF@CLIP?$AA@ 00000001800be774     HandlerRegistry.obj
 0002:0000e77c       ??_C@_05NEMPFMAF@VIDEO?$AA@ 00000001800be77c     HandlerRegistry.obj
 0002:0000e784       ??_C@_05GGBGONMB@AUDIO?$AA@ 00000001800be784     HandlerRegistry.obj
 0002:0000e78c       ??_C@_04PAKDGNHP@ICON?$AA@ 00000001800be78c     HandlerRegistry.obj
 0002:0000e794       ??_C@_05FHIHOFEA@VOICE?$AA@ 00000001800be794     HandlerRegistry.obj
 0002:0000e79c       ??_C@_05MKMBBLHO@PROXY?$AA@ 00000001800be79c     HandlerRegistry.obj
 0002:0000e7a8       ??_C@_0CN@LLPHMGKC@Failure?5initializing?5linked?9in?5f@ 00000001800be7a8     HandlerRegistry.obj
 0002:0000e7d8       ??_C@_04BMCEDOKO@EDIT?$AA@ 00000001800be7d8     HandlerRegistry.obj
 0002:0000e7e0       ??_C@_03KPDLEBHD@SUB?$AA@  00000001800be7e0     HandlerRegistry.obj
 0002:0000e7e8       ??_C@_08JMIEDANL@CONTENTS?$AA@ 00000001800be7e8     HandlerRegistry.obj
 0002:0000e7f4       ??_C@_04DPEHOLJJ@Clip?$AA@ 00000001800be7f4     HandlerRegistry.obj
 0002:0000e800       ??_C@_0N@CEJJMCFI@MEDIAPRO?4XML?$AA@ 00000001800be800     HandlerRegistry.obj
 0002:0000e810       ??_C@_05FOKOJPEO@PROAV?$AA@ 00000001800be810     HandlerRegistry.obj
 0002:0000e818       ??_C@_04BDHNNMJI@CLPR?$AA@ 00000001800be818     HandlerRegistry.obj
 0002:0000e820       ??_C@_04ENFKBBEM@BPAV?$AA@ 00000001800be820     HandlerRegistry.obj
 0002:0000e828       ??_C@_03GAKHDNOF@HVR?$AA@  00000001800be828     HandlerRegistry.obj
 0002:0000e82c       ??_C@_04FOIAKJAL@EDTR?$AA@ 00000001800be82c     HandlerRegistry.obj
 0002:0000e838       ??_C@_0CH@PGNMDDFN@Failure?5from?5QueryPerformanceFre@ 00000001800be838     PerfUtils.obj
 0002:0000e860       ??_C@_0CF@IACAOIFJ@Failure?5from?5QueryPerformanceCou@ 00000001800be860     PerfUtils.obj
 0002:0000e888       ??_C@_03BCPLEEGJ@XMP?$AA@  00000001800be888     WXMPFiles.obj
 0002:0000e890       ??_C@_0BJ@BBJEMODG@Caught?5unknown?5exception?$AA@ 00000001800be890     WXMPFiles.obj
 0002:0000e8b0       ??_C@_0DA@NJNFKPPB@An?5result?5resource?5list?5vector?5m@ 00000001800be8b0     WXMPFiles.obj
 0002:0000e8e0       ??_C@_0JL@LNDDONDO@XMP_Enforce?5failed?3?5?$CInewContentS@ 00000001800be8e0     XIO.obj
 0002:0000e980       ??_C@_0BG@JDNILOBD@XIO?3?3Copy?0?5user?5abort?$AA@ 00000001800be980     XIO.obj
 0002:0000e998       ??_C@_04NBFCGMPH@root?$AA@ 00000001800be998     XML_Node.obj
 0002:0000e9a0       ??_C@_04IHLAKEEF@elem?$AA@ 00000001800be9a0     XML_Node.obj
 0002:0000e9a8       ??_C@_04DHCDLKCM@attr?$AA@ 00000001800be9a8     XML_Node.obj
 0002:0000e9b0       ??_C@_05GLPICJ@cdata?$AA@  00000001800be9b0     XML_Node.obj
 0002:0000e9b8       ??_C@_02OAHAJOFD@pi?$AA@   00000001800be9b8     XML_Node.obj
 0002:0000e9bc       ??_C@_02KNHHEEKP@?5?5?$AA@ 00000001800be9bc     XML_Node.obj
 0002:0000e9c0       ??_C@_02DPKJAMEF@?$CFd?$AA@ 00000001800be9c0     XML_Node.obj
 0002:0000e9c4       ??_C@_01EEMJAFIK@?6?$AA@   00000001800be9c4     XML_Node.obj
 0002:0000e9c8       ??_C@_07ENFJFPDO@_dflt_?3?$AA@ 00000001800be9c8     XML_Node.obj
 0002:0000e9d0       ??_C@_02HCGKDMEN@?1?$DO?$AA@ 00000001800be9d0     XML_Node.obj
 0002:0000e9d4       ??_C@_02DPNDACHE@?$DM?1?$AA@ 00000001800be9d4     XML_Node.obj
 0002:0000e9d8       ??_C@_02ILLPBGAO@?$DN?$CC?$AA@ 00000001800be9d8     XML_Node.obj
 0002:0000e9e0       ??_C@_0CI@FMJEECLD@?$DM?$DPxml?5version?$DN?$CC1?40?$CC?5encoding?$DN?$CCUT@ 00000001800be9e0     XML_Node.obj
 0002:0000ea08       ??_C@_06BMFGKBOJ@?5xmlns?$AA@ 00000001800bea08     XML_Node.obj
 0002:0000ea10       ??_C@_06CNDCLPNC@_dflt_?$AA@ 00000001800bea10     XML_Node.obj
 0002:0000ea20       ??_7XML_Node@@6B@          00000001800bea20     XML_Node.obj
 0002:0000ea30       ??_7XMP_NamespaceTable@@6B@ 00000001800bea30     XMP_LibUtils.obj
 0002:0000ea38       ??_C@_0P@LPPFNPIH@Empty?5XML?5name?$AA@ 00000001800bea38     XMP_LibUtils.obj
 0002:0000ea48       ??_C@_0N@DDPFOLCC@Bad?5XML?5name?$AA@ 00000001800bea48     XMP_LibUtils.obj
 0002:0000ea60       ??_C@_0IP@NIEJDJKC@XMP_Enforce?5failed?3?5?$CIthis?9?$DOqueue@ 00000001800bea60     XMP_LibUtils.obj
 0002:0000eaf0       ??_C@_0CB@EBGGKKNC@Failure?5from?5WaitForSingleObject@ 00000001800beaf0     XMP_LibUtils.obj
 0002:0000eb18       ??_C@_0BG@NONKFMIC@Failure?5from?5SetEvent?$AA@ 00000001800beb18     XMP_LibUtils.obj
 0002:0000eb30       ??_C@_01CLKCMJKC@?5?$AA@   00000001800beb30     XMP_LibUtils.obj
 0002:0000eb34       ??_C@_05EMMJJDKK@_?$CFd_?3?$AA@ 00000001800beb34     XMP_LibUtils.obj
 0002:0000eb40       ??_C@_0CO@KLGKHGDO@Abort?5signaled?5by?5progress?5repor@ 00000001800beb40     XMP_ProgressTracker.obj
 0002:0000eb70       ??_C@_0BA@GECLMFLF@XMP?5Files?55?47?40?$AA@ 00000001800beb70     XMPFiles.obj
 0002:0000eb80       ??_C@_0BN@FGAGJAGD@XMP?5Files?5Copyright?5?$CIc?$CJ?52016?$AA@ 00000001800beb80     XMPFiles.obj
 0002:0000eba0       ??_C@_0DJ@LAEPELMO@XMPFiles?3?5Unable?5to?5allocate?5mem@ 00000001800beba0     XMPFiles.obj
 0002:0000ebe0       ??_C@_0BO@KPOBKMDO@XMPFiles?3?5file?5does?5not?5exist?$AA@ 00000001800bebe0     XMPFiles.obj
 0002:0000ec00       ??_C@_0CH@EGJOIHPC@XMPFiles?3?5path?5specified?5is?5not?5@ 00000001800bec00     XMPFiles.obj
 0002:0000ec28       ??_C@_0CM@MFOPBONA@XMPFiles?3?5rejected?5file?5extensio@ 00000001800bec28     XMPFiles.obj
 0002:0000ec58       ??_C@_0DJ@BEAOBCAH@XMPFiles?3?5No?5smart?5file?5handler?5@ 00000001800bec58     XMPFiles.obj
 0002:0000ec98       ??_C@_0DM@HKMBKEAB@Boolean?5parameter?5is?5required?5fo@ 00000001800bec98     XMPFiles.obj
 0002:0000ecd8       ??_C@_0CK@OAFKLMCO@OptimizeFileLayout?5requires?5Open@ 00000001800becd8     XMPFiles.obj
 0002:0000ed08       ??_C@_0BC@NHJPFAKF@File?5already?5open?$AA@ 00000001800bed08     XMPFiles.obj
 0002:0000ed20       ??_C@_0BM@CEBOPBOB@Open?0?5file?5permission?5error?$AA@ 00000001800bed20     XMPFiles.obj
 0002:0000ed40       ??_C@_0DA@CDEFPGCO@XMPFiles?3?3CloseFile?5?9?5Safe?5updat@ 00000001800bed40     XMPFiles.obj
 0002:0000ed70       ??_C@_0CI@NJAFAAME@XMPFiles?3?3CloseFile?0?5cannot?5crea@ 00000001800bed70     XMPFiles.obj
 0002:0000ed98       ??_C@_0CA@PNNDNBKM@XMPFiles?3?3GetXMP?5?9?5No?5open?5file?$AA@ 00000001800bed98     XMPFiles.obj
 0002:0000edb8       ??_C@_0CA@HKBJLHEB@XMPFiles?3?3PutXMP?5?9?5No?5open?5file?$AA@ 00000001800bedb8     XMPFiles.obj
 0002:0000edd8       ??_C@_0CH@BIJGGHDB@XMPFiles?3?3PutXMP?5?9?5Not?5open?5for?5@ 00000001800bedd8     XMPFiles.obj
 0002:0000ee00       ??_C@_0CE@OMNELNGF@XMPFiles?3?3PutXMP?5?9?5Can?8t?5inject?5@ 00000001800bee00     XMPFiles.obj
 0002:0000ee28       ??_C@_0CO@KEEIABFC@XMPFiles?3?3PutXMP?5?9?5No?5standard?5c@ 00000001800bee28     XMPFiles.obj
 0002:0000ee58       ??_C@_0CD@PFMPFKDD@XMPFiles?3?3CanPutXMP?5?9?5No?5open?5fi@ 00000001800bee58     XMPFiles.obj
 0002:0000ee88       ??_7ErrorCallbackInfo@XMPFiles@@6B@ 00000001800bee88     XMPFiles.obj
 0002:0000eea8       ??_7GenericErrorCallback@@6B@ 00000001800beea8     XMPFiles.obj
 0002:0000eec8       ??_7XMPFiles@@6B@          00000001800beec8     XMPFiles.obj
 0002:0000eed8       ??_7?$TXMPMeta@V?$basic_string@DU?$char_traits@D@std@@V?$allocator@D@2@@std@@@@6B@ 00000001800beed8     XMPFiles_Impl.obj
 0002:0000eee0       ??_C@_03MJPNCPKC@pdf?$AA@  00000001800beee0     XMPFiles_Impl.obj
 0002:0000eee4       ??_C@_02FAFNGEII@ps?$AA@   00000001800beee4     XMPFiles_Impl.obj
 0002:0000eee8       ??_C@_03ICKAGFLH@eps?$AA@  00000001800beee8     XMPFiles_Impl.obj
 0002:0000eeec       ??_C@_03PEGNKCLE@jpg?$AA@  00000001800beeec     XMPFiles_Impl.obj
 0002:0000eef0       ??_C@_04OFMADDDJ@jpeg?$AA@ 00000001800beef0     XMPFiles_Impl.obj
 0002:0000eef8       ??_C@_03DJDHKMCK@jpx?$AA@  00000001800beef8     XMPFiles_Impl.obj
 0002:0000eefc       ??_C@_03EOEHCLKG@tif?$AA@  00000001800beefc     XMPFiles_Impl.obj
 0002:0000ef00       ??_C@_04MFMINNH@tiff?$AA@  00000001800bef00     XMPFiles_Impl.obj
 0002:0000ef08       ??_C@_03CAKFLPN@dng?$AA@   00000001800bef08     XMPFiles_Impl.obj
 0002:0000ef0c       ??_C@_03MOLNDNH@gif?$AA@   00000001800bef0c     XMPFiles_Impl.obj
 0002:0000ef10       ??_C@_04CLBMGAIF@giff?$AA@ 00000001800bef10     XMPFiles_Impl.obj
 0002:0000ef18       ??_C@_03NNHBJLDF@png?$AA@  00000001800bef18     XMPFiles_Impl.obj
 0002:0000ef1c       ??_C@_03MFCIJNGF@swf?$AA@  00000001800bef1c     XMPFiles_Impl.obj
 0002:0000ef20       ??_C@_03PIFOGEAI@flv?$AA@  00000001800bef20     XMPFiles_Impl.obj
 0002:0000ef24       ??_C@_03CJIAIMAL@aif?$AA@  00000001800bef24     XMPFiles_Impl.obj
 0002:0000ef28       ??_C@_03CNBJFNFA@mov?$AA@  00000001800bef28     XMPFiles_Impl.obj
 0002:0000ef2c       ??_C@_03LJGCHEIJ@avi?$AA@  00000001800bef2c     XMPFiles_Impl.obj
 0002:0000ef30       ??_C@_03ELFAMOII@cin?$AA@  00000001800bef30     XMPFiles_Impl.obj
 0002:0000ef34       ??_C@_03BICDMHKB@wav?$AA@  00000001800bef34     XMPFiles_Impl.obj
 0002:0000ef38       ??_C@_03LHGNACFN@mp3?$AA@  00000001800bef38     XMPFiles_Impl.obj
 0002:0000ef3c       ??_C@_03PICMJEJK@mp4?$AA@  00000001800bef3c     XMPFiles_Impl.obj
 0002:0000ef40       ??_C@_03ENPAJMAB@m4v?$AA@  00000001800bef40     XMPFiles_Impl.obj
 0002:0000ef44       ??_C@_03EIHDBIJH@m4a?$AA@  00000001800bef44     XMPFiles_Impl.obj
 0002:0000ef48       ??_C@_03JKPBBLAA@f4v?$AA@  00000001800bef48     XMPFiles_Impl.obj
 0002:0000ef4c       ??_C@_03FOICNDPP@3gp?$AA@  00000001800bef4c     XMPFiles_Impl.obj
 0002:0000ef50       ??_C@_03JMMNPOHI@3g2?$AA@  00000001800bef50     XMPFiles_Impl.obj
 0002:0000ef54       ??_C@_03ONDPAMGP@ses?$AA@  00000001800bef54     XMPFiles_Impl.obj
 0002:0000ef58       ??_C@_03HAHMFFGO@cel?$AA@  00000001800bef58     XMPFiles_Impl.obj
 0002:0000ef5c       ??_C@_03BELKLKFD@wma?$AA@  00000001800bef5c     XMPFiles_Impl.obj
 0002:0000ef60       ??_C@_03BBDJDOMF@wmv?$AA@  00000001800bef60     XMPFiles_Impl.obj
 0002:0000ef64       ??_C@_03HOLCPKPE@mxf?$AA@  00000001800bef64     XMPFiles_Impl.obj
 0002:0000ef68       ??_C@_03DIDBLNJO@r3d?$AA@  00000001800bef68     XMPFiles_Impl.obj
 0002:0000ef6c       ??_C@_03GJLKJKAN@mpg?$AA@  00000001800bef6c     XMPFiles_Impl.obj
 0002:0000ef70       ??_C@_04FHOAOPCJ@mpeg?$AA@ 00000001800bef70     XMPFiles_Impl.obj
 0002:0000ef78       ??_C@_03KOHGDDBM@mp2?$AA@  00000001800bef78     XMPFiles_Impl.obj
 0002:0000ef7c       ??_C@_03FFONCNID@mod?$AA@  00000001800bef7c     XMPFiles_Impl.obj
 0002:0000ef80       ??_C@_03EJHNOALD@m2v?$AA@  00000001800bef80     XMPFiles_Impl.obj
 0002:0000ef84       ??_C@_03DPOADNIL@mpa?$AA@  00000001800bef84     XMPFiles_Impl.obj
 0002:0000ef88       ??_C@_03DKGDLJBN@mpv?$AA@  00000001800bef88     XMPFiles_Impl.obj
 0002:0000ef8c       ??_C@_03BPCHEHDF@m2p?$AA@  00000001800bef8c     XMPFiles_Impl.obj
 0002:0000ef90       ??_C@_03EMPOGECF@m2a?$AA@  00000001800bef90     XMPFiles_Impl.obj
 0002:0000ef94       ??_C@_03HLELICDB@m2t?$AA@  00000001800bef94     XMPFiles_Impl.obj
 0002:0000ef98       ??_C@_03FLIMPIIP@mpe?$AA@  00000001800bef98     XMPFiles_Impl.obj
 0002:0000ef9c       ??_C@_03IEKPFKJL@vob?$AA@  00000001800bef9c     XMPFiles_Impl.obj
 0002:0000efa0       ??_C@_06BKFPDGHE@ms?9pvr?$AA@ 00000001800befa0     XMPFiles_Impl.obj
 0002:0000efa8       ??_C@_06FFEGBAKB@dvr?9ms?$AA@ 00000001800befa8     XMPFiles_Impl.obj
 0002:0000efb0       ??_C@_04PNIFHPHN@html?$AA@ 00000001800befb0     XMPFiles_Impl.obj
 0002:0000efb8       ??_C@_03PJHHNEEI@xml?$AA@  00000001800befb8     XMPFiles_Impl.obj
 0002:0000efbc       ??_C@_03CLFHJCDC@txt?$AA@  00000001800befbc     XMPFiles_Impl.obj
 0002:0000efc0       ??_C@_04CIMGMMMG@text?$AA@ 00000001800befc0     XMPFiles_Impl.obj
 0002:0000efc8       ??_C@_03NNPBMGBD@svg?$AA@  00000001800befc8     XMPFiles_Impl.obj
 0002:0000efcc       ??_C@_03OCKCPINF@psd?$AA@  00000001800befcc     XMPFiles_Impl.obj
 0002:0000efd0       ??_C@_02PNJEFHBE@ai?$AA@   00000001800befd0     XMPFiles_Impl.obj
 0002:0000efd4       ??_C@_04DIEJFALB@indd?$AA@ 00000001800befd4     XMPFiles_Impl.obj
 0002:0000efdc       ??_C@_04HCILECOA@indt?$AA@ 00000001800befdc     XMPFiles_Impl.obj
 0002:0000efe4       ??_C@_03DMACMALI@aep?$AA@  00000001800befe4     XMPFiles_Impl.obj
 0002:0000efe8       ??_C@_04CCGAMKIA@aepx?$AA@ 00000001800befe8     XMPFiles_Impl.obj
 0002:0000eff0       ??_C@_03FIGOAFLM@aet?$AA@  00000001800beff0     XMPFiles_Impl.obj
 0002:0000eff4       ??_C@_03GLEKMMFA@ffx?$AA@  00000001800beff4     XMPFiles_Impl.obj
 0002:0000eff8       ??_C@_04GIMOAOEK@ncor?$AA@ 00000001800beff8     XMPFiles_Impl.obj
 0002:0000f000       ??_C@_06CMGMNLII@prproj?$AA@ 00000001800bf000     XMPFiles_Impl.obj
 0002:0000f008       ??_C@_04JLIJGEBN@prtl?$AA@ 00000001800bf008     XMPFiles_Impl.obj
 0002:0000f010       ??_C@_03PLGMMJBF@ucf?$AA@  00000001800bf010     XMPFiles_Impl.obj
 0002:0000f014       ??_C@_03PFCCDLKJ@xfl?$AA@  00000001800bf014     XMPFiles_Impl.obj
 0002:0000f018       ??_C@_06CMCAMLKA@pdfxml?$AA@ 00000001800bf018     XMPFiles_Impl.obj
 0002:0000f020       ??_C@_04IIICLNHD@mars?$AA@ 00000001800bf020     XMPFiles_Impl.obj
 0002:0000f028       ??_C@_04JAPMABFC@idml?$AA@ 00000001800bf028     XMPFiles_Impl.obj
 0002:0000f030       ??_C@_04HPJBKFGL@idap?$AA@ 00000001800bf030     XMPFiles_Impl.obj
 0002:0000f038       ??_C@_04OCEGJNNC@icap?$AA@ 00000001800bf038     XMPFiles_Impl.obj
 0002:0000f040       ??_C@_03FBHEPMNI@ait?$AA@  00000001800bf040     XMPFiles_Impl.obj
 0002:0000f044       ??_C@_03DNDKINLO@inx?$AA@  00000001800bf044     XMPFiles_Impl.obj
 0002:0000f048       ??_C@_04DNMKNECH@inds?$AA@ 00000001800bf048     XMPFiles_Impl.obj
 0002:0000f050       ??_C@_04KEPOEHNC@inpk?$AA@ 00000001800bf050     XMPFiles_Impl.obj
 0002:0000f058       ??_C@_04DNAGEGDE@incd?$AA@ 00000001800bf058     XMPFiles_Impl.obj
 0002:0000f060       ??_C@_04HHMEFEGF@inct?$AA@ 00000001800bf060     XMPFiles_Impl.obj
 0002:0000f068       ??_C@_04NLHBBLGJ@incx?$AA@ 00000001800bf068     XMPFiles_Impl.obj
 0002:0000f070       ??_C@_02JMLHIEJF@fm?$AA@   00000001800bf070     XMPFiles_Impl.obj
 0002:0000f074       ??_C@_04HMOIPFOL@book?$AA@ 00000001800bf074     XMPFiles_Impl.obj
 0002:0000f07c       ??_C@_04NCLDJOL@icml?$AA@  00000001800bf07c     XMPFiles_Impl.obj
 0002:0000f084       ??_C@_04IPDAKBLC@icmt?$AA@ 00000001800bf084     XMPFiles_Impl.obj
 0002:0000f08c       ??_C@_04FNKGAPMM@idms?$AA@ 00000001800bf08c     XMPFiles_Impl.obj
 0002:0000f094       ??_C@_03ENCNJAEB@cr2?$AA@  00000001800bf094     XMPFiles_Impl.obj
 0002:0000f098       ??_C@_03LGJBFHMN@erf?$AA@  00000001800bf098     XMPFiles_Impl.obj
 0002:0000f09c       ??_C@_03LPALPDIP@fff?$AA@  00000001800bf09c     XMPFiles_Impl.obj
 0002:0000f0a0       ??_C@_03DNGHCOLK@dcr?$AA@  00000001800bf0a0     XMPFiles_Impl.obj
 0002:0000f0a4       ??_C@_03DDJCALHJ@kdc?$AA@  00000001800bf0a4     XMPFiles_Impl.obj
 0002:0000f0a8       ??_C@_03FAGOKJBF@mos?$AA@  00000001800bf0a8     XMPFiles_Impl.obj
 0002:0000f0ac       ??_C@_03DLNDFHJO@mfw?$AA@  00000001800bf0ac     XMPFiles_Impl.obj
 0002:0000f0b0       ??_C@_03GKEMMKNH@mef?$AA@  00000001800bf0b0     XMPFiles_Impl.obj
 0002:0000f0b4       ??_C@_03DGOGAGNC@raw?$AA@  00000001800bf0b4     XMPFiles_Impl.obj
 0002:0000f0b8       ??_C@_03HIPJGFDJ@nef?$AA@  00000001800bf0b8     XMPFiles_Impl.obj
 0002:0000f0bc       ??_C@_03NJCMLHKJ@orf?$AA@  00000001800bf0bc     XMPFiles_Impl.obj
 0002:0000f0c0       ??_C@_03MIDPEFJF@pef?$AA@  00000001800bf0c0     XMPFiles_Impl.obj
 0002:0000f0c4       ??_C@_03GKCKODIK@arw?$AA@  00000001800bf0c4     XMPFiles_Impl.obj
 0002:0000f0c8       ??_C@_03BNDEMHNO@sr2?$AA@  00000001800bf0c8     XMPFiles_Impl.obj
 0002:0000f0cc       ??_C@_03MDODFPIO@srf?$AA@  00000001800bf0cc     XMPFiles_Impl.obj
 0002:0000f0d0       ??_C@_03EAPGDPPD@sti?$AA@  00000001800bf0d0     XMPFiles_Impl.obj
 0002:0000f0d4       ??_C@_03GNHGNLEK@3fr?$AA@  00000001800bf0d4     XMPFiles_Impl.obj
 0002:0000f0d8       ??_C@_03IHHLBCIK@rwl?$AA@  00000001800bf0d8     XMPFiles_Impl.obj
 0002:0000f0dc       ??_C@_03MACDCLAB@crw?$AA@  00000001800bf0dc     XMPFiles_Impl.obj
 0002:0000f0e0       ??_C@_04GPPCLEMM@sraw?$AA@ 00000001800bf0e0     XMPFiles_Impl.obj
 0002:0000f0e8       ??_C@_03CAPMFMDC@mrw?$AA@  00000001800bf0e8     XMPFiles_Impl.obj
 0002:0000f0ec       ??_C@_03DCEJPDNM@nrw?$AA@  00000001800bf0ec     XMPFiles_Impl.obj
 0002:0000f0f0       ??_C@_03KDEDGCFA@rw2?$AA@  00000001800bf0f0     XMPFiles_Impl.obj
 0002:0000f0f4       ??_C@_03OCKCOPOG@c3f?$AA@  00000001800bf0f4     XMPFiles_Impl.obj
 0002:0000f0f8       ??_C@_03HCOFLFO@air?$AA@   00000001800bf0f8     XMPFiles_Impl.obj
 0002:0000f0fc       ??_C@_02CMMAIFEF@?$PO?$PP?$AA@ 00000001800bf0fc     XMPFiles_Impl.obj
 0002:0000f100       ??_C@_02DEBJNODD@?$PP?$PO?$AA@ 00000001800bf100     XMPFiles_Impl.obj
 0002:0000f108       ??_C@_0P@MFKAMPBO@?$DM?$DPxpacket?5end?$DN?$AA@ 00000001800bf108     XMPFiles_Impl.obj
 0002:0000f118       ??_C@_0BN@CEOLBBIJ@?$DM?$AA?$DP?$AAx?$AAp?$AAa?$AAc?$AAk?$AAe?$AAt?$AA?5?$AAe?$AAn?$AAd?$AA?$DN?$AA?$AA@ 00000001800bf118     XMPFiles_Impl.obj
 0002:0000f138       ??_C@_0DJ@JACMDNGK@?$DM?$AA?$AA?$AA?$DP?$AA?$AA?$AAx?$AA?$AA?$AAp?$AA?$AA?$AAa?$AA?$AA?$AAc?$AA?$AA?$AAk?$AA?$AA?$AAe?$AA?$AA?$AA@ 00000001800bf138     XMPFiles_Impl.obj
 0002:0000f178       ??_C@_0BO@PDFBGPF@ReadXMPPacket?5?9?5No?5XMP?5packet?$AA@ 00000001800bf178     XMPFiles_Impl.obj
 0002:0000f1a0       ??_C@_0EK@MPAEDNGK@Base?5implementation?5of?5GetFileMo@ 00000001800bf1a0     XMPFiles_Impl.obj
 0002:0000f1f0       ??_C@_0DH@GGHLFGDJ@GetFileModDate?5cannot?5be?5used?5wi@ 00000001800bf1f0     XMPFiles_Impl.obj
 0002:0000f230       ??_C@_0EN@BMAEDCHO@Base?5implementation?5of?5FillMetad@ 00000001800bf230     XMPFiles_Impl.obj
 0002:0000f280       ??_C@_0DK@PEJPJLEH@FillMetadataFiles?5cannot?5be?5used@ 00000001800bf280     XMPFiles_Impl.obj
 0002:0000f2c0       ??_C@_0DP@HMPBNOCO@GetAssociatedResources?5is?5not?5im@ 00000001800bf2c0     XMPFiles_Impl.obj
 0002:0000f300       ??_C@_0DP@LLOGFKKC@GetAssociatedResources?5cannot?5be@ 00000001800bf300     XMPFiles_Impl.obj
 0002:0000f340       ??_C@_0DL@GHNFLJJC@IsMetadataWritable?5is?5not?5implem@ 00000001800bf340     XMPFiles_Impl.obj
 0002:0000f380       ??_C@_0DL@KAMCDNBO@IsMetadataWritable?5cannot?5be?5use@ 00000001800bf380     XMPFiles_Impl.obj
 0002:0000f3c0       ??_C@_0DE@JDIFLEML@Reconciling?5file?5handlers?5must?5i@ 00000001800bf3c0     XMPFiles_Impl.obj
 0002:0000f3f8       ??_C@_0BN@LGJJBOBL@Null?5output?5SXMPMeta?5pointer?$AA@ 00000001800bf3f8     XMPFiles_Impl.obj
 0002:0000f418       ??_C@_0BO@FODAPPHO@Null?5working?5SXMPMeta?5pointer?$AA@ 00000001800bf418     XMPFiles_Impl.obj
 0002:0000f438       ??_C@_0DC@HOPFHPIM@New_XMPFiles_IO?0?5path?5must?5be?5a?5@ 00000001800bf438     XMPFiles_IO.obj
 0002:0000f470       ??_C@_0CF@ODOBBAGE@New_XMPFiles_IO?0?5file?5does?5not?5e@ 00000001800bf470     XMPFiles_IO.obj
 0002:0000f498       ??_C@_0CD@IKBLLFNM@XMPFiles_IO?3?3Read?0?5not?5enough?5da@ 00000001800bf498     XMPFiles_IO.obj
 0002:0000f4c0       ??_C@_0IM@LNBCOIHP@XMP_Enforce?5failed?3?5?$CIamountRead?5@ 00000001800bf4c0     XMPFiles_IO.obj
 0002:0000f550       ??_C@_0DH@BBKFCJEP@New_XMPFiles_IO?0?5write?5not?5permi@ 00000001800bf550     XMPFiles_IO.obj
 0002:0000f590       ??_C@_0IH@KCGOIBBH@XMP_Enforce?5failed?3?5?$CInewOffset?5?$DO@ 00000001800bf590     XMPFiles_IO.obj
 0002:0000f618       ??_C@_0CN@MOHHHJKE@XMPFiles_IO?3?3Seek?0?5read?9only?5see@ 00000001800bf618     XMPFiles_IO.obj
 0002:0000f648       ??_C@_0DK@PDKBFJMN@New_XMPFiles_IO?0?5truncate?5not?5pe@ 00000001800bf648     XMPFiles_IO.obj
 0002:0000f690       ??_C@_0JD@DNPGKCBL@XMP_Enforce?5failed?3?5?$CIlength?5?$DM?$DN?5t@ 00000001800bf690     XMPFiles_IO.obj
 0002:0000f728       ??_C@_0DF@NEFFKGFM@XMPFiles_IO?3?3DeriveTemp?0?5can?8t?5d@ 00000001800bf728     XMPFiles_IO.obj
 0002:0000f760       ??_C@_0CO@EFODNKFI@XMPFiles_IO?3?3DeriveTemp?0?5can?8t?5o@ 00000001800bf760     XMPFiles_IO.obj
 0002:0000f790       ??_C@_0CL@PBLMPKEO@XMPFiles_IO?3?3AbsorbTemp?0?5no?5temp@ 00000001800bf790     XMPFiles_IO.obj
 0002:0000f7c8       ??_7XMP_IO@@6B@            00000001800bf7c8     XMPFiles_IO.obj
 0002:0000f818       ??_7XMPFiles_IO@@6B@       00000001800bf818     XMPFiles_IO.obj
 0002:0000f860       ??_C@_01NBENCBCI@?$CK?$AA@ 00000001800bf860     Host_IO-Win.obj
 0002:0000f868       ??_C@_0CH@DPCAADFN@Host_IO?3?3Writable?0?5cannot?5conver@ 00000001800bf868     Host_IO-Win.obj
 0002:0000f890       ??_C@_0CF@LKPIDMBM@Host_IO?3?3Create?0?5cannot?5convert?5@ 00000001800bf890     Host_IO-Win.obj
 0002:0000f8b8       ??_C@_0CP@JKNFNIGG@Host_IO?3?3Create?0?5path?5exists?5but@ 00000001800bf8b8     Host_IO-Win.obj
 0002:0000f8e8       ??_C@_0CE@BKJEHBLG@Host_IO?3?3Create?0?5cannot?5create?5f@ 00000001800bf8e8     Host_IO-Win.obj
 0002:0000f90c       ??_C@_05GNELEFIB@?4_nn_?$AA@ 00000001800bf90c     Host_IO-Win.obj
 0002:0000f918       ??_C@_0DC@OAIAGDHI@Host_IO?3?3CreateTemp?0?5cannot?5crea@ 00000001800bf918     Host_IO-Win.obj
 0002:0000f950       ??_C@_0CD@JDFKBOON@Host_IO?3?3Open?0?5GetWidePath?5failu@ 00000001800bf950     Host_IO-Win.obj
 0002:0000f978       ??_C@_0CE@NPAGCMIO@Host_IO?3?3Close?0?5CloseHandle?5fail@ 00000001800bf978     Host_IO-Win.obj
 0002:0000f9a0       ??_C@_0BN@NKLMIBJM@Cannot?5create?5temp?5file?5path?$AA@ 00000001800bf9a0     Host_IO-Win.obj
 0002:0000f9c0       ??_C@_0CF@DAMNCCKD@Host_IO?3?3Rename?0?5GetWidePath?5fai@ 00000001800bf9c0     Host_IO-Win.obj
 0002:0000f9e8       ??_C@_0CB@KBJPKOFO@Host_IO?3?3Rename?0?5new?5path?5exists@ 00000001800bf9e8     Host_IO-Win.obj
 0002:0000fa10       ??_C@_0CD@ENDOIPMF@Host_IO?3?3Rename?0?5MoveFileW?5failu@ 00000001800bfa10     Host_IO-Win.obj
 0002:0000fa38       ??_C@_0CF@OMJKNKAN@Host_IO?3?3Delete?0?5GetWidePath?5fai@ 00000001800bfa38     Host_IO-Win.obj
 0002:0000fa60       ??_C@_0CF@JIFPIACI@Host_IO?3?3Delete?0?5DeleteFileW?5fai@ 00000001800bfa60     Host_IO-Win.obj
 0002:0000fa88       ??_C@_0BC@FFDAEEHC@Invalid?5seek?5mode?$AA@ 00000001800bfa88     Host_IO-Win.obj
 0002:0000faa0       ??_C@_0CI@EBBPCFHG@Host_IO?3?3Seek?0?5SetFilePointerEx?5@ 00000001800bfaa0     Host_IO-Win.obj
 0002:0000fac8       ??_C@_0CB@GMLPMHDE@Host_IO?3?3Read?0?5request?5too?5large@ 00000001800bfac8     Host_IO-Win.obj
 0002:0000faf0       ??_C@_0CA@DEBPHOAC@Host_IO?3?3Read?0?5ReadFile?5failure?$AA@ 00000001800bfaf0     Host_IO-Win.obj
 0002:0000fb10       ??_C@_0CC@ELADNJCE@Host_IO?3?3Write?0?5request?5too?5larg@ 00000001800bfb10     Host_IO-Win.obj
 0002:0000fb38       ??_C@_0BK@HLFHJEGK@Host_IO?3?3Write?0?5disk?5full?$AA@ 00000001800bfb38     Host_IO-Win.obj
 0002:0000fb58       ??_C@_0CC@KGBDOJDM@Host_IO?3?3Write?0?5WriteFile?5failur@ 00000001800bfb58     Host_IO-Win.obj
 0002:0000fb80       ??_C@_0CH@POJFMPHC@Host_IO?3?3Length?0?5GetFileSizeEx?5f@ 00000001800bfb80     Host_IO-Win.obj
 0002:0000fba8       ??_C@_0CK@PPENIDOO@Host_IO?3?3SetEOF?0?5SetFilePointerE@ 00000001800bfba8     Host_IO-Win.obj
 0002:0000fbd8       ??_C@_0CG@BLKPAHM@Host_IO?3?3SetEOF?0?5SetEndOfFile?5fa@ 00000001800bfbd8     Host_IO-Win.obj
 0002:0000fc00       ??_C@_0CK@DGBPIDBJ@Host_IO?3?3GetFileMode?0?5GetWidePat@ 00000001800bfc00     Host_IO-Win.obj
 0002:0000fc2c       ??_C@_02KHDDNBB@?2?$CK?$AA@ 00000001800bfc2c     Host_IO-Win.obj
 0002:0000fc30       ??_C@_0CJ@DPLPMOBC@Host_IO?3?3OpenFolder?0?5GetWidePath@ 00000001800bfc30     Host_IO-Win.obj
 0002:0000fc60       ??_C@_0CM@OEKLFEAH@Host_IO?3?3OpenFolder?5?9?5FindFirstF@ 00000001800bfc60     Host_IO-Win.obj
 0002:0000fc90       ??_C@_0CK@DOGAAOIJ@Host_IO?3?3OpenFolder?0?5path?5is?5not@ 00000001800bfc90     Host_IO-Win.obj
 0002:0000fcc0       ??_C@_0CI@PEMDCOGK@Host_IO?3?3CloseFolder?0?5FindClose?5@ 00000001800bfcc0     Host_IO-Win.obj
 0002:0000fce8       ??_C@_04HMNMCKMH@?2?2?$DP?2?$AA@ 00000001800bfce8     Host_IO-Win.obj
 0002:0000fcf0       ??_C@_02HDBGODGB@?2?2?$AA@ 00000001800bfcf0     Host_IO-Win.obj
 0002:0000fcf4       ??_C@_02CEGDFPFP@?4?2?$AA@ 00000001800bfcf4     Host_IO-Win.obj
 0002:0000fcf8       ??_C@_08EFJEOMPJ@?2?2?$DP?2UNC?2?$AA@ 00000001800bfcf8     Host_IO-Win.obj
 0002:0000fd04       ??_C@_01KICIPPFI@?2?$AA@   00000001800bfd04     Host_IO-Win.obj
 0002:0000fd08       ??_C@_0BE@EMFNAGPB@Open?0?5other?5failure?$AA@ 00000001800bfd08     Host_IO-Win.obj
 0002:0000fd28       ??_7AIFF_MetaHandler@@6B@  00000001800bfd28     AIFF_Handler.obj
 0002:0000fd90       ??_7IChunkBehavior@IFF_RIFF@@6B@ 00000001800bfd90     AIFF_Handler.obj
 0002:0000fde8       ??_7XMPFileHandler@@6B@    00000001800bfde8     AIFF_Handler.obj
 0002:0000fe50       ??_7IReconcile@@6B@        00000001800bfe50     AIFF_Handler.obj
 0002:0000fe70       ??_7AIFFBehavior@IFF_RIFF@@6B@ 00000001800bfe70     AIFF_Handler.obj
 0002:0000fec8       ??_7BigEndian@@6B@         00000001800bfec8     AIFF_Handler.obj
 0002:0000ff28       ??_7AIFFReconcile@IFF_RIFF@@6B@ 00000001800bff28     AIFF_Handler.obj
 0002:0000ff40       ??_C@_0DI@ELGCAOME@AIFF_MetaHandler?3?3UpdateFile?3?5Sa@ 00000001800bff40     AIFF_Handler.obj
 0002:0000ff78       ??_C@_0DE@HFGOOON@AIFF_MetaHandler?3?3WriteTempFile?5@ 00000001800bff78     AIFF_Handler.obj
 0002:0000ffb0       ??_C@_0CC@FCHMBOIG@Failure?5writing?5ASF?5header?5objec@ 00000001800bffb0     ASF_Handler.obj
 0002:0000ffd8       ??_C@_0BL@GNHAIGAL@Failure?5copyinh?5ASF?5object?$AA@ 00000001800bffd8     ASF_Handler.obj
 0002:0000fff8       ??_C@_0BP@FMHLDPKB@Failure?5writing?5ASF?5XMP?5object?$AA@ 00000001800bfff8     ASF_Handler.obj
 0002:00010018       ??_C@_0BP@BHBMKOHO@Failure?5updating?5ASF?5file?5size?$AA@ 00000001800c0018     ASF_Handler.obj
 0002:00010038       ??_C@_0BP@MGKGMGFA@Failure?5creating?5ASF?5temp?5file?$AA@ 00000001800c0038     ASF_Handler.obj
 0002:00010060       ??_7ASF_MetaHandler@@6B@   00000001800c0060     ASF_Handler.obj
 0002:000100c8       ??_7ObjectData@ASF_Support@@6B@ 00000001800c00c8     ASF_Handler.obj
 0002:000100d8       ??_7ObjectState@ASF_Support@@6B@ 00000001800c00d8     ASF_Handler.obj
 0002:000100e0       ??_C@_0O@ILLCCJEF@23976Timecode?$AA@ 00000001800c00e0     AVCHD_Handler.obj
 0002:000100f0       ??_C@_0L@DNKHJAHM@24Timecode?$AA@ 00000001800c00f0     AVCHD_Handler.obj
 0002:000100fc       ??_C@_02JMHLOEOE@24?$AA@   00000001800c00fc     AVCHD_Handler.obj
 0002:00010100       ??_C@_01HIHLOKLC@1?$AA@    00000001800c0100     AVCHD_Handler.obj
 0002:00010108       ??_C@_0L@NCGFPLEC@25Timecode?$AA@ 00000001800c0108     AVCHD_Handler.obj
 0002:00010114       ??_C@_02IFGANFKF@25?$AA@   00000001800c0114     AVCHD_Handler.obj
 0002:00010118       ??_C@_0BB@LLJCCLDF@2997DropTimecode?$AA@ 00000001800c0118     AVCHD_Handler.obj
 0002:00010130       ??_C@_0BE@NODAEDFM@2997NonDropTimecode?$AA@ 00000001800c0130     AVCHD_Handler.obj
 0002:00010148       ??_C@_0P@MFCLMALD@startTimeScale?$AA@ 00000001800c0148     AVCHD_Handler.obj
 0002:00010158       ??_C@_0CK@HABIIPLB@http?3?1?1ns?4adobe?4com?1xmp?11?40?1Dyna@ 00000001800c0158     AVCHD_Handler.obj
 0002:00010188       ??_C@_0BE@NPLKLFEJ@startTimeSampleSize?$AA@ 00000001800c0188     AVCHD_Handler.obj
 0002:000101a0       ??_C@_09MELCJLEJ@timeValue?$AA@ 00000001800c01a0     AVCHD_Handler.obj
 0002:000101b0       ??_C@_0O@JANNOGPD@startTimecode?$AA@ 00000001800c01b0     AVCHD_Handler.obj
 0002:000101c0       ??_C@_0L@FEDHPEKM@timeFormat?$AA@ 00000001800c01c0     AVCHD_Handler.obj
 0002:000101cc       ??_C@_04JJJPHODJ@Sony?$AA@ 00000001800c01cc     AVCHD_Handler.obj
 0002:000101d4       ??_C@_04EGCMLPFP@Make?$AA@ 00000001800c01d4     AVCHD_Handler.obj
 0002:000101e0       ??_C@_0BO@NAABNKKI@http?3?1?1ns?4adobe?4com?1tiff?11?40?1?$AA@ 00000001800c01e0     AVCHD_Handler.obj
 0002:00010200       ??_C@_05NFIJOKEG@Model?$AA@ 00000001800c0200     AVCHD_Handler.obj
 0002:00010208       ??_C@_08CEHGNEL@shotName?$AA@ 00000001800c0208     AVCHD_Handler.obj
 0002:00010218       ??_C@_0CB@MKFHMHAG@http?3?1?1purl?4org?1dc?1elements?11?41?1@ 00000001800c0218     AVCHD_Handler.obj
 0002:0001023c       ??_C@_04IGJHDAHB@?4xmp?$AA@ 00000001800c023c     AVCHD_Handler.obj
 0002:00010244       ??_C@_04ILGMPNAN@?4XMP?$AA@ 00000001800c0244     AVCHD_Handler.obj
 0002:0001024c       ??_C@_03ELOOOHPG@720?$AA@  00000001800c024c     AVCHD_Handler.obj
 0002:00010250       ??_C@_04KIACLCF@1280?$AA@  00000001800c0250     AVCHD_Handler.obj
 0002:00010258       ??_C@_04NABGCJPC@1920?$AA@ 00000001800c0258     AVCHD_Handler.obj
 0002:00010260       ??_C@_03FEMMMNMO@480?$AA@  00000001800c0260     AVCHD_Handler.obj
 0002:00010264       ??_C@_03LBHGEKBA@576?$AA@  00000001800c0264     AVCHD_Handler.obj
 0002:00010268       ??_C@_04KAIJODKO@1080?$AA@ 00000001800c0268     AVCHD_Handler.obj
 0002:00010270       ??_C@_01NOFIACDB@w?$AA@    00000001800c0270     AVCHD_Handler.obj
 0002:00010278       ??_C@_0CO@HJOPNOBN@http?3?1?1ns?4adobe?4com?1xap?11?40?1sTyp@ 00000001800c0278     AVCHD_Handler.obj
 0002:000102a8       ??_C@_0P@IAPLLKK@videoFrameSize?$AA@ 00000001800c02a8     AVCHD_Handler.obj
 0002:000102b8       ??_C@_01BDACAMKP@h?$AA@    00000001800c02b8     AVCHD_Handler.obj
 0002:000102bc       ??_C@_06CBIFBKHG@pixels?$AA@ 00000001800c02bc     AVCHD_Handler.obj
 0002:000102c4       ??_C@_04NPEDKLDA@unit?$AA@ 00000001800c02c4     AVCHD_Handler.obj
 0002:000102cc       ??_C@_06CJBEAKGJ@23?498p?$AA@ 00000001800c02cc     AVCHD_Handler.obj
 0002:000102d4       ??_C@_03IJAGEOEE@25p?$AA@  00000001800c02d4     AVCHD_Handler.obj
 0002:000102d8       ??_C@_06IDNDGODC@29?497p?$AA@ 00000001800c02d8     AVCHD_Handler.obj
 0002:000102e0       ??_C@_06EEDCOOOF@59?494p?$AA@ 00000001800c02e0     AVCHD_Handler.obj
 0002:000102e8       ??_C@_03BCBKLEBG@50p?$AA@  00000001800c02e8     AVCHD_Handler.obj
 0002:000102ec       ??_C@_03IJBKBNAO@50i?$AA@  00000001800c02ec     AVCHD_Handler.obj
 0002:000102f0       ??_C@_06NPDCEHPN@59?494i?$AA@ 00000001800c02f0     AVCHD_Handler.obj
 0002:000102f8       ??_C@_0P@PKEFJHPP@videoFrameRate?$AA@ 00000001800c02f8     AVCHD_Handler.obj
 0002:00010308       ??_C@_0BA@LHHGCHLF@audioSampleRate?$AA@ 00000001800c0308     AVCHD_Handler.obj
 0002:00010318       ??_C@_05PHLGJONK@title?$AA@ 00000001800c0318     AVCHD_Handler.obj
 0002:00010320       ??_C@_0L@IAONLGLH@identifier?$AA@ 00000001800c0320     AVCHD_Handler.obj
 0002:0001032c       ??_C@_04DDJAGGFE@good?$AA@ 00000001800c032c     AVCHD_Handler.obj
 0002:00010338       ??_C@_07PJPKCGHK@creator?$AA@ 00000001800c0338     AVCHD_Handler.obj
 0002:00010340       ??_C@_0N@FPJJBBNM@SerialNumber?$AA@ 00000001800c0340     AVCHD_Handler.obj
 0002:00010350       ??_C@_0CC@MHPMFAHL@http?3?1?1ns?4adobe?4com?1exif?11?40?1aux@ 00000001800c0350     AVCHD_Handler.obj
 0002:00010378       ??_C@_0N@FPHHAIOM@shotLocation?$AA@ 00000001800c0378     AVCHD_Handler.obj
 0002:00010388       ??_C@_0BN@NPNNJGID@http?3?1?1ns?4adobe?4com?1xap?11?40?1?$AA@ 00000001800c0388     AVCHD_Handler.obj
 0002:000103a8       ??_C@_0O@EPMPODKF@NativeDigests?$AA@ 00000001800c03a8     AVCHD_Handler.obj
 0002:000103b8       ??_C@_0CL@KBFIJDKL@Basic_MetaHandler?3?3UpdateFile?5?9?5@ 00000001800c03b8     Basic_Handler.obj
 0002:000103e8       ??_C@_0CK@BGHCPIMO@Basic_MetaHandler?3?3WriteFile?5?9?5U@ 00000001800c03e8     Basic_Handler.obj
 0002:00010418       ??_C@_0DH@CHIPMNEG@Basic_MetaHandler?3?3ShuffleTraili@ 00000001800c0418     Basic_Handler.obj
 0002:00010458       ??_7Basic_MetaHandler@@6B@ 00000001800c0458     Basic_Handler.obj
 0002:000104e8       ??_C@_0CO@DOAJMCGN@FLV_MetaHandler?3?3LookForMetadata@ 00000001800c04e8     FLV_Handler.obj
 0002:00010518       ??_C@_09GFOJCPK@onXMPData?$AA@ 00000001800c0518     FLV_Handler.obj
 0002:00010528       ??_C@_0L@PFNEIOOD@onMetaData?$AA@ 00000001800c0528     FLV_Handler.obj
 0002:00010538       ??_C@_07KFCJLDGC@liveXML?$AA@ 00000001800c0538     FLV_Handler.obj
 0002:00010540       ??_C@_03PFKFKJHE@FLV?$AA@  00000001800c0540     FLV_Handler.obj
 0002:00010548       ??_C@_0BP@DMAEPCID@Failure?5creating?5FLV?5temp?5file?$AA@ 00000001800c0548     FLV_Handler.obj
 0002:00010568       ??_C@_0CD@EBNMBOHH@FLV?5tags?5can?8t?5be?5larger?5than?516@ 00000001800c0568     FLV_Handler.obj
 0002:00010598       ??_7FLV_MetaHandler@@6B@   00000001800c0598     FLV_Handler.obj
 0002:00010600       ??_7GIF_MetaHandler@@6B@   00000001800c0600     GIF_Handler.obj
 0002:00010660       ??_C@_06HOBIMJIM@GIF89a?$AA@ 00000001800c0660     GIF_Handler.obj
 0002:00010670       ??_C@_0MD@LJIMCJPJ@XMP_Enforce?5failed?3?5?$CImemcmp?$CI?5buf@ 00000001800c0670     GIF_Handler.obj
 0002:00010738       ??_C@_0M@OANDLLIH@XMP?5DataXMP?$AA@ 00000001800c0738     GIF_Handler.obj
 0002:00010748       ??_C@_0BC@BLAEDCCF@Invaild?5GIF?5Block?$AA@ 00000001800c0748     GIF_Handler.obj
 0002:00010760       ??_C@_0BP@GPHAGHK@No?5trailer?5exists?5for?5GIF?5file?$AA@ 00000001800c0760     GIF_Handler.obj
 0002:00010780       ??_C@_0BM@EIGAAGML@Out?5of?5range?5seek?5operation?$AA@ 00000001800c0780     GIF_Handler.obj
 0002:000107a0       ??_C@_0BP@LADMENBK@Failure?5creating?5GIF?5temp?5file?$AA@ 00000001800c07a0     GIF_Handler.obj
 0002:000107c0       ??_C@_0CJ@ONFDPCPN@Not?5able?5to?5write?5XMP?5packet?5in?5@ 00000001800c07c0     GIF_Handler.obj
 0002:000107f0       ??_C@_0BB@HDBOMJCD@?$AG?$AG?m?u?X?$BNF?e?$LN1?o?g?$POt?$LH?$BN?$AA@ 00000001800c07f0     InDesign_Handler.obj
 0002:00010808       ??_C@_0BB@IKOEHPCN@?$PN?N?$NLp?w?$IGKO?$KE?S?G?$CI?$LDAq?$AG?$AA@ 00000001800c0808     InDesign_Handler.obj
 0002:00010820       ??_C@_0BB@IEOLNGA@?$NO99yQ?$IIKl?$IOc?n?x?$KO?$OA?$NN8?$AA@ 00000001800c0820     InDesign_Handler.obj
 0002:00010834       ??_C@_03PKPBNCAL@?o?$LL?$LP?$AA@ 00000001800c0834     InDesign_Handler.obj
 0002:00010838       ??_C@_0CN@NDCJMKPH@InDesign_MetaHandler?3?3LocateXMP?5@ 00000001800c0838     InDesign_Handler.obj
 0002:00010868       ??_C@_04JLAELECN@?5id?$DN?$AA@ 00000001800c0868     InDesign_Handler.obj
 0002:00010878       ??_7InDesign_MetaHandler@@6B@ 00000001800c0878     InDesign_Handler.obj
 0002:00010908       ??_C@_0CA@GEHMPBBC@Not?5appropriate?5for?5TIFF_Reader?$AA@ 00000001800c0908     JPEG_Handler.obj
 0002:00010928       ??_C@_0CA@EKLMPDNE@Not?5appropriate?5for?5IPTC_Reader?$AA@ 00000001800c0928     JPEG_Handler.obj
 0002:00010948       ??_C@_0CA@CLAEBONC@Not?5appropriate?5for?5PSIR_Reader?$AA@ 00000001800c0948     JPEG_Handler.obj
 0002:00010968       ??_C@_06IKJKLFGC@Exif?$AA?$PP?$AA@ 00000001800c0968     JPEG_Handler.obj
 0002:00010970       ??_C@_06BJLOEIBA@Exif?$AA?$AA?$AA@ 00000001800c0970     JPEG_Handler.obj
 0002:00010978       ??_C@_0BO@HEGOAPAM@http?3?1?1ns?4adobe?4com?1xap?11?40?1?$AA?$AA@ 00000001800c0978     JPEG_Handler.obj
 0002:00010998       ??_C@_0P@EOBPNLMN@Photoshop?53?40?$AA?$AA@ 00000001800c0998     JPEG_Handler.obj
 0002:000109a8       ??_C@_0CN@DGMDDKPD@JPEG_MetaHandler?3?3CacheFileData?5@ 00000001800c09a8     JPEG_Handler.obj
 0002:000109d8       ??_C@_0CE@IPGNKBHJ@http?3?1?1ns?4adobe?4com?1xmp?1extensio@ 00000001800c09d8     JPEG_Handler.obj
 0002:00010a00       ??_C@_0BM@HKKBIAEM@Invalid?5JPEG?5segment?5length?$AA@ 00000001800c0a00     JPEG_Handler.obj
 0002:00010a20       ??_C@_0P@HMJGFGDJ@HasExtendedXMP?$AA@ 00000001800c0a20     JPEG_Handler.obj
 0002:00010a30       ??_C@_05HHKFHIDC@NIKON?$AA@ 00000001800c0a30     JPEG_Handler.obj
 0002:00010a38       ??_C@_0CM@CBDNBKMI@JPEG?5must?5have?5at?5least?5SOI?5and?5@ 00000001800c0a38     JPEG_Handler.obj
 0002:00010a68       ??_C@_0BO@HBHGMINC@http?3?1?1ns?4adobe?4com?1xmp?1note?1?$AA@ 00000001800c0a68     JPEG_Handler.obj
 0002:00010a88       ??_C@_0CJ@FONMCMID@JPEG_MetaHandler?3?3WriteFile?5?9?5Us@ 00000001800c0a88     JPEG_Handler.obj
 0002:00010ab8       ??_C@_0BD@IJGEJHDH@Missing?5SOI?5marker?$AA@ 00000001800c0ab8     JPEG_Handler.obj
 0002:00010ad0       ??_C@_0BO@KNEINFAD@Unexpected?5TEM?5or?5RSTn?5marker?$AA@ 00000001800c0ad0     JPEG_Handler.obj
 0002:00010af8       ??_7JPEG_MetaHandler@@6B@  00000001800c0af8     JPEG_Handler.obj
 0002:00010b60       ??_7PSIR_Manager@@6B@      00000001800c0b60     JPEG_Handler.obj
 0002:00010bb8       ??_7TIFF_Manager@@6B@      00000001800c0bb8     JPEG_Handler.obj
 0002:00010cb8       ??_7PSIR_FileWriter@@6B@   00000001800c0cb8     JPEG_Handler.obj
 0002:00010d10       ??_7IPTC_Manager@@6B@      00000001800c0d10     JPEG_Handler.obj
 0002:00010d40       ??_7PSIR_MemoryReader@@6B@ 00000001800c0d40     JPEG_Handler.obj
 0002:00010d98       ??_7IPTC_Writer@@6B@       00000001800c0d98     JPEG_Handler.obj
 0002:00010dc8       ??_7IPTC_Reader@@6B@       00000001800c0dc8     JPEG_Handler.obj
 0002:00010df8       ??_7TIFF_MemoryReader@@6B@ 00000001800c0df8     JPEG_Handler.obj
 0002:00010ef8       ??_7MP3_MetaHandler@@6B@   00000001800c0ef8     MP3_Handler.obj
 0002:00010f58       ??_C@_05LAPONLG@false?$AA@ 00000001800c0f58     MP3_Handler.obj
 0002:00010f60       ??_C@_04LOAJBDKD@true?$AA@ 00000001800c0f60     MP3_Handler.obj
 0002:00010f70       ??_C@_0EP@GMFEHHCN@kXMPErr_InternalFailure?5?$CCinput?5n@ 00000001800c0f70     MP3_Handler.obj
 0002:00010fc0       ??_C@_04IPEPCGNC@TPE1?$AA@ 00000001800c0fc0     MP3_Handler.obj
 0002:00010fc8       ??_C@_06FOCAFPGH@artist?$AA@ 00000001800c0fc8     MP3_Handler.obj
 0002:00010fd0       ??_C@_03DADFJBBE@TP1?$AA@  00000001800c0fd0     MP3_Handler.obj
 0002:00010fd4       ??_C@_03LHEAFPOI@TAL?$AA@  00000001800c0fd4     MP3_Handler.obj
 0002:00010fd8       ??_C@_04GMCJAHJC@TALB?$AA@ 00000001800c0fd8     MP3_Handler.obj
 0002:00010fe0       ??_C@_04PEBLADJH@TRCK?$AA@ 00000001800c0fe0     MP3_Handler.obj
 0002:00010fe8       ??_C@_05MCBBJIDG@album?$AA@ 00000001800c0fe8     MP3_Handler.obj
 0002:00010ff0       ??_C@_0M@DPCBAKHG@trackNumber?$AA@ 00000001800c0ff0     MP3_Handler.obj
 0002:00010ffc       ??_C@_03OGGBNEAG@TRK?$AA@  00000001800c0ffc     MP3_Handler.obj
 0002:00011000       ??_C@_03JPOJNIEF@TCO?$AA@  00000001800c1000     MP3_Handler.obj
 0002:00011004       ??_C@_04GINDDOEM@TCON?$AA@ 00000001800c1004     MP3_Handler.obj
 0002:0001100c       ??_C@_04JEJHKEED@TIT2?$AA@ 00000001800c100c     MP3_Handler.obj
 0002:00011014       ??_C@_05JOBIDKGP@genre?$AA@ 00000001800c1014     MP3_Handler.obj
 0002:0001101c       ??_C@_04NIGMENML@COMM?$AA@ 00000001800c101c     MP3_Handler.obj
 0002:00011024       ??_C@_03BMBBGKAL@TT2?$AA@  00000001800c1024     MP3_Handler.obj
 0002:00011028       ??_C@_0L@NMJOPCOP@logComment?$AA@ 00000001800c1028     MP3_Handler.obj
 0002:00011034       ??_C@_03GJALCMIF@COM?$AA@  00000001800c1034     MP3_Handler.obj
 0002:00011038       ??_C@_03HELHBGGJ@TYE?$AA@  00000001800c1038     MP3_Handler.obj
 0002:0001103c       ??_C@_04LMJHFBDM@TYER?$AA@ 00000001800c103c     MP3_Handler.obj
 0002:00011044       ??_C@_04EPLHNBCE@TDAT?$AA@ 00000001800c1044     MP3_Handler.obj
 0002:00011050       ??_C@_0L@GFOFLMG@CreateDate?$AA@ 00000001800c1050     MP3_Handler.obj
 0002:0001105c       ??_C@_04OHBONDIN@TIME?$AA@ 00000001800c105c     MP3_Handler.obj
 0002:00011064       ??_C@_03ECFODEO@TDA?$AA@   00000001800c1064     MP3_Handler.obj
 0002:00011068       ??_C@_04FEFEEIJL@TDRC?$AA@ 00000001800c1068     MP3_Handler.obj
 0002:00011070       ??_C@_03KAEIDPBB@TIM?$AA@  00000001800c1070     MP3_Handler.obj
 0002:00011074       ??_C@_03FCLDNGNL@TCP?$AA@  00000001800c1074     MP3_Handler.obj
 0002:00011078       ??_C@_04LPBGNFPN@TCMP?$AA@ 00000001800c1078     MP3_Handler.obj
 0002:00011080       ??_C@_04LHMBAEOB@USLT?$AA@ 00000001800c1080     MP3_Handler.obj
 0002:00011088       ??_C@_0BC@CKOKGJCB@partOfCompilation?$AA@ 00000001800c1088     MP3_Handler.obj
 0002:0001109c       ??_C@_06IJBHAOHD@lyrics?$AA@ 00000001800c109c     MP3_Handler.obj
 0002:000110a4       ??_C@_03IFDPDDIH@ULT?$AA@  00000001800c10a4     MP3_Handler.obj
 0002:000110a8       ??_C@_03KNNPLKMH@TCM?$AA@  00000001800c10a8     MP3_Handler.obj
 0002:000110ac       ??_C@_04EDPOGNIP@TCOM?$AA@ 00000001800c10ac     MP3_Handler.obj
 0002:000110b4       ??_C@_04NFBDKKCB@TPOS?$AA@ 00000001800c10b4     MP3_Handler.obj
 0002:000110c0       ??_C@_08KFGNDJJC@composer?$AA@ 00000001800c10c0     MP3_Handler.obj
 0002:000110d0       ??_C@_0L@CCIONAMG@discNumber?$AA@ 00000001800c10d0     MP3_Handler.obj
 0002:000110dc       ??_C@_03BPAKOIOC@TPA?$AA@  00000001800c10dc     MP3_Handler.obj
 0002:000110e0       ??_C@_03GAIFLEFJ@TCR?$AA@  00000001800c10e0     MP3_Handler.obj
 0002:000110e4       ??_C@_04LMJCABJD@TCOP?$AA@ 00000001800c10e4     MP3_Handler.obj
 0002:000110ec       ??_C@_04PCDINCJH@TPE4?$AA@ 00000001800c10ec     MP3_Handler.obj
 0002:000110f4       ??_C@_06LEPFCBBJ@rights?$AA@ 00000001800c10f4     MP3_Handler.obj
 0002:00011100       ??_C@_08NCGGGNGI@engineer?$AA@ 00000001800c1100     MP3_Handler.obj
 0002:0001110c       ??_C@_03ENECGFFB@TP4?$AA@  00000001800c110c     MP3_Handler.obj
 0002:00011110       ??_C@_03EAAGHJDF@WCP?$AA@  00000001800c1110     MP3_Handler.obj
 0002:00011114       ??_C@_04PLDCHLED@WCOP?$AA@ 00000001800c1114     MP3_Handler.obj
 0002:00011120       ??_C@_0N@PLEIDHMG@WebStatement?$AA@ 00000001800c1120     MP3_Handler.obj
 0002:00011130       ??_C@_0CE@JBINFCAM@http?3?1?1ns?4adobe?4com?1xap?11?40?1righ@ 00000001800c1130     MP3_Handler.obj
 0002:00011158       ??_C@_0BP@KJEFHNAF@no?5support?5for?5MP3?5with?5footer?$AA@ 00000001800c1158     MP3_Handler.obj
 0002:00011178       ??_C@_03LLFPHHHI@ID3?$AA@  00000001800c1178     MP3_Handler.obj
 0002:00011180       ??_C@_0EL@FHIJOBOP@kXMPErr_BadFileFormat?5?$CCextHeader@ 00000001800c1180     MP3_Handler.obj
 0002:000111d0       ??_C@_0BK@JBAKMNBO@illegal?5header?5lower?5bits?$AA@ 00000001800c11d0     MP3_Handler.obj
 0002:000111f0       ??_C@_0FB@FBPGFOPA@kXMPErr_BadFileFormat?5?$CCtwo?5XMP?5p@ 00000001800c11f0     MP3_Handler.obj
 0002:00011244       ??_C@_04DEHMCCLI@XMP?$AA?$AA@ 00000001800c1244     MP3_Handler.obj
 0002:00011250       ??_C@_0BH@IAMAIFO@padding?5not?5nulled?5out?$AA@ 00000001800c1250     MP3_Handler.obj
 0002:00011270       ??_C@_0FF@IIADEDNK@kXMPErr_BadFileFormat?5?$CCillegal?5o@ 00000001800c1270     MP3_Handler.obj
 0002:000112c8       ??_C@_0DH@GCMJBMKB@MP3_MetaHandler?3?3UpdateFile?3?5Saf@ 00000001800c12c8     MP3_Handler.obj
 0002:00011300       ??_C@_0BK@PDDECBAH@padding?$CI2?$CJ?5not?5nulled?5out?$AA@ 00000001800c1300     MP3_Handler.obj
 0002:0001131c       ??_C@_01GBGANLPD@0?$AA@    00000001800c131c     MP3_Handler.obj
 0002:00011320       ??_C@_0FE@LFLOJJLF@kXMPErr_BadParam?5?$CCYear?5is?5out?5of@ 00000001800c1320     MP3_Handler.obj
 0002:00011378       ??_C@_0CO@IEPDFNGK@MP3_MetaHandler?3?3WriteTempFile?3?5@ 00000001800c1378     MP3_Handler.obj
 0002:000113a8       ??_C@_0CA@FDDMCMOA@Failure?5opening?5MPEG?92?5XMP?5file?$AA@ 00000001800c13a8     MPEG2_Handler.obj
 0002:000113c8       ??_C@_0CN@KJOLAIDG@MPEG2?5cannot?5be?5used?5with?5client@ 00000001800c13c8     MPEG2_Handler.obj
 0002:000113f8       ??_C@_0DJ@LILGNIGB@MPEG2_MetaHandler?3?3WriteTempFile@ 00000001800c13f8     MPEG2_Handler.obj
 0002:00011440       ??_7MPEG2_MetaHandler@@6B@ 00000001800c1440     MPEG2_Handler.obj
 0002:000114a8       ??_7MOOV_Manager@@6B@      00000001800c14a8     MPEG4_Handler.obj
 0002:000114b8       ??_7MPEG4_MetaHandler@@6B@ 00000001800c14b8     MPEG4_Handler.obj
 0002:0001154c       ??_C@_02DFENNNBM@aa?$AA@   00000001800c154c     MPEG4_Handler.obj
 0002:00011550       ??_C@_03JDNAKOG@aar?$AA@   00000001800c1550     MPEG4_Handler.obj
 0002:00011554       ??_C@_02BOGAIONP@ab?$AA@   00000001800c1554     MPEG4_Handler.obj
 0002:00011558       ??_C@_03JAHLBNKH@abk?$AA@  00000001800c1558     MPEG4_Handler.obj
 0002:0001155c       ??_C@_02HKAMELNL@af?$AA@   00000001800c155c     MPEG4_Handler.obj
 0002:00011560       ??_C@_03MHCBMGD@afr?$AA@   00000001800c1560     MPEG4_Handler.obj
 0002:00011564       ??_C@_02MPKCDFJG@ak?$AA@   00000001800c1564     MPEG4_Handler.obj
 0002:00011568       ??_C@_03GFEFMOKC@aka?$AA@  00000001800c1568     MPEG4_Handler.obj
 0002:0001156c       ??_C@_02GACNLIFD@sq?$AA@   00000001800c156c     MPEG4_Handler.obj
 0002:00011570       ??_C@_03ELCHILOE@alb?$AA@  00000001800c1570     MPEG4_Handler.obj
 0002:00011574       ??_C@_03LAAKAJFJ@amh?$AA@  00000001800c1574     MPEG4_Handler.obj
 0002:00011578       ??_C@_03EGDNPNBI@sqi?$AA@  00000001800c1578     MPEG4_Handler.obj
 0002:0001157c       ??_C@_03HGLCFGFN@ara?$AA@  00000001800c157c     MPEG4_Handler.obj
 0002:00011580       ??_C@_02JJPIJCBA@am?$AA@   00000001800c1580     MPEG4_Handler.obj
 0002:00011584       ??_C@_03CAOIPBNL@arg?$AA@  00000001800c1584     MPEG4_Handler.obj
 0002:00011588       ??_C@_02FEKCJMIO@ar?$AA@   00000001800c1588     MPEG4_Handler.obj
 0002:0001158c       ??_C@_03NKAHBJFB@arm?$AA@  00000001800c158c     MPEG4_Handler.obj
 0002:00011590       ??_C@_02LCNFMBND@an?$AA@   00000001800c1590     MPEG4_Handler.obj
 0002:00011594       ??_C@_03GDIDDDDC@hye?$AA@  00000001800c1594     MPEG4_Handler.obj
 0002:00011598       ??_C@_02LIIHHOMK@hy?$AA@   00000001800c1598     MPEG4_Handler.obj
 0002:0001159c       ??_C@_02ENLJKNMP@as?$AA@   00000001800c159c     MPEG4_Handler.obj
 0002:000115a0       ??_C@_03NLMFHDGG@asm?$AA@  00000001800c15a0     MPEG4_Handler.obj
 0002:000115a4       ??_C@_02DAMOFJIK@av?$AA@   00000001800c15a4     MPEG4_Handler.obj
 0002:000115a8       ??_C@_03HBLLPOIB@ava?$AA@  00000001800c15a8     MPEG4_Handler.obj
 0002:000115ac       ??_C@_02FBCBBIBI@ae?$AA@   00000001800c15ac     MPEG4_Handler.obj
 0002:000115b0       ??_C@_03BFNHDLIF@ave?$AA@  00000001800c15b0     MPEG4_Handler.obj
 0002:000115b4       ??_C@_02LHFGEFEF@ay?$AA@   00000001800c15b4     MPEG4_Handler.obj
 0002:000115b8       ??_C@_03NGFCPGLA@aym?$AA@  00000001800c15b8     MPEG4_Handler.obj
 0002:000115bc       ??_C@_02JMHLBGIG@az?$AA@   00000001800c15bc     MPEG4_Handler.obj
 0002:000115c0       ??_C@_03BMMNMCOB@aze?$AA@  00000001800c15c0     MPEG4_Handler.obj
 0002:000115c4       ??_C@_02DHALGDEF@ba?$AA@   00000001800c15c4     MPEG4_Handler.obj
 0002:000115c8       ??_C@_03IAIIAMBA@bak?$AA@  00000001800c15c8     MPEG4_Handler.obj
 0002:000115cc       ??_C@_02JLLOCMEJ@bm?$AA@   00000001800c15cc     MPEG4_Handler.obj
 0002:000115d0       ??_C@_03NGNCKLJG@bam?$AA@  00000001800c15d0     MPEG4_Handler.obj
 0002:000115d4       ??_C@_02BMOKKCJF@eu?$AA@   00000001800c15d4     MPEG4_Handler.obj
 0002:000115d8       ??_C@_03DAKFPGML@baq?$AA@  00000001800c15d8     MPEG4_Handler.obj
 0002:000115dc       ??_C@_03MIMADCAL@bel?$AA@  00000001800c15dc     MPEG4_Handler.obj
 0002:000115e0       ??_C@_03IEGLKHFM@eus?$AA@  00000001800c15e0     MPEG4_Handler.obj
 0002:000115e4       ??_C@_03PKPGFAIJ@ben?$AA@  00000001800c15e4     MPEG4_Handler.obj
 0002:000115e8       ??_C@_02FDGHKGEB@be?$AA@   00000001800c15e8     MPEG4_Handler.obj
 0002:000115ec       ??_C@_03KFLGAOGL@bih?$AA@  00000001800c15ec     MPEG4_Handler.obj
 0002:000115f0       ??_C@_02LAJDHPIK@bn?$AA@   00000001800c15f0     MPEG4_Handler.obj
 0002:000115f4       ??_C@_03MIAMFPB@bis?$AA@   00000001800c15f4     MPEG4_Handler.obj
 0002:000115f8       ??_C@_02OGMJNIAM@bh?$AA@   00000001800c15f8     MPEG4_Handler.obj
 0002:000115fc       ??_C@_03NIODNNF@bod?$AA@   00000001800c15fc     MPEG4_Handler.obj
 0002:00011600       ??_C@_02PPNCOJEN@bi?$AA@   00000001800c1600     MPEG4_Handler.obj
 0002:00011604       ??_C@_03CKCLOOKC@tib?$AA@  00000001800c1604     MPEG4_Handler.obj
 0002:00011608       ??_C@_02KJIIEOML@bo?$AA@   00000001800c1608     MPEG4_Handler.obj
 0002:0001160c       ??_C@_02EPPPBDJG@bs?$AA@   00000001800c160c     MPEG4_Handler.obj
 0002:00011610       ??_C@_03IANLJED@bos?$AA@   00000001800c1610     MPEG4_Handler.obj
 0002:00011614       ??_C@_02FGOECCNH@br?$AA@   00000001800c1614     MPEG4_Handler.obj
 0002:00011618       ??_C@_03GLDMLH@bre?$AA@    00000001800c1618     MPEG4_Handler.obj
 0002:0001161c       ??_C@_02GBFBMEMD@bg?$AA@   00000001800c161c     MPEG4_Handler.obj
 0002:00011620       ??_C@_03NEOGJBHL@bul?$AA@  00000001800c1620     MPEG4_Handler.obj
 0002:00011624       ??_C@_02LOEMLMCB@my?$AA@   00000001800c1624     MPEG4_Handler.obj
 0002:00011628       ??_C@_03KHKOKE@bur?$AA@    00000001800c1628     MPEG4_Handler.obj
 0002:0001162c       ??_C@_03PFGOGFOL@cat?$AA@  00000001800c162c     MPEG4_Handler.obj
 0002:00011630       ??_C@_03DADBAGAE@mya?$AA@  00000001800c1630     MPEG4_Handler.obj
 0002:00011634       ??_C@_03LNCGFLPA@ces?$AA@  00000001800c1634     MPEG4_Handler.obj
 0002:00011638       ??_C@_02DGMJAJHC@ca?$AA@   00000001800c1638     MPEG4_Handler.obj
 0002:0001163c       ??_C@_03LGMEAKGK@cze?$AA@  00000001800c163c     MPEG4_Handler.obj
 0002:00011640       ??_C@_02EODNHJKB@cs?$AA@   00000001800c1640     MPEG4_Handler.obj
 0002:00011644       ??_C@_02OHALLCDL@ch?$AA@   00000001800c1644     MPEG4_Handler.obj
 0002:00011648       ??_C@_03MNAKLIHA@cha?$AA@  00000001800c1648     MPEG4_Handler.obj
 0002:0001164c       ??_C@_02FCKFMMHG@ce?$AA@   00000001800c164c     MPEG4_Handler.obj
 0002:00011650       ??_C@_03KJGGHNHE@che?$AA@  00000001800c1650     MPEG4_Handler.obj
 0002:00011654       ??_C@_02PEPMCKME@zh?$AA@   00000001800c1654     MPEG4_Handler.obj
 0002:00011658       ??_C@_03FNDDCHI@chi?$AA@   00000001800c1658     MPEG4_Handler.obj
 0002:0001165c       ??_C@_03ODKEGPCF@chu?$AA@  00000001800c165c     MPEG4_Handler.obj
 0002:00011660       ??_C@_03HOJIINOL@zho?$AA@  00000001800c1660     MPEG4_Handler.obj
 0002:00011664       ??_C@_03MIIJDMOG@chv?$AA@  00000001800c1664     MPEG4_Handler.obj
 0002:00011668       ??_C@_02BIGHNOCH@cu?$AA@   00000001800c1668     MPEG4_Handler.obj
 0002:0001166c       ??_C@_03KJKKOPGH@cor?$AA@  00000001800c166c     MPEG4_Handler.obj
 0002:00011670       ??_C@_02DDEKINOE@cv?$AA@   00000001800c1670     MPEG4_Handler.obj
 0002:00011674       ??_C@_03LALBNOCG@cos?$AA@  00000001800c1674     MPEG4_Handler.obj
 0002:00011678       ??_C@_02CEECONBN@kw?$AA@   00000001800c1678     MPEG4_Handler.obj
 0002:0001167c       ??_C@_03LINHFLNC@cre?$AA@  00000001800c167c     MPEG4_Handler.obj
 0002:00011680       ??_C@_02KIEKCEPM@co?$AA@   00000001800c1680     MPEG4_Handler.obj
 0002:00011684       ??_C@_03HMFLDODL@cym?$AA@  00000001800c1684     MPEG4_Handler.obj
 0002:00011688       ??_C@_02FHCGEIOA@cr?$AA@   00000001800c1688     MPEG4_Handler.obj
 0002:0001168c       ??_C@_03KPAHJFKG@wel?$AA@  00000001800c168c     MPEG4_Handler.obj
 0002:00011690       ??_C@_02LENCJBCL@cy?$AA@   00000001800c1690     MPEG4_Handler.obj
 0002:00011694       ??_C@_02DDIGBPPH@da?$AA@   00000001800c1694     MPEG4_Handler.obj
 0002:00011698       ??_C@_03NIJEKHIJ@dan?$AA@  00000001800c1698     MPEG4_Handler.obj
 0002:0001169c       ??_C@_02FHOKNKPD@de?$AA@   00000001800c169c     MPEG4_Handler.obj
 0002:000116a0       ??_C@_03HGKLMEMP@deu?$AA@  00000001800c16a0     MPEG4_Handler.obj
 0002:000116a4       ??_C@_03FEJMGOGI@div?$AA@  00000001800c16a4     MPEG4_Handler.obj
 0002:000116a8       ??_C@_03CLFPPNOG@ger?$AA@  00000001800c16a8     MPEG4_Handler.obj
 0002:000116ac       ??_C@_03HDJGFGPO@dut?$AA@  00000001800c16ac     MPEG4_Handler.obj
 0002:000116b0       ??_C@_02DGAFJLGB@dv?$AA@   00000001800c16b0     MPEG4_Handler.obj
 0002:000116b4       ??_C@_03EFBODMDE@nld?$AA@  00000001800c16b4     MPEG4_Handler.obj
 0002:000116b8       ??_C@_02ILLPOEGM@nl?$AA@   00000001800c16b8     MPEG4_Handler.obj
 0002:000116bc       ??_C@_02JKLANEGN@dz?$AA@   00000001800c16bc     MPEG4_Handler.obj
 0002:000116c0       ??_C@_03NBPMNKFJ@dzo?$AA@  00000001800c16c0     MPEG4_Handler.obj
 0002:000116c4       ??_C@_02IHOKALIN@el?$AA@   00000001800c16c4     MPEG4_Handler.obj
 0002:000116c8       ??_C@_03FKMGDBDN@ell?$AA@  00000001800c16c8     MPEG4_Handler.obj
 0002:000116cc       ??_C@_03LKLGDMJI@eng?$AA@  00000001800c16cc     MPEG4_Handler.obj
 0002:000116d0       ??_C@_03DHLFMMIF@gre?$AA@  00000001800c16d0     MPEG4_Handler.obj
 0002:000116d4       ??_C@_03GENHDIOK@epo?$AA@  00000001800c16d4     MPEG4_Handler.obj
 0002:000116d8       ??_C@_02LFNMGJAP@en?$AA@   00000001800c16d8     MPEG4_Handler.obj
 0002:000116dc       ??_C@_03MPKHENCJ@est?$AA@  00000001800c16dc     MPEG4_Handler.obj
 0002:000116e0       ??_C@_02KMMHFIEO@eo?$AA@   00000001800c16e0     MPEG4_Handler.obj
 0002:000116e4       ??_C@_03JLHHMGOF@ewe?$AA@  00000001800c16e4     MPEG4_Handler.obj
 0002:000116e8       ??_C@_02FPBJDNE@et?$AA@    00000001800c16e8     MPEG4_Handler.obj
 0002:000116ec       ??_C@_03GLIGFOED@fao?$AA@  00000001800c16ec     MPEG4_Handler.obj
 0002:000116f0       ??_C@_02FGCILAME@ee?$AA@   00000001800c16f0     MPEG4_Handler.obj
 0002:000116f4       ??_C@_03INPBADBO@fas?$AA@  00000001800c16f4     MPEG4_Handler.obj
 0002:000116f8       ??_C@_02KOIBOGBH@fo?$AA@   00000001800c16f8     MPEG4_Handler.obj
 0002:000116fc       ??_C@_03OGJBJCMA@per?$AA@  00000001800c16fc     MPEG4_Handler.obj
 0002:00011700       ??_C@_02DAACMLJJ@fa?$AA@   00000001800c1700     MPEG4_Handler.obj
 0002:00011704       ??_C@_02NDPGBCFC@fj?$AA@   00000001800c1704     MPEG4_Handler.obj
 0002:00011708       ??_C@_03BIOCPLLO@fij?$AA@  00000001800c1708     MPEG4_Handler.obj
 0002:0001170c       ??_C@_02PINLEBJB@fi?$AA@   00000001800c170c     MPEG4_Handler.obj
 0002:00011710       ??_C@_03HMIODOLK@fin?$AA@  00000001800c1710     MPEG4_Handler.obj
 0002:00011714       ??_C@_02FBONIKAL@fr?$AA@   00000001800c1714     MPEG4_Handler.obj
 0002:00011718       ??_C@_03OLGFGOOE@fra?$AA@  00000001800c1718     MPEG4_Handler.obj
 0002:0001171c       ??_C@_03GJHOPGLN@fry?$AA@  00000001800c171c     MPEG4_Handler.obj
 0002:00011720       ??_C@_03IPAJKLOA@fre?$AA@  00000001800c1720     MPEG4_Handler.obj
 0002:00011724       ??_C@_03FLIEAGCM@ful?$AA@  00000001800c1724     MPEG4_Handler.obj
 0002:00011728       ??_C@_02LCBJFDMA@fy?$AA@   00000001800c1728     MPEG4_Handler.obj
 0002:0001172c       ??_C@_03NEDDJBPK@geo?$AA@  00000001800c172c     MPEG4_Handler.obj
 0002:00011730       ??_C@_02HPEDFNFO@ff?$AA@   00000001800c1730     MPEG4_Handler.obj
 0002:00011734       ??_C@_03DANKENAE@kat?$AA@  00000001800c1734     MPEG4_Handler.obj
 0002:00011738       ??_C@_02DINKFIMK@ka?$AA@   00000001800c1738     MPEG4_Handler.obj
 0002:0001173c       ??_C@_02EMLHFFOL@gd?$AA@   00000001800c173c     MPEG4_Handler.obj
 0002:00011740       ??_C@_03EFGBIHPL@gla?$AA@  00000001800c1740     MPEG4_Handler.obj
 0002:00011744       ??_C@_02DBMAKBKO@ga?$AA@   00000001800c1744     MPEG4_Handler.obj
 0002:00011748       ??_C@_03CBANECPP@gle?$AA@  00000001800c1748     MPEG4_Handler.obj
 0002:0001174c       ??_C@_02IEGONPOD@gl?$AA@   00000001800c174c     MPEG4_Handler.obj
 0002:00011750       ??_C@_03BDDLCAHN@glg?$AA@  00000001800c1750     MPEG4_Handler.obj
 0002:00011754       ??_C@_02DEEDCFDI@gv?$AA@   00000001800c1754     MPEG4_Handler.obj
 0002:00011758       ??_C@_03EAOCADGN@glv?$AA@  00000001800c1758     MPEG4_Handler.obj
 0002:0001175c       ??_C@_02LGFILNGB@gn?$AA@   00000001800c175c     MPEG4_Handler.obj
 0002:00011760       ??_C@_03NEEBBFEO@grn?$AA@  00000001800c1760     MPEG4_Handler.obj
 0002:00011764       ??_C@_02BPGOHGPL@gu?$AA@   00000001800c1764     MPEG4_Handler.obj
 0002:00011768       ??_C@_03LFGCMGMP@guj?$AA@  00000001800c1768     MPEG4_Handler.obj
 0002:0001176c       ??_C@_02NCJAAIH@ht?$AA@    00000001800c176c     MPEG4_Handler.obj
 0002:00011770       ??_C@_03CCGPOCOK@hat?$AA@  00000001800c1770     MPEG4_Handler.obj
 0002:00011774       ??_C@_02DKJMOGJD@ha?$AA@   00000001800c1774     MPEG4_Handler.obj
 0002:00011778       ??_C@_03DLHENDKL@hau?$AA@  00000001800c1778     MPEG4_Handler.obj
 0002:0001177c       ??_C@_02FOPACDJH@he?$AA@   00000001800c177c     MPEG4_Handler.obj
 0002:00011780       ??_C@_03DJPOPPOB@heb?$AA@  00000001800c1780     MPEG4_Handler.obj
 0002:00011784       ??_C@_02JDKKCNAJ@hz?$AA@   00000001800c1784     MPEG4_Handler.obj
 0002:00011788       ??_C@_03HDDMONLA@her?$AA@  00000001800c1788     MPEG4_Handler.obj
 0002:0001178c       ??_C@_02PCEFGMJL@hi?$AA@   00000001800c178c     MPEG4_Handler.obj
 0002:00011790       ??_C@_03JMFBEJIJ@hin?$AA@  00000001800c1790     MPEG4_Handler.obj
 0002:00011794       ??_C@_02KEBPMLBN@ho?$AA@   00000001800c1794     MPEG4_Handler.obj
 0002:00011798       ??_C@_03ICEDNABE@hmo?$AA@  00000001800c1798     MPEG4_Handler.obj
 0002:0001179c       ??_C@_02FLHDKHAB@hr?$AA@   00000001800c179c     MPEG4_Handler.obj
 0002:000117a0       ??_C@_03ODJJNEB@hrv?$AA@   00000001800c17a0     MPEG4_Handler.obj
 0002:000117a4       ??_C@_03IJGNBDJN@hun?$AA@  00000001800c17a4     MPEG4_Handler.obj
 0002:000117a8       ??_C@_03PAKJEBJM@scr?$AA@  00000001800c17a8     MPEG4_Handler.obj
 0002:000117ac       ??_C@_03DBKDPAEM@ibo?$AA@  00000001800c17ac     MPEG4_Handler.obj
 0002:000117b0       ??_C@_02BEDCDBMG@hu?$AA@   00000001800c17b0     MPEG4_Handler.obj
 0002:000117b4       ??_C@_03MKIOHCPB@ice?$AA@  00000001800c17b4     MPEG4_Handler.obj
 0002:000117b8       ??_C@_02GNAECLCC@ig?$AA@   00000001800c17b8     MPEG4_Handler.obj
 0002:000117bc       ??_C@_03HGKGKMI@isl?$AA@   00000001800c17bc     MPEG4_Handler.obj
 0002:000117c0       ??_C@_02EDKKPMHH@is?$AA@   00000001800c17c0     MPEG4_Handler.obj
 0002:000117c4       ??_C@_02KFNNKBCK@io?$AA@   00000001800c17c4     MPEG4_Handler.obj
 0002:000117c8       ??_C@_03DFCOIMPO@ido?$AA@  00000001800c17c8     MPEG4_Handler.obj
 0002:000117cc       ??_C@_02PDIHAGKM@ii?$AA@   00000001800c17cc     MPEG4_Handler.obj
 0002:000117d0       ??_C@_03GLKMLICL@iii?$AA@  00000001800c17d0     MPEG4_Handler.obj
 0002:000117d4       ??_C@_02BFPAFLPB@iu?$AA@   00000001800c17d4     MPEG4_Handler.obj
 0002:000117d8       ??_C@_03IOFPDBBI@iku?$AA@  00000001800c17d8     MPEG4_Handler.obj
 0002:000117dc       ??_C@_02FPDCEJKA@ie?$AA@   00000001800c17dc     MPEG4_Handler.obj
 0002:000117e0       ??_C@_03MBNCDFMM@ile?$AA@  00000001800c17e0     MPEG4_Handler.obj
 0002:000117e4       ??_C@_02DLFOIMKE@ia?$AA@   00000001800c17e4     MPEG4_Handler.obj
 0002:000117e8       ??_C@_03KGDKCEKG@ina?$AA@  00000001800c17e8     MPEG4_Handler.obj
 0002:000117ec       ??_C@_02EGCJHIOB@id?$AA@   00000001800c17ec     MPEG4_Handler.obj
 0002:000117f0       ??_C@_03NLENNAOD@ind?$AA@  00000001800c17f0     MPEG4_Handler.obj
 0002:000117f4       ??_C@_02MBLBGECO@ik?$AA@   00000001800c17f4     MPEG4_Handler.obj
 0002:000117f8       ??_C@_03EKGNECFG@ipk?$AA@  00000001800c17f8     MPEG4_Handler.obj
 0002:000117fc       ??_C@_02MOLGKLA@it?$AA@    00000001800c17fc     MPEG4_Handler.obj
 0002:00011800       ??_C@_03LHILACAA@ita?$AA@  00000001800c1800     MPEG4_Handler.obj
 0002:00011804       ??_C@_02DMJLLGGL@jv?$AA@   00000001800c1804     MPEG4_Handler.obj
 0002:00011808       ??_C@_03LKFAEIOD@jav?$AA@  00000001800c1808     MPEG4_Handler.obj
 0002:0001180c       ??_C@_02DJBIDCPN@ja?$AA@   00000001800c180c     MPEG4_Handler.obj
 0002:00011810       ??_C@_03CFKPBJPN@jpn?$AA@  00000001800c1810     MPEG4_Handler.obj
 0002:00011814       ??_C@_02INHECGIH@kl?$AA@   00000001800c1814     MPEG4_Handler.obj
 0002:00011818       ??_C@_03LCMBNFFN@kal?$AA@  00000001800c1818     MPEG4_Handler.obj
 0002:0001181c       ??_C@_02LPECEEAF@kn?$AA@   00000001800c181c     MPEG4_Handler.obj
 0002:00011820       ??_C@_03IAPHLHNP@kan?$AA@  00000001800c1820     MPEG4_Handler.obj
 0002:00011824       ??_C@_02EACOCIBJ@ks?$AA@   00000001800c1824     MPEG4_Handler.obj
 0002:00011828       ??_C@_03HPJLNLMD@kas?$AA@  00000001800c1828     MPEG4_Handler.obj
 0002:0001182c       ??_C@_02FJDFBJFI@kr?$AA@   00000001800c182c     MPEG4_Handler.obj
 0002:00011830       ??_C@_03CJMBHMEF@kau?$AA@  00000001800c1830     MPEG4_Handler.obj
 0002:00011834       ??_C@_02MCDFLAEA@kk?$AA@   00000001800c1834     MPEG4_Handler.obj
 0002:00011838       ??_C@_03KOFJGAIK@kaz?$AA@  00000001800c1838     MPEG4_Handler.obj
 0002:0001183c       ??_C@_02JEGPBHMG@km?$AA@   00000001800c183c     MPEG4_Handler.obj
 0002:00011840       ??_C@_03KEALNPJD@khm?$AA@  00000001800c1840     MPEG4_Handler.obj
 0002:00011844       ??_C@_02PAADNCMC@ki?$AA@   00000001800c1844     MPEG4_Handler.obj
 0002:00011848       ??_C@_03PDJDBCCC@kik?$AA@  00000001800c1848     MPEG4_Handler.obj
 0002:0001184c       ??_C@_02DHLFHFOC@rw?$AA@   00000001800c184c     MPEG4_Handler.obj
 0002:00011850       ??_C@_03IOOEOGGH@kin?$AA@  00000001800c1850     MPEG4_Handler.obj
 0002:00011854       ??_C@_02LKMBMAJD@ky?$AA@   00000001800c1854     MPEG4_Handler.obj
 0002:00011858       ??_C@_03GIJDLLDK@kir?$AA@  00000001800c1858     MPEG4_Handler.obj
 0002:0001185c       ??_C@_02DNFJNMFM@kv?$AA@   00000001800c185c     MPEG4_Handler.obj
 0002:00011860       ??_C@_03KBEEMJBG@kom?$AA@  00000001800c1860     MPEG4_Handler.obj
 0002:00011864       ??_C@_02GOIAPPEM@kg?$AA@   00000001800c1864     MPEG4_Handler.obj
 0002:00011868       ??_C@_03IKGJJKNF@kon?$AA@  00000001800c1868     MPEG4_Handler.obj
 0002:0001186c       ??_C@_02KGFJHFEE@ko?$AA@   00000001800c186c     MPEG4_Handler.obj
 0002:00011870       ??_C@_03GMBOMHII@kor?$AA@  00000001800c1870     MPEG4_Handler.obj
 0002:00011874       ??_C@_02NLCOIBAB@kj?$AA@   00000001800c1874     MPEG4_Handler.obj
 0002:00011878       ??_C@_03BMEAKALM@kua?$AA@  00000001800c1878     MPEG4_Handler.obj
 0002:0001187c       ??_C@_02BGHEIPJP@ku?$AA@   00000001800c187c     MPEG4_Handler.obj
 0002:00011880       ??_C@_03HNKPOBCO@kur?$AA@  00000001800c1880     MPEG4_Handler.obj
 0002:00011884       ??_C@_02KDBGGDMB@lo?$AA@   00000001800c1884     MPEG4_Handler.obj
 0002:00011888       ??_C@_03EDLLOCH@lao?$AA@   00000001800c1888     MPEG4_Handler.obj
 0002:0001188c       ??_C@_02DNJFEOEP@la?$AA@   00000001800c188c     MPEG4_Handler.obj
 0002:00011890       ??_C@_03KNANHFLN@lat?$AA@  00000001800c1890     MPEG4_Handler.obj
 0002:00011894       ??_C@_02DIBGMKNJ@lv?$AA@   00000001800c1894     MPEG4_Handler.obj
 0002:00011898       ??_C@_03JPDLBHDP@lav?$AA@  00000001800c1898     MPEG4_Handler.obj
 0002:0001189c       ??_C@_02PFEMMEEH@li?$AA@   00000001800c189c     MPEG4_Handler.obj
 0002:000118a0       ??_C@_03DIBOINBN@lim?$AA@  00000001800c18a0     MPEG4_Handler.obj
 0002:000118a4       ??_C@_02LKANFCIA@ln?$AA@   00000001800c18a4     MPEG4_Handler.obj
 0002:000118a8       ??_C@_03BDDDNONO@lin?$AA@  00000001800c18a8     MPEG4_Handler.obj
 0002:000118ac       ??_C@_02KCAKIFL@lt?$AA@    00000001800c18ac     MPEG4_Handler.obj
 0002:000118b0       ??_C@_03KDBOCEAF@lit?$AA@  00000001800c18b0     MPEG4_Handler.obj
 0002:000118b4       ??_C@_02BGLIBNIM@lb?$AA@   00000001800c18b4     MPEG4_Handler.obj
 0002:000118b8       ??_C@_03CJGDDJKI@ltz?$AA@  00000001800c18b8     MPEG4_Handler.obj
 0002:000118bc       ??_C@_02BDDLJJBK@lu?$AA@   00000001800c18bc     MPEG4_Handler.obj
 0002:000118c0       ??_C@_03KKLKMLMG@lub?$AA@  00000001800c18c0     MPEG4_Handler.obj
 0002:000118c4       ??_C@_02GLMPOJMJ@lg?$AA@   00000001800c18c4     MPEG4_Handler.obj
 0002:000118c8       ??_C@_03NHMNDPID@lug?$AA@  00000001800c18c8     MPEG4_Handler.obj
 0002:000118cc       ??_C@_02MGLIMMPC@mk?$AA@   00000001800c18cc     MPEG4_Handler.obj
 0002:000118d0       ??_C@_03BADCJGEO@mac?$AA@  00000001800c18d0     MPEG4_Handler.obj
 0002:000118d4       ??_C@_03PDMGEPIF@mah?$AA@  00000001800c18d4     MPEG4_Handler.obj
 0002:000118d8       ??_C@_03FCOEIFFP@mkd?$AA@  00000001800c18d8     MPEG4_Handler.obj
 0002:000118dc       ??_C@_03JHKKIKIB@mal?$AA@  00000001800c18dc     MPEG4_Handler.obj
 0002:000118e0       ??_C@_02ONJFJPDB@mh?$AA@   00000001800c18e0     MPEG4_Handler.obj
 0002:000118e4       ??_C@_03LMIHNJEC@mao?$AA@  00000001800c18e4     MPEG4_Handler.obj
 0002:000118e8       ??_C@_02IJPJFKDF@ml?$AA@   00000001800c18e8     MPEG4_Handler.obj
 0002:000118ec       ??_C@_03PELNGDON@mri?$AA@  00000001800c18ec     MPEG4_Handler.obj
 0002:000118f0       ??_C@_02PEIOKOHA@mi?$AA@   00000001800c18f0     MPEG4_Handler.obj
 0002:000118f4       ??_C@_02FNLIGFOK@mr?$AA@   00000001800c18f4     MPEG4_Handler.obj
 0002:000118f8       ??_C@_03EDOLLFFO@mar?$AA@  00000001800c18f8     MPEG4_Handler.obj
 0002:000118fc       ??_C@_02EEKDFEKL@ms?$AA@   00000001800c18fc     MPEG4_Handler.obj
 0002:00011900       ??_C@_03KABPGMJF@may?$AA@  00000001800c1900     MPEG4_Handler.obj
 0002:00011904       ??_C@_03HMIGMABJ@mlg?$AA@  00000001800c1904     MPEG4_Handler.obj
 0002:00011908       ??_C@_03DNKGIDNC@msa?$AA@  00000001800c1908     MPEG4_Handler.obj
 0002:0001190c       ??_C@_03BNGJIBIL@mlt?$AA@  00000001800c190c     MPEG4_Handler.obj
 0002:00011910       ??_C@_02GKANIDPO@mg?$AA@   00000001800c1910     MPEG4_Handler.obj
 0002:00011914       ??_C@_03JNDEKHIL@mol?$AA@  00000001800c1914     MPEG4_Handler.obj
 0002:00011918       ??_C@_02LOCMCGM@mt?$AA@    00000001800c1918     MPEG4_Handler.obj
 0002:0001191c       ??_C@_03KPACMFAJ@mon?$AA@  00000001800c191c     MPEG4_Handler.obj
 0002:00011920       ??_C@_02KCNEAJPG@mo?$AA@   00000001800c1920     MPEG4_Handler.obj
 0002:00011924       ??_C@_03BOBPIMHH@nau?$AA@  00000001800c1924     MPEG4_Handler.obj
 0002:00011928       ??_C@_02LLMPDILH@mn?$AA@   00000001800c1928     MPEG4_Handler.obj
 0002:0001192c       ??_C@_03DFDCNPLE@nav?$AA@  00000001800c192c     MPEG4_Handler.obj
 0002:00011930       ??_C@_02DOBBJKCB@na?$AA@   00000001800c1930     MPEG4_Handler.obj
 0002:00011934       ??_C@_03IHFJJLDG@nbl?$AA@  00000001800c1934     MPEG4_Handler.obj
 0002:00011938       ??_C@_02DLJCBOLH@nv?$AA@   00000001800c1938     MPEG4_Handler.obj
 0002:0001193c       ??_C@_03FCBGFMMN@nde?$AA@  00000001800c193c     MPEG4_Handler.obj
 0002:00011940       ??_C@_02FPPONLLD@nr?$AA@   00000001800c1940     MPEG4_Handler.obj
 0002:00011944       ??_C@_03KIPJLEEH@ndo?$AA@  00000001800c1944     MPEG4_Handler.obj
 0002:00011948       ??_C@_02EDGGGOGE@nd?$AA@   00000001800c1948     MPEG4_Handler.obj
 0002:0001194c       ??_C@_03GEGBNAOO@nep?$AA@  00000001800c194c     MPEG4_Handler.obj
 0002:00011950       ??_C@_02GIELDNKH@ng?$AA@   00000001800c1950     MPEG4_Handler.obj
 0002:00011954       ??_C@_03KFGODBJB@nno?$AA@  00000001800c1954     MPEG4_Handler.obj
 0002:00011958       ??_C@_02FKHNFPCF@ne?$AA@   00000001800c1958     MPEG4_Handler.obj
 0002:0001195c       ??_C@_03BBACCFOL@nob?$AA@  00000001800c195c     MPEG4_Handler.obj
 0002:00011960       ??_C@_02LJIJIGOO@nn?$AA@   00000001800c1960     MPEG4_Handler.obj
 0002:00011964       ??_C@_03FLMADHLK@nor?$AA@  00000001800c1964     MPEG4_Handler.obj
 0002:00011968       ??_C@_02BFDMMJOC@nb?$AA@   00000001800c1968     MPEG4_Handler.obj
 0002:0001196c       ??_C@_03CCIEKJOK@nya?$AA@  00000001800c196c     MPEG4_Handler.obj
 0002:00011970       ??_C@_02KAJCLHKP@no?$AA@   00000001800c1970     MPEG4_Handler.obj
 0002:00011974       ??_C@_03EDFAGCCB@oci?$AA@  00000001800c1974     MPEG4_Handler.obj
 0002:00011978       ??_C@_02LMAKACHI@ny?$AA@   00000001800c1978     MPEG4_Handler.obj
 0002:0001197c       ??_C@_03EMIBFJKO@oji?$AA@  00000001800c197c     MPEG4_Handler.obj
 0002:00011980       ??_C@_02NOFJCJE@oc?$AA@    00000001800c1980     MPEG4_Handler.obj
 0002:00011984       ??_C@_03FOLEKLGG@ori?$AA@  00000001800c1984     MPEG4_Handler.obj
 0002:00011988       ??_C@_02NMCHCJNN@oj?$AA@   00000001800c1988     MPEG4_Handler.obj
 0002:0001198c       ??_C@_03DKNIGOGC@orm?$AA@  00000001800c198c     MPEG4_Handler.obj
 0002:00011990       ??_C@_02FODMLBIE@or?$AA@   00000001800c1990     MPEG4_Handler.obj
 0002:00011994       ??_C@_03OPFLDLIK@oss?$AA@  00000001800c1994     MPEG4_Handler.obj
 0002:00011998       ??_C@_02JDGGLPBK@om?$AA@   00000001800c1998     MPEG4_Handler.obj
 0002:0001199c       ??_C@_03HOPGHEB@pan?$AA@   00000001800c199c     MPEG4_Handler.obj
 0002:000119a0       ??_C@_02EHCHIAMF@os?$AA@   00000001800c19a0     MPEG4_Handler.obj
 0002:000119a4       ??_C@_03EAHGGCNF@pli?$AA@  00000001800c19a4     MPEG4_Handler.obj
 0002:000119a8       ??_C@_02CIKJBEFL@pa?$AA@   00000001800c19a8     MPEG4_Handler.obj
 0002:000119ac       ??_C@_02JNAHGKBG@pl?$AA@   00000001800c19ac     MPEG4_Handler.obj
 0002:000119b0       ??_C@_03DPEHCIMJ@pol?$AA@  00000001800c19b0     MPEG4_Handler.obj
 0002:000119b4       ??_C@_02BPBMPCEP@pt?$AA@   00000001800c19b4     MPEG4_Handler.obj
 0002:000119b8       ??_C@_03OLAGBHBG@por?$AA@  00000001800c19b8     MPEG4_Handler.obj
 0002:000119bc       ??_C@_03EHIINCED@que?$AA@  00000001800c19bc     MPEG4_Handler.obj
 0002:000119c0       ??_C@_03ODKMAAPB@pus?$AA@  00000001800c19c0     MPEG4_Handler.obj
 0002:000119c4       ??_C@_03PBCCCFEG@roh?$AA@  00000001800c19c4     MPEG4_Handler.obj
 0002:000119c8       ??_C@_02HMFKJDJ@qu?$AA@    00000001800c19c8     MPEG4_Handler.obj
 0002:000119cc       ??_C@_03KHHIICMA@ron?$AA@  00000001800c19cc     MPEG4_Handler.obj
 0002:000119d0       ??_C@_02IHJIIPDJ@rm?$AA@   00000001800c19d0     MPEG4_Handler.obj
 0002:000119d4       ??_C@_03JNOEPHKF@rum?$AA@  00000001800c19d4     MPEG4_Handler.obj
 0002:000119d8       ??_C@_02LFKOONLL@ro?$AA@   00000001800c19d8     MPEG4_Handler.obj
 0002:000119dc       ??_C@_02KMLFNMPK@rn?$AA@   00000001800c19dc     MPEG4_Handler.obj
 0002:000119e0       ??_C@_03LGMJKEGG@run?$AA@  00000001800c19e0     MPEG4_Handler.obj
 0002:000119e4       ??_C@_02FIDBHGA@ru?$AA@    00000001800c19e4     MPEG4_Handler.obj
 0002:000119e8       ??_C@_03EJKFMIHK@rus?$AA@  00000001800c19e8     MPEG4_Handler.obj
 0002:000119ec       ??_C@_02HMLFANIE@sg?$AA@   00000001800c19ec     MPEG4_Handler.obj
 0002:000119f0       ??_C@_03MEJIHDOG@sag?$AA@  00000001800c19f0     MPEG4_Handler.obj
 0002:000119f4       ??_C@_02CKOPKKAC@sa?$AA@   00000001800c19f4     MPEG4_Handler.obj
 0002:000119f8       ??_C@_03BFFKMIKP@san?$AA@  00000001800c19f8     MPEG4_Handler.obj
 0002:000119fc       ??_C@_02ELAAOLJA@sr?$AA@   00000001800c19fc     MPEG4_Handler.obj
 0002:00011a00       ??_C@_03KDHAGCIM@scc?$AA@  00000001800c1a00     MPEG4_Handler.obj
 0002:00011a04       ??_C@_03BLEJJJBH@sin?$AA@  00000001800c1a04     MPEG4_Handler.obj
 0002:00011a08       ??_C@_03NPHLOKFJ@srp?$AA@  00000001800c1a08     MPEG4_Handler.obj
 0002:00011a0c       ??_C@_03GAPFKPLJ@slk?$AA@  00000001800c1a0c     MPEG4_Handler.obj
 0002:00011a10       ??_C@_02OCDGCAAK@si?$AA@   00000001800c1a10     MPEG4_Handler.obj
 0002:00011a14       ??_C@_03EJJGKLN@slo?$AA@   00000001800c1a14     MPEG4_Handler.obj
 0002:00011a18       ??_C@_02NAAAECII@sk?$AA@   00000001800c1a18     MPEG4_Handler.obj
 0002:00011a1c       ??_C@_02JPEBNEEP@sl?$AA@   00000001800c1a1c     MPEG4_Handler.obj
 0002:00011a20       ??_C@_03JPJJMDKF@slv?$AA@  00000001800c1a20     MPEG4_Handler.obj
 0002:00011a24       ??_C@_02EOIDGPAG@se?$AA@   00000001800c1a24     MPEG4_Handler.obj
 0002:00011a28       ??_C@_03PPLEOIAA@sme?$AA@  00000001800c1a28     MPEG4_Handler.obj
 0002:00011a2c       ??_C@_02IGFKOFAO@sm?$AA@   00000001800c1a2c     MPEG4_Handler.obj
 0002:00011a30       ??_C@_03FFLAAIK@smo?$AA@   00000001800c1a30     MPEG4_Handler.obj
 0002:00011a34       ??_C@_02KNHHLGMN@sn?$AA@   00000001800c1a34     MPEG4_Handler.obj
 0002:00011a38       ??_C@_03JJJOJDFN@sna?$AA@  00000001800c1a38     MPEG4_Handler.obj
 0002:00011a3c       ??_C@_02FHJIFOEH@sd?$AA@   00000001800c1a3c     MPEG4_Handler.obj
 0002:00011a40       ??_C@_03OEOJGHBI@snd?$AA@  00000001800c1a40     MPEG4_Handler.obj
 0002:00011a44       ??_C@_02LEGMIHIM@so?$AA@   00000001800c1a44     MPEG4_Handler.obj
 0002:00011a48       ??_C@_03DEOJLGGG@som?$AA@  00000001800c1a48     MPEG4_Handler.obj
 0002:00011a4c       ??_C@_02BNFKEMBG@st?$AA@   00000001800c1a4c     MPEG4_Handler.obj
 0002:00011a50       ??_C@_03KPOJBPHO@sot?$AA@  00000001800c1a50     MPEG4_Handler.obj
 0002:00011a54       ??_C@_02EKLAAFBD@es?$AA@   00000001800c1a54     MPEG4_Handler.obj
 0002:00011a58       ??_C@_03IPCGBNCH@spa?$AA@  00000001800c1a58     MPEG4_Handler.obj
 0002:00011a5c       ??_C@_02BINJMIIA@sc?$AA@   00000001800c1a5c     MPEG4_Handler.obj
 0002:00011a60       ??_C@_03PBNFDNAM@srd?$AA@  00000001800c1a60     MPEG4_Handler.obj
 0002:00011a64       ??_C@_02FCBLNKNB@ss?$AA@   00000001800c1a64     MPEG4_Handler.obj
 0002:00011a68       ??_C@_03JBPIBGKJ@ssw?$AA@  00000001800c1a68     MPEG4_Handler.obj
 0002:00011a6c       ??_C@_02EEBHNFH@su?$AA@    00000001800c1a6c     MPEG4_Handler.obj
 0002:00011a70       ??_C@_03OHFMDAD@sun?$AA@   00000001800c1a70     MPEG4_Handler.obj
 0002:00011a74       ??_C@_02DGHHBPNF@sw?$AA@   00000001800c1a74     MPEG4_Handler.obj
 0002:00011a78       ??_C@_03IKGJALKC@swa?$AA@  00000001800c1a78     MPEG4_Handler.obj
 0002:00011a7c       ??_C@_02CPGMCOJE@sv?$AA@   00000001800c1a7c     MPEG4_Handler.obj
 0002:00011a80       ??_C@_03OOAFMOKG@swe?$AA@  00000001800c1a80     MPEG4_Handler.obj
 0002:00011a84       ??_C@_02KNLLCENO@ty?$AA@   00000001800c1a84     MPEG4_Handler.obj
 0002:00011a88       ??_C@_03NONHFHJA@tah?$AA@  00000001800c1a88     MPEG4_Handler.obj
 0002:00011a8c       ??_C@_02CPKALMIH@ta?$AA@   00000001800c1a8c     MPEG4_Handler.obj
 0002:00011a90       ??_C@_03KDKAKDNF@tam?$AA@  00000001800c1a90     MPEG4_Handler.obj
 0002:00011a94       ??_C@_02BIBFFKJD@tt?$AA@   00000001800c1a94     MPEG4_Handler.obj
 0002:00011a98       ??_C@_03DIKAAKMN@tat?$AA@  00000001800c1a98     MPEG4_Handler.obj
 0002:00011a9c       ??_C@_02ELMMHJID@te?$AA@   00000001800c1a9c     MPEG4_Handler.obj
 0002:00011aa0       ??_C@_03LNLCDKEI@tel?$AA@  00000001800c1aa0     MPEG4_Handler.obj
 0002:00011aa4       ??_C@_02HJPKBLAB@tg?$AA@   00000001800c1aa4     MPEG4_Handler.obj
 0002:00011aa8       ??_C@_03PBHHHIOB@tgk?$AA@  00000001800c1aa8     MPEG4_Handler.obj
 0002:00011aac       ??_C@_02JKAOMCMK@tl?$AA@   00000001800c1aac     MPEG4_Handler.obj
 0002:00011ab0       ??_C@_03LODGOOCG@tgl?$AA@  00000001800c1ab0     MPEG4_Handler.obj
 0002:00011ab4       ??_C@_02POGCAHMO@th?$AA@   00000001800c1ab4     MPEG4_Handler.obj
 0002:00011ab8       ??_C@_03MENHFG@tha?$AA@    00000001800c1ab8     MPEG4_Handler.obj
 0002:00011abc       ??_C@_02OHHJDGIP@ti?$AA@   00000001800c1abc     MPEG4_Handler.obj
 0002:00011ac0       ??_C@_03GAOJPMPD@tir?$AA@  00000001800c1ac0     MPEG4_Handler.obj
 0002:00011ac4       ??_C@_02LBCDJBAJ@to?$AA@   00000001800c1ac4     MPEG4_Handler.obj
 0002:00011ac8       ??_C@_03ICBDNNBM@ton?$AA@  00000001800c1ac8     MPEG4_Handler.obj
 0002:00011acc       ??_C@_02KIDIKAEI@tn?$AA@   00000001800c1acc     MPEG4_Handler.obj
 0002:00011ad0       ??_C@_03JHCPIHAI@tsn?$AA@  00000001800c1ad0     MPEG4_Handler.obj
 0002:00011ad4       ??_C@_02FHFEMMFE@ts?$AA@   00000001800c1ad4     MPEG4_Handler.obj
 0002:00011ad8       ??_C@_03IODELGEJ@tso?$AA@  00000001800c1ad8     MPEG4_Handler.obj
 0002:00011adc       ??_C@_02NFEPFEAN@tk?$AA@   00000001800c1adc     MPEG4_Handler.obj
 0002:00011ae0       ??_C@_03OONFAPPP@tuk?$AA@  00000001800c1ae0     MPEG4_Handler.obj
 0002:00011ae4       ??_C@_02EOEPPNBF@tr?$AA@   00000001800c1ae4     MPEG4_Handler.obj
 0002:00011ae8       ??_C@_03HFNFKGOH@tur?$AA@  00000001800c1ae8     MPEG4_Handler.obj
 0002:00011aec       ??_C@_02DDDIAJFA@tw?$AA@   00000001800c1aec     MPEG4_Handler.obj
 0002:00011af0       ??_C@_03NPGHLJBD@twi?$AA@  00000001800c1af0     MPEG4_Handler.obj
 0002:00011af4       ??_C@_02HIDIHBDG@ug?$AA@   00000001800c1af4     MPEG4_Handler.obj
 0002:00011af8       ??_C@_03OPOAHNIC@uig?$AA@  00000001800c1af8     MPEG4_Handler.obj
 0002:00011afc       ??_C@_02NEINDODK@uk?$AA@   00000001800c1afc     MPEG4_Handler.obj
 0002:00011b00       ??_C@_03NLNBEPPI@ukr?$AA@  00000001800c1b00     MPEG4_Handler.obj
 0002:00011b04       ??_C@_02EPINJHCC@ur?$AA@   00000001800c1b04     MPEG4_Handler.obj
 0002:00011b08       ??_C@_03NELOGCNA@urd?$AA@  00000001800c1b08     MPEG4_Handler.obj
 0002:00011b0c       ??_C@_02IHFEBNCK@uz?$AA@   00000001800c1b0c     MPEG4_Handler.obj
 0002:00011b10       ??_C@_03IMPHJEOO@uzb?$AA@  00000001800c1b10     MPEG4_Handler.obj
 0002:00011b14       ??_C@_02EIEIKNON@ve?$AA@   00000001800c1b14     MPEG4_Handler.obj
 0002:00011b18       ??_C@_03CFINJAEB@ven?$AA@  00000001800c1b18     MPEG4_Handler.obj
 0002:00011b1c       ??_C@_02OEPNOCOB@vi?$AA@   00000001800c1b1c     MPEG4_Handler.obj
 0002:00011b20       ??_C@_03MPGDLAOO@vie?$AA@  00000001800c1b20     MPEG4_Handler.obj
 0002:00011b24       ??_C@_02LCKHEFGH@vo?$AA@   00000001800c1b24     MPEG4_Handler.obj
 0002:00011b28       ??_C@_03BKCMHHBF@vol?$AA@  00000001800c1b28     MPEG4_Handler.obj
 0002:00011b2c       ??_C@_02CNOGACNO@wa?$AA@   00000001800c1b2c     MPEG4_Handler.obj
 0002:00011b30       ??_C@_03JCOAMMKL@wln?$AA@  00000001800c1b30     MPEG4_Handler.obj
 0002:00011b34       ??_C@_02LDGFCPFA@wo?$AA@   00000001800c1b34     MPEG4_Handler.obj
 0002:00011b38       ??_C@_03KCJABAHA@wol?$AA@  00000001800c1b38     MPEG4_Handler.obj
 0002:00011b3c       ??_C@_02PHHIPOKK@xh?$AA@   00000001800c1b3c     MPEG4_Handler.obj
 0002:00011b40       ??_C@_03NEJBEFGA@xho?$AA@  00000001800c1b40     MPEG4_Handler.obj
 0002:00011b44       ??_C@_02OPKBKFNM@yi?$AA@   00000001800c1b44     MPEG4_Handler.obj
 0002:00011b48       ??_C@_03IOBLJBPJ@yid?$AA@  00000001800c1b48     MPEG4_Handler.obj
 0002:00011b4c       ??_C@_02LJPLACFK@yo?$AA@   00000001800c1b4c     MPEG4_Handler.obj
 0002:00011b50       ??_C@_03JGAOFIJM@yor?$AA@  00000001800c1b50     MPEG4_Handler.obj
 0002:00011b54       ??_C@_02CFDOJBIN@za?$AA@   00000001800c1b54     MPEG4_Handler.obj
 0002:00011b58       ??_C@_03OABLKAGF@zha?$AA@  00000001800c1b58     MPEG4_Handler.obj
 0002:00011b5c       ??_C@_02LJAEGNI@zu?$AA@    00000001800c1b5c     MPEG4_Handler.obj
 0002:00011b60       ??_C@_03EBELOOAL@zul?$AA@  00000001800c1b60     MPEG4_Handler.obj
 0002:00011b68       ??_C@_0L@MGLDDKGJ@ModifyDate?$AA@ 00000001800c1b68     MPEG4_Handler.obj
 0002:00011b78       ??_C@_0BP@NEIMPPOF@MPEG4_CheckFormat?5?9?5User?5abort?$AA@ 00000001800c1b78     MPEG4_Handler.obj
 0002:00011b98       ??_C@_05MFEJDJP@value?$AA@ 00000001800c1b98     MPEG4_Handler.obj
 0002:00011ba0       ??_C@_08LGBPINEC@duration?$AA@ 00000001800c1ba0     MPEG4_Handler.obj
 0002:00011bac       ??_C@_05MHMEBBGO@scale?$AA@ 00000001800c1bac     MPEG4_Handler.obj
 0002:00011bb4       ??_C@_04DBADCPAE@1?1?$CFu?$AA@ 00000001800c1bb4     MPEG4_Handler.obj
 0002:00011bc0       ??_C@_09GBFHCDFI@moov?1udta?$AA@ 00000001800c1bc0     MPEG4_Handler.obj
 0002:00011bd0       ??_C@_09KDJMMOFO@moov?1mvhd?$AA@ 00000001800c1bd0     MPEG4_Handler.obj
 0002:00011bdc       ??_C@_04IOHABJIC@lang?$AA@ 00000001800c1bdc     MPEG4_Handler.obj
 0002:00011be4       ??_C@_06LDDMBFAK@vfffll?$AA@ 00000001800c1be4     MPEG4_Handler.obj
 0002:00011bf0       ??_C@_08CAHFCGLA@tapeName?$AA@ 00000001800c1bf0     MPEG4_Handler.obj
 0002:00011c00       ??_C@_0CF@GLDAAHFK@http?3?1?1www?4w3?4org?1XML?11998?1names@ 00000001800c1c00     MPEG4_Handler.obj
 0002:00011c28       ??_C@_0L@PFMCOPMG@30Timecode?$AA@ 00000001800c1c28     MPEG4_Handler.obj
 0002:00011c38       ??_C@_0BO@FCAOKHPE@startTimecode?1xmpDM?3timeValue?$AA@ 00000001800c1c38     MPEG4_Handler.obj
 0002:00011c58       ??_C@_0L@IEJFEDIE@60Timecode?$AA@ 00000001800c1c58     MPEG4_Handler.obj
 0002:00011c68       ??_C@_0L@BNHHCFIF@50Timecode?$AA@ 00000001800c1c68     MPEG4_Handler.obj
 0002:00011c78       ??_C@_0BE@GMOOLOEL@5994NonDropTimecode?$AA@ 00000001800c1c78     MPEG4_Handler.obj
 0002:00011c90       ??_C@_0BB@OHGBHCKF@5994DropTimecode?$AA@ 00000001800c1c90     MPEG4_Handler.obj
 0002:00011ca8       ??_C@_0M@PHMFOOIG@hh?$DLmm?$DLss?$DLff?$AA@ 00000001800c1ca8     MPEG4_Handler.obj
 0002:00011cb8       ??_C@_0L@FPFMPDDA@0123456789?$AA@ 00000001800c1cb8     MPEG4_Handler.obj
 0002:00011cc8       ??_C@_0M@JAOCIGOH@?$CFd?3?$CFd?3?$CFd?3?$CFd?$AA@ 00000001800c1cc8     MPEG4_Handler.obj
 0002:00011cd8       ??_C@_0M@GMMOJGJ@hh?3mm?3ss?3ff?$AA@ 00000001800c1cd8     MPEG4_Handler.obj
 0002:00011ce4       ??_C@_04BNEAOCG@moov?$AA@  00000001800c1ce4     MPEG4_Handler.obj
 0002:00011cf0       ??_C@_0M@GBOLIBAI@?$CFd?$DL?$CFd?$DL?$CFd?$DL?$CFd?$AA@ 00000001800c1cf0     MPEG4_Handler.obj
 0002:00011d00       ??_C@_0BP@OBHBIHKB@startTimecode?1xmpDM?3timeFormat?$AA@ 00000001800c1d00     MPEG4_Handler.obj
 0002:00011d20       ??_C@_0M@CJMDHHKI@altTapeName?$AA@ 00000001800c1d20     MPEG4_Handler.obj
 0002:00011d30       ??_C@_0BN@BNNEHHOO@altTimecode?1xmpDM?3timeFormat?$AA@ 00000001800c1d30     MPEG4_Handler.obj
 0002:00011d50       ??_C@_0BM@EOHGJEKP@altTimecode?1xmpDM?3timeValue?$AA@ 00000001800c1d50     MPEG4_Handler.obj
 0002:00011d70       ??_C@_0P@LABPLEDI@moov?1udta?1Cr8r?$AA@ 00000001800c1d70     MPEG4_Handler.obj
 0002:00011d80       ??_C@_0P@LMONKOEM@moov?1udta?1PrmL?$AA@ 00000001800c1d80     MPEG4_Handler.obj
 0002:00011d90       ??_C@_0CF@HMPAMBPM@http?3?1?1ns?4adobe?4com?1creatorAtom?1@ 00000001800c1d90     MPEG4_Handler.obj
 0002:00011db8       ??_C@_0BB@LEHFGJNO@posixProjectPath?$AA@ 00000001800c1db8     MPEG4_Handler.obj
 0002:00011dd0       ??_C@_0P@GNKPNIAB@uncProjectPath?$AA@ 00000001800c1dd0     MPEG4_Handler.obj
 0002:00011de0       ??_C@_07GAIEHAJM@macAtom?$AA@ 00000001800c1de0     MPEG4_Handler.obj
 0002:00011de8       ??_C@_05PAONDCEJ@movie?$AA@ 00000001800c1de8     MPEG4_Handler.obj
 0002:00011df0       ??_C@_0M@IOGEOBCF@windowsAtom?$AA@ 00000001800c1df0     MPEG4_Handler.obj
 0002:00011dfc       ??_C@_05KNIAAKIP@audio?$AA@ 00000001800c1dfc     MPEG4_Handler.obj
 0002:00011e04       ??_C@_05BHCMJFK@still?$AA@ 00000001800c1e04     MPEG4_Handler.obj
 0002:00011e0c       ??_C@_04GPMDFGEJ@type?$AA@ 00000001800c1e0c     MPEG4_Handler.obj
 0002:00011e14       ??_C@_06EKNFNOKI@custom?$AA@ 00000001800c1e14     MPEG4_Handler.obj
 0002:00011e20       ??_C@_0BA@LIFGCJKD@applicationCode?$AA@ 00000001800c1e20     MPEG4_Handler.obj
 0002:00011e30       ??_C@_0L@BNBEOBDJ@projectRef?$AA@ 00000001800c1e30     MPEG4_Handler.obj
 0002:00011e40       ??_C@_09ODADEDNA@extension?$AA@ 00000001800c1e40     MPEG4_Handler.obj
 0002:00011e50       ??_C@_0BF@DHLOEPBI@invocationAppleEvent?$AA@ 00000001800c1e50     MPEG4_Handler.obj
 0002:00011e68       ??_C@_0M@COFEMEDF@CreatorTool?$AA@ 00000001800c1e68     MPEG4_Handler.obj
 0002:00011e78       ??_C@_0BA@DPHIOJIE@invocationFlags?$AA@ 00000001800c1e78     MPEG4_Handler.obj
 0002:00011e88       ??_C@_0BN@BLMBNAPC@Invalid?5QuickTime?5error?5mode?$AA@ 00000001800c1e88     MPEG4_Handler.obj
 0002:00011ea8       ??_C@_0BM@DDFKPDGB@Can?8t?5repair?5QuickTime?5file?$AA@ 00000001800c1ea8     MPEG4_Handler.obj
 0002:00011ec8       ??_C@_0BI@HNNLAJJD@Missing?5box?5Data?5at?5EOF?$AA@ 00000001800c1ec8     MPEG4_Handler.obj
 0002:00011ee0       ??_C@_0BL@MFACOKKI@Truncate?5outer?5EOF?5Garbage?$AA@ 00000001800c1ee0     MPEG4_Handler.obj
 0002:00011f00       ??_C@_0CO@NHHCFPPF@MPEG4_MetaHandler?3?3CheckFinalBox@ 00000001800c1f00     MPEG4_Handler.obj
 0002:00011f30       ??_C@_0BK@HCHHECJF@Ill?9formed?5QuickTime?5file?$AA@ 00000001800c1f30     MPEG4_Handler.obj
 0002:00011f50       ??_C@_0BO@NFLFCPBL@Can?8t?5expand?5final?5box?5header?$AA@ 00000001800c1f50     MPEG4_Handler.obj
 0002:00011f70       ??_C@_0BM@LFCMNNCM@MPEG?94?5final?5box?5is?5invalid?$AA@ 00000001800c1f70     MPEG4_Handler.obj
 0002:00011f90       ??_C@_0JO@IGANIMBI@XMP_Enforce?5failed?3?5?$CIboxSize?5?$DO?$DN?5@ 00000001800c1f90     MPEG4_Handler.obj
 0002:00012030       ??_C@_0JO@PNLBLKLG@XMP_Enforce?5failed?3?5?$CIboxSize?5?$DO?$DN?5@ 00000001800c2030     MPEG4_Handler.obj
 0002:000120d0       ??_C@_0BE@HOIMDBGJ@Oversize?5?8moov?8?5box?$AA@ 00000001800c20d0     MPEG4_Handler.obj
 0002:000120e8       ??_C@_0CO@PDJJIFJN@MPEG4_MetaHandler?3?3CacheFileData@ 00000001800c20e8     MPEG4_Handler.obj
 0002:00012118       ??_C@_0O@PFOJKGNM@No?5?8moov?8?5box?$AA@ 00000001800c2118     MPEG4_Handler.obj
 0002:00012128       ??_C@_0BI@NEGAAAGJ@Oversize?5XMP?5?8uuid?8?5box?$AA@ 00000001800c2128     MPEG4_Handler.obj
 0002:00012140       ??_C@_0KA@MPLCHFJO@XMP_Enforce?5failed?3?5?$CIlocalFile?5?$CB@ 00000001800c2140     MPEG4_Handler.obj
 0002:000121e0       ??_C@_0P@GJIJDKCL@moov?1udta?1XMP_?$AA@ 00000001800c21e0     MPEG4_Handler.obj
 0002:000121f0       ??_C@_0JO@MCMBPGGF@XMP_Enforce?5failed?3?5?$CImoovRef?5?$CB?$DN?5@ 00000001800c21f0     MPEG4_Handler.obj
 0002:00012290       ??_C@_0DC@ELCKBOMK@Offset?5from?5?8stco?8?5or?5?8co64?8?5is?5@ 00000001800c2290     MPEG4_Handler.obj
 0002:000122d0       ??_C@_0JP@HKMOGCDJ@XMP_Enforce?5failed?3?5?$CItempFile?5?$CB?$DN@ 00000001800c22d0     MPEG4_Handler.obj
 0002:00012370       ??_C@_0CI@MPGAPJGC@Large?5MPEG?94?5file?5must?5use?5?8co64@ 00000001800c2370     MPEG4_Handler.obj
 0002:00012398       ??_C@_0BJ@ODFDLOBA@Bad?5?8stco?8?5size?5or?5count?$AA@ 00000001800c2398     MPEG4_Handler.obj
 0002:000123c0       ??_C@_0JO@EJCGODCD@XMP_Enforce?5failed?3?5?$CImoovRef?5?$CB?$DN?5@ 00000001800c23c0     MPEG4_Handler.obj
 0002:00012460       ??_C@_04GNBLKAFA@?4XML?$AA@ 00000001800c2460     P2_Handler.obj
 0002:00012468       ??_C@_0BL@GCDBAOFB@No?5memory?5for?5P2?5clip?5info?$AA@ 00000001800c2468     P2_Handler.obj
 0002:00012488       ??_C@_0BL@HEBAKCN@No?5memory?5for?5P2?5clip?5path?$AA@ 00000001800c2488     P2_Handler.obj
 0002:000124a8       ??_C@_0O@KHDHOAPP@globalShotID?3?$AA@ 00000001800c24a8     P2_Handler.obj
 0002:000124b8       ??_C@_08CCJPGAAB@relation?$AA@ 00000001800c24b8     P2_Handler.obj
 0002:000124c8       ??_C@_0BG@GGOOGAID@previousGlobalClipID?3?$AA@ 00000001800c24c8     P2_Handler.obj
 0002:000124e0       ??_C@_0BB@HPGBJJBF@topGlobalClipID?3?$AA@ 00000001800c24e0     P2_Handler.obj
 0002:000124f4       ??_C@_05KKCMAPLJ@Audio?$AA@ 00000001800c24f4     P2_Handler.obj
 0002:00012500       ??_C@_0BC@COCGIMIK@nextGlobalClipID?3?$AA@ 00000001800c2500     P2_Handler.obj
 0002:00012518       ??_C@_0BA@KKJCAFLJ@audioSampleType?$AA@ 00000001800c2518     P2_Handler.obj
 0002:00012528       ??_C@_0N@KLIFAONL@SamplingRate?$AA@ 00000001800c2528     P2_Handler.obj
 0002:00012538       ??_C@_02KMALDIDP@16?$AA@   00000001800c2538     P2_Handler.obj
 0002:00012540       ??_C@_0O@IEKDKOPG@BitsPerSample?$AA@ 00000001800c2540     P2_Handler.obj
 0002:00012550       ??_C@_05PIDEINNG@32Int?$AA@ 00000001800c2550     P2_Handler.obj
 0002:00012558       ??_C@_05EAHMIKBN@16Int?$AA@ 00000001800c2558     P2_Handler.obj
 0002:00012560       ??_C@_09HFKGELHH@FrameRate?$AA@ 00000001800c2560     P2_Handler.obj
 0002:0001256c       ??_C@_05BIPFLOHN@Video?$AA@ 00000001800c256c     P2_Handler.obj
 0002:00012578       ??_C@_08EEHENOIH@DV25_411?$AA@ 00000001800c2578     P2_Handler.obj
 0002:00012584       ??_C@_05GIBLJHPJ@Codec?$AA@ 00000001800c2584     P2_Handler.obj
 0002:00012590       ??_C@_08FPCJFBJP@DV25_420?$AA@ 00000001800c2590     P2_Handler.obj
 0002:000125a0       ??_C@_0L@JHPIEDAM@DV25?54?31?31?$AA@ 00000001800c25a0     P2_Handler.obj
 0002:000125b0       ??_C@_08PIHFJMCA@DV50_422?$AA@ 00000001800c25b0     P2_Handler.obj
 0002:000125c0       ??_C@_0L@JMFGNNKD@DV25?54?32?30?$AA@ 00000001800c25c0     P2_Handler.obj
 0002:000125d0       ??_C@_0BC@LNBNCLOJ@DV100_1080?159?494i?$AA@ 00000001800c25d0     P2_Handler.obj
 0002:000125e8       ??_C@_0L@ICOBNMIM@DV50?54?32?32?$AA@ 00000001800c25e8     P2_Handler.obj
 0002:000125f4       ??_C@_05NOBNGAOK@DV100?$AA@ 00000001800c25f4     P2_Handler.obj
 0002:00012600       ??_C@_0P@COJABIBG@DV100_1080?150i?$AA@ 00000001800c2600     P2_Handler.obj
 0002:00012610       ??_C@_04CGPBINJN@1440?$AA@ 00000001800c2610     P2_Handler.obj
 0002:00012618       ??_C@_03OCEECCAA@3?12?$AA@ 00000001800c2618     P2_Handler.obj
 0002:00012620       ??_C@_0BB@FBBLIJPA@DV100_720?159?494p?$AA@ 00000001800c2620     P2_Handler.obj
 0002:00012638       ??_C@_09JPILMLMI@1920?11440?$AA@ 00000001800c2638     P2_Handler.obj
 0002:00012644       ??_C@_03KMDIDIBJ@960?$AA@  00000001800c2644     P2_Handler.obj
 0002:00012648       ??_C@_0O@IGHOOOAE@DV100_720?150p?$AA@ 00000001800c2648     P2_Handler.obj
 0002:00012658       ??_C@_05EKAMNAII@Class?$AA@ 00000001800c2658     P2_Handler.obj
 0002:00012660       ??_C@_06FFFLBHAI@AVC?9I_?$AA@ 00000001800c2660     P2_Handler.obj
 0002:00012668       ??_C@_03GNABGMEE@100?$AA@  00000001800c2668     P2_Handler.obj
 0002:00012670       ??_C@_09KEKGBNCC@AVC?9Intra?$AA@ 00000001800c2670     P2_Handler.obj
 0002:0001267c       ??_C@_03GDGALJEI@1?11?$AA@ 00000001800c267c     P2_Handler.obj
 0002:00012680       ??_C@_0O@EFFIEIKL@AVC?9Intra?5100?$AA@ 00000001800c2680     P2_Handler.obj
 0002:00012690       ??_C@_0N@KGMEEGFN@AVC?9Intra?550?$AA@ 00000001800c2690     P2_Handler.obj
 0002:000126a0       ??_C@_02PNFIDHGF@50?$AA@   00000001800c26a0     P2_Handler.obj
 0002:000126a4       ??_C@_03HMGFEKGD@4?33?$AA@ 00000001800c26a4     P2_Handler.obj
 0002:000126a8       ??_C@_0M@EKPIKDOD@AspectRatio?$AA@ 00000001800c26a8     P2_Handler.obj
 0002:000126b4       ??_C@_04FHKENDFF@16?39?$AA@ 00000001800c26b4     P2_Handler.obj
 0002:000126c0       ??_C@_07NBDJKGHG@768?1702?$AA@ 00000001800c26c0     P2_Handler.obj
 0002:000126c8       ??_C@_05DLJPAFKP@10?111?$AA@ 00000001800c26c8     P2_Handler.obj
 0002:000126d0       ??_C@_08OCBAFEFB@1024?1702?$AA@ 00000001800c26d0     P2_Handler.obj
 0002:000126e0       ??_C@_0BG@HEGBMII@videoPixelAspectRatio?$AA@ 00000001800c26e0     P2_Handler.obj
 0002:000126f8       ??_C@_05FKOACCPA@40?133?$AA@ 00000001800c26f8     P2_Handler.obj
 0002:00012700       ??_C@_05PIOCODLC@pixel?$AA@ 00000001800c2700     P2_Handler.obj
 0002:00012708       ??_C@_0BA@KDBKCMEC@videoCompressor?$AA@ 00000001800c2708     P2_Handler.obj
 0002:00012718       ??_C@_0O@COBPKAOP@DropFrameFlag?$AA@ 00000001800c2718     P2_Handler.obj
 0002:00012728       ??_C@_0O@FNLJJOCL@StartTimecode?$AA@ 00000001800c2728     P2_Handler.obj
 0002:00012738       ??_C@_0BO@HKPGHEOA@http?3?1?1ns?4adobe?4com?1exif?11?40?1?$AA@ 00000001800c2738     P2_Handler.obj
 0002:00012758       ??_C@_0BF@CEHHDBBA@P2?5Invalid?5Timecode?4?$AA@ 00000001800c2758     P2_Handler.obj
 0002:00012770       ??_C@_0L@JHAAIOCK@?$CFd?0?$CF?45lf?$CFc?$AA@ 00000001800c2770     P2_Handler.obj
 0002:0001277c       ??_C@_05CCEIGGCN@?$CFc?$CFlf?$AA@ 00000001800c277c     P2_Handler.obj
 0002:00012788       ??_C@_08GHGAAJPE@Altitude?$AA@ 00000001800c2788     P2_Handler.obj
 0002:00012798       ??_C@_0M@JENKGFCF@GPSAltitude?$AA@ 00000001800c2798     P2_Handler.obj
 0002:000127a4       ??_C@_04HBPEMOKN@?$CFd?11?$AA@ 00000001800c27a4     P2_Handler.obj
 0002:000127b0       ??_C@_0P@FMLFCCHE@GPSAltitudeRef?$AA@ 00000001800c27b0     P2_Handler.obj
 0002:000127c0       ??_C@_09NFCBGALP@?2d?2d?4MXF$?$AA@ 00000001800c27c0     P2_Handler.obj
 0002:000127cc       ??_C@_04OKNOIOOM@?4MXF?$AA@ 00000001800c27cc     P2_Handler.obj
 0002:000127d4       ??_C@_04LEMIEKPG@?4BMP?$AA@ 00000001800c27d4     P2_Handler.obj
 0002:000127dc       ??_C@_01JKBOJNNK@?$FO?$AA@ 00000001800c27dc     P2_Handler.obj
 0002:000127e0       ??_C@_04PJMEMECA@?4MP4?$AA@ 00000001800c27e0     P2_Handler.obj
 0002:000127e8       ??_C@_09MOEGFEPJ@?2d?2d?4WAV$?$AA@ 00000001800c27e8     P2_Handler.obj
 0002:000127f8       ??_C@_0CK@PCJOGJIP@P2?5cannot?5be?5used?5with?5client?9ma@ 00000001800c27f8     P2_Handler.obj
 0002:00012824       ??_C@_04GHIANNPF@?4BIN?$AA@ 00000001800c2824     P2_Handler.obj
 0002:00012830       ??_C@_0BN@JAEMFLDC@P2?5XMP?5is?5outrageously?5large?$AA@ 00000001800c2830     P2_Handler.obj
 0002:00012850       ??_C@_0BJ@DJLENMIJ@P2?5XMP?5file?5open?5failure?$AA@ 00000001800c2850     P2_Handler.obj
 0002:00012870       ??_C@_0N@CNEODONK@UserClipName?$AA@ 00000001800c2870     P2_Handler.obj
 0002:00012880       ??_C@_02IBHCFMCM@P2?$AA@   00000001800c2880     P2_Handler.obj
 0002:00012888       ??_C@_07IMEECM@Creator?$AA@ 00000001800c2888     P2_Handler.obj
 0002:00012890       ??_C@_06IOEANFCI@Access?$AA@ 00000001800c2890     P2_Handler.obj
 0002:00012898       ??_C@_0P@FBGJDFDM@LastUpdateDate?$AA@ 00000001800c2898     P2_Handler.obj
 0002:000128a8       ??_C@_0N@GPGLEEKJ@CreationDate?$AA@ 00000001800c28a8     P2_Handler.obj
 0002:000128b8       ??_C@_05GPIMPDD@Shoot?$AA@ 00000001800c28b8     P2_Handler.obj
 0002:000128c0       ??_C@_08EOOPFMPL@ShotMark?$AA@ 00000001800c28c0     P2_Handler.obj
 0002:000128cc       ??_C@_06JBJNGGPL@Artist?$AA@ 00000001800c28cc     P2_Handler.obj
 0002:000128d8       ??_C@_07KMKFKOFG@Shooter?$AA@ 00000001800c28d8     P2_Handler.obj
 0002:000128e0       ??_C@_09NNMMLKBK@PlaceName?$AA@ 00000001800c28e0     P2_Handler.obj
 0002:000128f0       ??_C@_08KDOEBHGA@Location?$AA@ 00000001800c28f0     P2_Handler.obj
 0002:00012900       ??_C@_0N@EJGCBCDD@GPSLongitude?$AA@ 00000001800c2900     P2_Handler.obj
 0002:00012910       ??_C@_09LIEFEKBN@Longitude?$AA@ 00000001800c2910     P2_Handler.obj
 0002:00012920       ??_C@_0M@POJAJHKD@GPSLatitude?$AA@ 00000001800c2920     P2_Handler.obj
 0002:00012930       ??_C@_08NCKPLHC@Latitude?$AA@ 00000001800c2930     P2_Handler.obj
 0002:00012940       ??_C@_0N@BBNLMPJO@Manufacturer?$AA@ 00000001800c2940     P2_Handler.obj
 0002:00012950       ??_C@_06OIEJKIHP@Device?$AA@ 00000001800c2950     P2_Handler.obj
 0002:00012958       ??_C@_09DKCOOGBB@ModelName?$AA@ 00000001800c2958     P2_Handler.obj
 0002:00012968       ??_C@_09ENEBNHO@SerialNo?4?$AA@ 00000001800c2968     P2_Handler.obj
 0002:00012978       ??_C@_08IFKIGONA@SceneNo?4?$AA@ 00000001800c2978     P2_Handler.obj
 0002:00012988       ??_C@_08CHDKINPP@Scenario?$AA@ 00000001800c2988     P2_Handler.obj
 0002:00012998       ??_C@_07GGNGDHGA@TakeNo?4?$AA@ 00000001800c2998     P2_Handler.obj
 0002:000129a0       ??_C@_05ELCCFCFH@scene?$AA@ 00000001800c29a0     P2_Handler.obj
 0002:000129a8       ??_C@_04OLFKICEI@xsi?3?$AA@ 00000001800c29a8     P2_Handler.obj
 0002:000129b0       ??_C@_0L@EONILNBH@takeNumber?$AA@ 00000001800c29b0     P2_Handler.obj
 0002:000129c0       ??_C@_08FAHNNEEP@ClipName?$AA@ 00000001800c29c0     P2_Handler.obj
 0002:000129d0       ??_C@_0CK@FAJBIKFJ@http?3?1?1www?4w3?4org?12001?1XMLSchema@ 00000001800c29d0     P2_Handler.obj
 0002:00012a00       ??_C@_0CD@CMFEPNEI@Failure?5opening?5P2?5legacy?5XML?5fi@ 00000001800c2a00     P2_Handler.obj
 0002:00012a28       ??_C@_0BM@CGPBKHEL@Failure?5opening?5P2?5XMP?5file?$AA@ 00000001800c2a28     P2_Handler.obj
 0002:00012a48       ??_C@_0DD@CFCPJBAF@P2_MetaHandler?3?3WriteTempFile?5sh@ 00000001800c2a48     P2_Handler.obj
 0002:00012a88       ??_7?$basic_ostringstream@DU?$char_traits@D@std@@V?$allocator@D@2@@std@@6B@ 00000001800c2a88     P2_Handler.obj
 0002:00012a98       ??_7P2_MetaHandler@@6B@    00000001800c2a98     P2_Handler.obj
 0002:00012b00       ??_7?$basic_stringbuf@DU?$char_traits@D@std@@V?$allocator@D@2@@std@@6B@ 00000001800c2b00     P2_Handler.obj
 0002:00012b80       ??_7?$basic_stringstream@DU?$char_traits@D@std@@V?$allocator@D@2@@std@@6B@ 00000001800c2b80     P2_Handler.obj
 0002:00012b88       ??_8?$basic_stringstream@DU?$char_traits@D@std@@V?$allocator@D@2@@std@@7B?$basic_ostream@DU?$char_traits@D@std@@@1@@ 00000001800c2b88     P2_Handler.obj
 0002:00012b88       ??_8?$basic_ostringstream@DU?$char_traits@D@std@@V?$allocator@D@2@@std@@7B@ 00000001800c2b88     P2_Handler.obj
 0002:00012b90       ??_8?$basic_stringstream@DU?$char_traits@D@std@@V?$allocator@D@2@@std@@7B?$basic_istream@DU?$char_traits@D@std@@@1@@ 00000001800c2b90     P2_Handler.obj
 0002:00012b98       ??_C@_0DH@ELLGHNDM@PNG_MetaHandler?3?3UpdateFile?3?5Saf@ 00000001800c2b98     PNG_Handler.obj
 0002:00012bd0       ??_C@_08PMDMHAIK@?$IJPNG?$AN?6?$BK?6?$AA@ 00000001800c2bd0     PNG_Handler.obj
 0002:00012be0       ??_C@_0BP@FFJFJBIB@Failure?5creating?5PNG?5temp?5file?$AA@ 00000001800c2be0     PNG_Handler.obj
 0002:00012c08       ??_7ChunkState@PNG_Support@@6B@ 00000001800c2c08     PNG_Handler.obj
 0002:00012c18       ??_7ChunkData@PNG_Support@@6B@ 00000001800c2c18     PNG_Handler.obj
 0002:00012c28       ??_7PNG_MetaHandler@@6B@   00000001800c2c28     PNG_Handler.obj
 0002:00012c90       ??_7PSD_MetaHandler@@6B@   00000001800c2c90     PSD_Handler.obj
 0002:00012cf0       ??_C@_04GELLELDE@8BPS?$AA@ 00000001800c2cf0     PSD_Handler.obj
 0002:00012cf8       ??_C@_0CM@MPNFIABD@PSD_MetaHandler?3?3CacheFileData?5?9@ 00000001800c2cf8     PSD_Handler.obj
 0002:00012d28       ??_C@_0BL@NMICCBBC@Seek?5failure?5in?5FillBuffer?$AA@ 00000001800c2d28     PostScript_Handler.obj
 0002:00012d44       ??_C@_06BAIECJDC@NoMain?$AA@ 00000001800c2d44     PostScript_Handler.obj
 0002:00012d50       ??_C@_0DI@OFBBDBC@PostScript_MetaHandler?3?3FindPost@ 00000001800c2d50     PostScript_Handler.obj
 0002:00012d88       ??_C@_03CGJCCAP@rst?$AA@   00000001800c2d88     PostScript_Handler.obj
 0002:00012d8c       ??_C@_06LBEFMFH@MainFi?$AA@ 00000001800c2d8c     PostScript_Handler.obj
 0002:00012d98       ??_C@_0DF@EAEKNIPL@PostScript_MetaHandler?3?3FindFirs@ 00000001800c2d98     PostScript_Handler.obj
 0002:00012dd0       ??_C@_06MOFKFDIJ@MainLa?$AA@ 00000001800c2dd0     PostScript_Handler.obj
 0002:00012dd8       ??_C@_0DE@DLIHCGMD@PostScript_MetaHandler?3?3FindLast@ 00000001800c2dd8     PostScript_Handler.obj
 0002:00012e10       ??_C@_0DJ@HHHEKGID@PostScript_MetaHandler?3?3FindFirs@ 00000001800c2e10     PostScript_Handler.obj
 0002:00012e50       ??_C@_0DI@EEDCCJKA@PostScript_MetaHandler?3?3FindLast@ 00000001800c2e50     PostScript_Handler.obj
 0002:00012e88       ??_C@_0DF@FOPJJMLB@PostScript_MetaHandler?3?3FindLast@ 00000001800c2e88     PostScript_Handler.obj
 0002:00012ec0       ??_C@_05EFMAAOLA@?$CF?$CFBeg?$AA@ 00000001800c2ec0     PostScript_Handler.obj
 0002:00012ec8       ??_C@_05IFKEJIII@?1DOCI?$AA@ 00000001800c2ec8     PostScript_Handler.obj
 0002:00012ed0       ??_C@_02GJIJFHJA@og?$AA@   00000001800c2ed0     PostScript_Handler.obj
 0002:00012ed4       ??_C@_06DNKFEIPH@inProl?$AA@ 00000001800c2ed4     PostScript_Handler.obj
 0002:00012edc       ??_C@_01JBBJJEPG@p?$AA@    00000001800c2edc     PostScript_Handler.obj
 0002:00012ee0       ??_C@_06DMLILIII@inSetu?$AA@ 00000001800c2ee0     PostScript_Handler.obj
 0002:00012ee8       ??_C@_02KJDGFIGM@ry?$AA@   00000001800c2ee8     PostScript_Handler.obj
 0002:00012eec       ??_C@_06BEPBEIPB@inBina?$AA@ 00000001800c2eec     PostScript_Handler.obj
 0002:00012ef4       ??_C@_06EPLELDBI@inData?$AA@ 00000001800c2ef4     PostScript_Handler.obj
 0002:00012f00       ??_C@_0M@LLJPJDHH@?$CF?$CFEndBinary?$AA@ 00000001800c2f00     PostScript_Handler.obj
 0002:00012f10       ??_C@_09FFABNKAJ@?$CF?$CFEndData?$AA@ 00000001800c2f10     PostScript_Handler.obj
 0002:00012f1c       ??_C@_01JLIPDDHJ@?3?$AA@   00000001800c2f1c     PostScript_Handler.obj
 0002:00012f20       ??_C@_05GCNCECA@ment?3?$AA@ 00000001800c2f20     PostScript_Handler.obj
 0002:00012f28       ??_C@_06JIKMKGIL@inDocu?$AA@ 00000001800c2f28     PostScript_Handler.obj
 0002:00012f30       ??_C@_05MKNDILO@Setup?$AA@ 00000001800c2f30     PostScript_Handler.obj
 0002:00012f38       ??_C@_06KANIFKHH@inPage?$AA@ 00000001800c2f38     PostScript_Handler.obj
 0002:00012f40       ??_C@_05BEMEHHN@Prolo?$AA@ 00000001800c2f40     PostScript_Handler.obj
 0002:00012f48       ??_C@_05PPGPIKCL@?$CF?$CFEnd?$AA@ 00000001800c2f48     PostScript_Handler.obj
 0002:00012f50       ??_C@_05JPJKMALA@PageS?$AA@ 00000001800c2f50     PostScript_Handler.obj
 0002:00012f58       ??_C@_01JEJKBAGA@g?$AA@    00000001800c2f58     PostScript_Handler.obj
 0002:00012f5c       ??_C@_05NFFINCOB@PageC?$AA@ 00000001800c2f5c     PostScript_Handler.obj
 0002:00012f64       ??_C@_04PBFHBEFJ@etup?$AA@ 00000001800c2f64     PostScript_Handler.obj
 0002:00012f6c       ??_C@_05LINJDJHI@?$CF?$CFPag?$AA@ 00000001800c2f6c     PostScript_Handler.obj
 0002:00012f78       ??_C@_07BANMDBJE@omments?$AA@ 00000001800c2f78     PostScript_Handler.obj
 0002:00012f80       ??_C@_04IPBKEHNK@iler?$AA@ 00000001800c2f80     PostScript_Handler.obj
 0002:00012f88       ??_C@_05HPIBBEIA@?$CF?$CFTra?$AA@ 00000001800c2f88     PostScript_Handler.obj
 0002:00012f90       ??_C@_06HHECMMLE@Author?$AA@ 00000001800c2f90     PostScript_Handler.obj
 0002:00012f98       ??_C@_05GBFCOANM@?$CF?$CFEOF?$AA@ 00000001800c2f98     PostScript_Handler.obj
 0002:00012fa0       ??_C@_07GEKACEDI@Subject?$AA@ 00000001800c2fa0     PostScript_Handler.obj
 0002:00012fa8       ??_C@_05PABKJLOM@Title?$AA@ 00000001800c2fa8     PostScript_Handler.obj
 0002:00012fb0       ??_C@_07KDEFLHGL@ModDate?$AA@ 00000001800c2fb0     PostScript_Handler.obj
 0002:00012fb8       ??_C@_08CDHFLBJH@Keywords?$AA@ 00000001800c2fb8     PostScript_Handler.obj
 0002:00012fc8       ??_C@_07JNNGEGGO@subject?$AA@ 00000001800c2fc8     PostScript_Handler.obj
 0002:00012fd0       ??_C@_0M@PPJNHBMP@description?$AA@ 00000001800c2fd0     PostScript_Handler.obj
 0002:00012fe0       ??_C@_0CI@JAOAKMGP@Invalid?5File?5Refernce?5Cannot?5upd@ 00000001800c2fe0     PostScript_Handler.obj
 0002:00013008       ??_C@_0BF@FLOMLON@?$CF?$CFEndComment?5Missing?$AA@ 00000001800c3008     PostScript_Handler.obj
 0002:00013020       ??_C@_0BC@KFAGBILN@XMP?5Write?5Failed?5?$AA@ 00000001800c3020     PostScript_Handler.obj
 0002:00013040       ??_7PostScript_MetaHandler@@6B@ 00000001800c3040     PostScript_Handler.obj
 0002:000130a0       ??_C@_0CC@GHLBDLME@http?3?1?1ns?4adobe?4com?1bwf?1bext?11?40@ 00000001800c30a0     RIFF_Handler.obj
 0002:000130c8       ??_C@_0BE@MFNBGAAE@originatorReference?$AA@ 00000001800c30c8     RIFF_Handler.obj
 0002:000130e0       ??_C@_0L@LNFLHOFG@originator?$AA@ 00000001800c30e0     RIFF_Handler.obj
 0002:000130f0       ??_C@_0BA@CMJBHANA@originationTime?$AA@ 00000001800c30f0     RIFF_Handler.obj
 0002:00013100       ??_C@_0BA@JKDCFHEC@originationDate?$AA@ 00000001800c3100     RIFF_Handler.obj
 0002:00013110       ??_C@_07CPCPJPKL@version?$AA@ 00000001800c3110     RIFF_Handler.obj
 0002:00013118       ??_C@_0O@DJFKFLPA@timeReference?$AA@ 00000001800c3118     RIFF_Handler.obj
 0002:00013128       ??_C@_0O@KPOFHEBP@codingHistory?$AA@ 00000001800c3128     RIFF_Handler.obj
 0002:00013138       ??_C@_04IHDEBGIP@umid?$AA@ 00000001800c3138     RIFF_Handler.obj
 0002:00013140       ??_C@_0M@CKHADGBK@altTimecode?$AA@ 00000001800c3140     RIFF_Handler.obj
 0002:0001314c       ??_C@_06OEKOLKIL@source?$AA@ 00000001800c314c     RIFF_Handler.obj
 0002:00013154       ??_C@_04FIOHLLII@AVI?5?$AA@ 00000001800c3154     RIFF_Handler.obj
 0002:0001315c       ??_C@_04EPCGJKAP@RIFF?$AA@ 00000001800c315c     RIFF_Handler.obj
 0002:00013170       ??_C@_0EE@MFHOJHPG@RIFF_MetaHandler?3?3CacheFileData?3@ 00000001800c3170     RIFF_Handler.obj
 0002:000131b4       ??_C@_04HFHJMNCD@WAVE?$AA@ 00000001800c31b4     RIFF_Handler.obj
 0002:000131c0       ??_C@_0HM@HDLHJINE@kXMPErr_InternalFailure?5?$CCRIFF_Me@ 00000001800c31c0     RIFF_Handler.obj
 0002:00013240       ??_C@_0CB@LKMCDPEJ@Excessive?5garbage?5at?5end?5of?5file@ 00000001800c3240     RIFF_Handler.obj
 0002:00013270       ??_C@_0JP@DBBBMBBK@XMP_Enforce?5failed?3?5?$CIrc?9?$DOsize?$CI?$CJ?5@ 00000001800c3270     RIFF_Handler.obj
 0002:00013310       ??_C@_0DP@DMMAMPJ@kXMPErr_InternalFailure?5?$CCnothing@ 00000001800c3310     RIFF_Handler.obj
 0002:00013350       ??_C@_0FJ@BCAFBPLL@kXMPErr_Unimplemented?5?$CCChunk?5gre@ 00000001800c3350     RIFF_Handler.obj
 0002:000133b0       ??_C@_0JO@IFEKDPPC@XMP_Enforce?5failed?3?5?$CImainChunk?5?$CB@ 00000001800c33b0     RIFF_Handler.obj
 0002:00013450       ??_C@_0GH@CAJPLBEC@kXMPErr_Unimplemented?5?$CCcompatibi@ 00000001800c3450     RIFF_Handler.obj
 0002:000134c0       ??_C@_0GG@NMCHBACA@kXMPErr_Unimplemented?5?$CCcompatibi@ 00000001800c34c0     RIFF_Handler.obj
 0002:00013530       ??_C@_0FJ@HIHLDPHA@kXMPErr_Unimplemented?5?$CCWAV?5above@ 00000001800c3530     RIFF_Handler.obj
 0002:00013590       ??_C@_0EE@CJIFIDNL@kXMPErr_InternalFailure?5?$CCWAV?5mus@ 00000001800c3590     RIFF_Handler.obj
 0002:000135e0       ??_C@_0JP@LIOOEBAN@XMP_Enforce?5failed?3?5?$CImainGrowth?5@ 00000001800c35e0     RIFF_Handler.obj
 0002:00013680       ??_C@_0P@JBFKBJMG@unknown?5format?$AA@ 00000001800c3680     RIFF_Handler.obj
 0002:00013690       ??_C@_0KM@CIPBLEEA@XMP_Enforce?5failed?3?5?$CIcur?9?$DOoldSiz@ 00000001800c3690     RIFF_Handler.obj
 0002:00013740       ??_C@_0FM@OBOCFJDA@kXMPErr_InternalFailure?5?$CCmainChu@ 00000001800c3740     RIFF_Handler.obj
 0002:000137a0       ??_C@_0EL@MKPOKHHM@RIFF_MetaHandler?3?3WriteTempFile?3@ 00000001800c37a0     RIFF_Handler.obj
 0002:000137f8       ??_7RIFF_MetaHandler@@6B@  00000001800c37f8     RIFF_Handler.obj
 0002:00013860       ??_7SVG_MetaHandler@@6B@   00000001800c3860     SVG_Handler.obj
 0002:000138c0       ??_C@_0BL@HBKCMHHO@http?3?1?1www?4w3?4org?12000?1svg?$AA@ 00000001800c38c0     SVG_Handler.obj
 0002:000138e0       ??_C@_0CK@JLIKNHGP@SVG_MetaHandler?3?5Can?8t?5create?5SV@ 00000001800c38e0     SVG_Handler.obj
 0002:00013910       ??_C@_0BB@PPDIHJOB@Invalid?5SVG?5file?$AA@ 00000001800c3910     SVG_Handler.obj
 0002:00013928       ??_C@_08DHGINADL@metadata?$AA@ 00000001800c3928     SVG_Handler.obj
 0002:00013938       ??_C@_07PNFCGOMB@xpacket?$AA@ 00000001800c3938     SVG_Handler.obj
 0002:00013940       ??_C@_03GOAPCKFF@RDF?$AA@  00000001800c3940     SVG_Handler.obj
 0002:00013948       ??_C@_07EGGPKEPA@xmpmeta?$AA@ 00000001800c3948     SVG_Handler.obj
 0002:00013950       ??_C@_0BF@MIAIMKHP@Not?5a?5valid?5SVG?5File?$AA@ 00000001800c3950     SVG_Handler.obj
 0002:00013968       ??_C@_04EBPADADD@desc?$AA@ 00000001800c3968     SVG_Handler.obj
 0002:00013970       ??_C@_0P@BFKBMLAH@adobe?3ns?3meta?1?$AA@ 00000001800c3970     SVG_Handler.obj
 0002:00013980       ??_C@_0CA@NHEJLOBC@Not?5able?5to?5parse?5such?5SVG?5File?$AA@ 00000001800c3980     SVG_Handler.obj
 0002:000139a0       ??_C@_0CM@DHLAPHHK@http?3?1?1www?4w3?4org?11999?102?122?9rdf@ 00000001800c39a0     SVG_Handler.obj
 0002:000139d0       ??_C@_0N@NJBFGFPD@?$DM?1x?3xmpmeta?$DO?$AA@ 00000001800c39d0     SVG_Handler.obj
 0002:000139e0       ??_C@_07NBINAAM@?$DMtitle?$DO?$AA@ 00000001800c39e0     SVG_Handler.obj
 0002:000139e8       ??_C@_0L@KMFKGOFN@?$DM?1rdf?3RDF?$DO?$AA@ 00000001800c39e8     SVG_Handler.obj
 0002:000139f8       ??_C@_09BBFFNMKL@?$DM?1title?$DO?6?$AA@ 00000001800c39f8     SVG_Handler.obj
 0002:00013a04       ??_C@_06LNDJDLKA@?$DMdesc?$DO?$AA@ 00000001800c3a04     SVG_Handler.obj
 0002:00013a10       ??_C@_0L@FKIEJKMI@?$DMmetadata?$DO?$AA@ 00000001800c3a10     SVG_Handler.obj
 0002:00013a20       ??_C@_08JFJOLMJA@?$DM?1desc?$DO?6?$AA@ 00000001800c3a20     SVG_Handler.obj
 0002:00013a30       ??_C@_0MD@GMFGKPKM@XMP_Enforce?5failed?3?5?$CIisTitleWrit@ 00000001800c3a30     SVG_Handler.obj
 0002:00013af8       ??_C@_0N@PNOOMNKH@?$DM?1metadata?$DO?6?$AA@ 00000001800c3af8     SVG_Handler.obj
 0002:00013b10       ??_C@_0LE@GMGAKNME@XMP_Enforce?5failed?3?5?$CIfileLength?5@ 00000001800c3b10     SWF_Handler.obj
 0002:00013bc8       ??_C@_0BN@KIGCJLGF@SWF?5is?5broken?0?5can?8t?5update?4?$AA@ 00000001800c3bc8     SWF_Handler.obj
 0002:00013be8       ??_C@_0DH@EFLIGHCL@SWF_MetaHandler?3?3UpdateFile?3?5Saf@ 00000001800c3be8     SWF_Handler.obj
 0002:00013c20       ??_C@_0DE@FEGJMMFP@SWF_MetaHandler?3?3WriteTempFile?5s@ 00000001800c3c20     SWF_Handler.obj
 0002:00013c60       ??_7SWF_MetaHandler@@6B@   00000001800c3c60     SWF_Handler.obj
 0002:00013cc0       ??_C@_08NJHGCJCJ@Manifest?$AA@ 00000001800c3cc0     Scanner_Handler.obj
 0002:00013cd0       ??_C@_0DE@JOHIJDJL@GetMainPacket?1PickMainPacket?3?5Re@ 00000001800c3cd0     Scanner_Handler.obj
 0002:00013d08       ??_C@_0CA@KHFFGJDD@http?3?1?1ns?4adobe?4com?1xap?11?40?1mm?1?$AA@ 00000001800c3d08     Scanner_Handler.obj
 0002:00013d28       ??_C@_0CM@JDGFAHLD@Scanner_MetaHandler?3?3LocateXMP?5?9@ 00000001800c3d28     Scanner_Handler.obj
 0002:00013d58       ??_C@_0N@GJNPHEEE@MetadataDate?$AA@ 00000001800c3d58     Scanner_Handler.obj
 0002:00013d68       ??_C@_0CN@OFEAPKM@Scanner_MetaHandler?3?3LocateXMP?3?5@ 00000001800c3d68     Scanner_Handler.obj
 0002:00013da0       ??_7Scanner_MetaHandler@@6B@ 00000001800c3da0     Scanner_Handler.obj
 0002:00013e08       ??_7Trivial_MetaHandler@@6B@ 00000001800c3e08     Scanner_Handler.obj
 0002:00013e70       ??_7SonyHDV_MetaHandler@@6B@ 00000001800c3e70     SonyHDV_Handler.obj
 0002:00013ed0       ??_C@_0CA@EIMMMDGP@No?5memory?5for?5SonyHDV?5clip?5info?$AA@ 00000001800c3ed0     SonyHDV_Handler.obj
 0002:00013ef0       ??_C@_03GGIICLPI@4?13?$AA@ 00000001800c3ef0     SonyHDV_Handler.obj
 0002:00013ef8       ??_C@_0BM@DLFHPCLP@?$CF02d?9?$CF02d?9?$CF02d_?$CF02d?$CF02d?$CF02d?$AA@ 00000001800c3ef8     SonyHDV_Handler.obj
 0002:00013f18       ??_C@_0BH@FFKIABHB@?$CF02d?$CFc?$CF02d?$CFc?$CF02d?$CFc?$CF02d?$AA@ 00000001800c3f18     SonyHDV_Handler.obj
 0002:00013f30       ??_C@_05LCKIIOJE@?$CFd?1?$CFd?$AA@ 00000001800c3f30     SonyHDV_Handler.obj
 0002:00013f38       ??_C@_05MEBFOPOH@23976?$AA@ 00000001800c3f38     SonyHDV_Handler.obj
 0002:00013f40       ??_C@_08KBDHOFKB@Timecode?$AA@ 00000001800c3f40     SonyHDV_Handler.obj
 0002:00013f4c       ??_C@_04NEKCCKAE@2997?$AA@ 00000001800c3f4c     SonyHDV_Handler.obj
 0002:00013f58       ??_C@_0BA@HEKJOFOM@NonDropTimecode?$AA@ 00000001800c3f58     SonyHDV_Handler.obj
 0002:00013f68       ??_C@_0N@MIGKLELN@DropTimecode?$AA@ 00000001800c3f68     SonyHDV_Handler.obj
 0002:00013f78       ??_C@_04KEMBHMHA@?4IDX?$AA@ 00000001800c3f78     SonyHDV_Handler.obj
 0002:00013f80       ??_C@_0BO@LMKFHOPO@?$CF4d?9?$CF02d?9?$CF02dT?$CF02d?3?$CF02d?3?$CF02dZ?$AA@ 00000001800c3f80     SonyHDV_Handler.obj
 0002:00013fa0       ??_C@_04CNAOAAJB@?4AVI?$AA@ 00000001800c3fa0     SonyHDV_Handler.obj
 0002:00013fa8       ??_C@_04NHGKLAMJ@?4M2T?$AA@ 00000001800c3fa8     SonyHDV_Handler.obj
 0002:00013fb0       ??_C@_0L@PBLHIDNM@tracks?4dat?$AA@ 00000001800c3fb0     SonyHDV_Handler.obj
 0002:00013fbc       ??_C@_03FCECHCA@?4DV?$AA@  00000001800c3fbc     SonyHDV_Handler.obj
 0002:00013fc0       ??_C@_0BO@DMKOMJJO@SonyHDV?5XMP?5file?5open?5failure?$AA@ 00000001800c3fc0     SonyHDV_Handler.obj
 0002:00013fe0       ??_C@_0CP@POONODAF@SonyHDV?5cannot?5be?5used?5with?5clie@ 00000001800c3fe0     SonyHDV_Handler.obj
 0002:00014010       ??_C@_07DPGEKLDH@SonyHDV?$AA@ 00000001800c4010     SonyHDV_Handler.obj
 0002:00014018       ??_C@_0CC@IHCIFLNL@SonyHDV?5XMP?5is?5outrageously?5larg@ 00000001800c4018     SonyHDV_Handler.obj
 0002:00014040       ??_C@_0DI@LOONIIAL@SonyHDV_MetaHandler?3?3WriteTempFi@ 00000001800c4040     SonyHDV_Handler.obj
 0002:00014078       ??_C@_0CB@CFFNNKH@Failure?5opening?5SonyHDV?5XMP?5file@ 00000001800c4078     SonyHDV_Handler.obj
 0002:0001409c       ??_C@_04JPKLNINC@MM?$AA?$CK?$AA@ 00000001800c409c     TIFF_Handler.obj
 0002:000140a4       ??_C@_04LPPIOGFL@II?$CK?$AA?$AA@ 00000001800c40a4     TIFF_Handler.obj
 0002:000140b0       ??_C@_0BH@NCNJOMAB@DNG?5version?5beyond?51?4x?$AA@ 00000001800c40b0     TIFF_Handler.obj
 0002:000140c8       ??_C@_0CN@GLHKNLAD@TIFF_MetaHandler?3?3CacheFileData?5@ 00000001800c40c8     TIFF_Handler.obj
 0002:000140f8       ??_C@_0BL@EJCCOMA@TIFF?5fles?5can?8t?5exceed?54GB?$AA@ 00000001800c40f8     TIFF_Handler.obj
 0002:00014120       ??_7TIFF_MetaHandler@@6B@  00000001800c4120     TIFF_Handler.obj
 0002:00014180       ??_C@_0DC@BBHDCNML@Trivial_MetaHandler?3?3WriteTempFi@ 00000001800c4180     Trivial_Handler.obj
 0002:000141c0       ??_7UCF_MetaHandler@@6B@   00000001800c41c0     UCF_Handler.obj
 0002:00014220       ??_C@_0DF@FDLFBKOL@kXMPErr_BadFileFormat?5?$CCinvalid?5h@ 00000001800c4220     UCF_Handler.obj
 0002:00014260       ??_C@_0FK@DKEOMEIP@kXMPErr_BadFileFormat?5?$CCinvalid?5h@ 00000001800c4260     UCF_Handler.obj
 0002:000142c0       ??_C@_0LH@NCBDEJKG@XMP_Enforce?5failed?3?5?$CI?$CIfilenameLe@ 00000001800c42c0     UCF_Handler.obj
 0002:00014380       ??_C@_0GH@NJHNAKCF@kXMPErr_BadFileFormat?5?$CCinvalid?5h@ 00000001800c4380     UCF_Handler.obj
 0002:000143e8       ??_C@_0BG@OODFNNFH@META?9INF?1metadata?4xml?$AA@ 00000001800c43e8     UCF_Handler.obj
 0002:00014400       ??_C@_0FL@DNCFIFLF@kXMPErr_BadFileFormat?5?$CCneed?54?5by@ 00000001800c4400     UCF_Handler.obj
 0002:00014460       ??_C@_0GA@DKKPFLIN@kXMPErr_BadFileFormat?5?$CCinvalid?5h@ 00000001800c4460     UCF_Handler.obj
 0002:000144c0       ??_C@_0EG@DNJLGPIC@kXMPErr_BadFileFormat?5?$CCextra?5fie@ 00000001800c44c0     UCF_Handler.obj
 0002:00014510       ??_C@_0FM@DCIDHAIM@kXMPErr_BadFileFormat?5?$CCactual?5fi@ 00000001800c4510     UCF_Handler.obj
 0002:00014570       ??_C@_0FI@MOIAFDLN@kXMPErr_BadFileFormat?5?$CCinvalid?5h@ 00000001800c4570     UCF_Handler.obj
 0002:000145d0       ??_C@_0MG@OPANDPHN@XMP_Enforce?5failed?3?5?$CISIG?5?$DN?$DN?5GetU@ 00000001800c45d0     UCF_Handler.obj
 0002:00014698       ??_C@_04CLPBGDEI@PK?$AD?$AE?$AA@ 00000001800c4698     UCF_Handler.obj
 0002:000146a0       ??_C@_0LO@NDJNJLEA@XMP_Enforce?5failed?3?5?$CIthis?9?$DOSIG?5?$DN@ 00000001800c46a0     UCF_Handler.obj
 0002:00014760       ??_C@_0GP@BGFJMIKP@kXMPErr_BadFileFormat?5?$CCmimetype?5@ 00000001800c4760     UCF_Handler.obj
 0002:000147d0       ??_C@_08JPDINLFF@mimetype?$AA@ 00000001800c47d0     UCF_Handler.obj
 0002:000147e0       ??_C@_0BK@HBMIJLOE@application?1vnd?4adobe?4xfl?$AA@ 00000001800c47e0     UCF_Handler.obj
 0002:00014800       ??_C@_0DJ@FLBOAEKI@kXMPErr_BadFileFormat?5?$CC0?9byte?5mi@ 00000001800c4800     UCF_Handler.obj
 0002:00014840       ??_C@_0BN@CBODLECM@application?1vnd?4adobe?4x?9mars?$AA@ 00000001800c4840     UCF_Handler.obj
 0002:00014860       ??_C@_0BO@FGNAEKCG@application?1vnd?4adobe?4xfl?$CLzip?$AA@ 00000001800c4860     UCF_Handler.obj
 0002:00014880       ??_C@_0BB@MMFMMGPP@vnd?4adobe?4x?9asnd?$AA@ 00000001800c4880     UCF_Handler.obj
 0002:00014898       ??_C@_0BN@LKLKGCDI@application?1vnd?4adobe?4pdfxml?$AA@ 00000001800c4898     UCF_Handler.obj
 0002:000148b8       ??_C@_0CF@MOGPEJKF@application?1vnd?4adobe?4incopy?9pac@ 00000001800c48b8     UCF_Handler.obj
 0002:000148e0       ??_C@_0CM@CBMCIEDM@application?1vnd?4adobe?4indesign?9i@ 00000001800c48e0     UCF_Handler.obj
 0002:00014910       ??_C@_0BO@LCHJLNFB@application?1vnd?4adobe?4collage?$AA@ 00000001800c4910     UCF_Handler.obj
 0002:00014930       ??_C@_0CH@BFLONLPL@application?1vnd?4adobe?4indesign?9p@ 00000001800c4930     UCF_Handler.obj
 0002:00014958       ??_C@_0BM@IHNEKGMJ@application?1vnd?4adobe?4proto?$AA@ 00000001800c4958     UCF_Handler.obj
 0002:00014978       ??_C@_0BM@NPIKELBK@application?1vnd?4adobe?4ideas?$AA@ 00000001800c4978     UCF_Handler.obj
 0002:00014998       ??_C@_0CH@ODAOPHLB@zip?5broken?5near?5end?5or?5invalid?5c@ 00000001800c4998     UCF_Handler.obj
 0002:000149c0       ??_C@_0CF@KPBMCKPD@file?5too?5short?0?5can?8t?5be?5correct@ 00000001800c49c0     UCF_Handler.obj
 0002:000149e8       ??_C@_0BP@OJGKLJNF@UCF?5must?5be?5?8first?8?5zip?5volume?$AA@ 00000001800c49e8     UCF_Handler.obj
 0002:00014a08       ??_C@_0DB@IDLEBCDD@directory?5header?5id?5not?5found?4?5o@ 00000001800c4a08     UCF_Handler.obj
 0002:00014a40       ??_C@_0CL@DKBGHIBP@per?5volume?5and?5total?5number?5of?5d@ 00000001800c4a40     UCF_Handler.obj
 0002:00014a70       ??_C@_0BO@OCLIPINA@UCF?5must?5be?5single?9volume?5zip?$AA@ 00000001800c4a70     UCF_Handler.obj
 0002:00014a90       ??_C@_0EH@FNCKGHFJ@kXMPErr_BadFileFormat?5?$CCfile?5in?5t@ 00000001800c4a90     UCF_Handler.obj
 0002:00014ae0       ??_C@_0EO@MCCFPGOI@kXMPErr_BadFileFormat?5?$CCzip64?5CD?5@ 00000001800c4ae0     UCF_Handler.obj
 0002:00014b30       ??_C@_0GI@LDOPKENE@kXMPErr_BadFileFormat?5?$CCinvalid?5z@ 00000001800c4b30     UCF_Handler.obj
 0002:00014ba0       ??_C@_0GJ@BIDOIBNM@kXMPErr_BadFileFormat?5?$CCzip64?5tot@ 00000001800c4ba0     UCF_Handler.obj
 0002:00014c10       ??_C@_0FC@GAACPGD@kXMPErr_BadFileFormat?5?$CCnum?5of?5co@ 00000001800c4c10     UCF_Handler.obj
 0002:00014c70       ??_C@_0FC@KJKJGCKJ@kXMPErr_BadFileFormat?5?$CCnum?5of?5co@ 00000001800c4c70     UCF_Handler.obj
 0002:00014cc8       ??_C@_0BF@CDPMOLMG@?$CGinvalid?5file?5header?$AA@ 00000001800c4cc8     UCF_Handler.obj
 0002:00014ce0       ??_C@_0EB@HFFHPHP@kXMPErr_BadFileFormat?5?$CCCD?5length@ 00000001800c4ce0     UCF_Handler.obj
 0002:00014d30       ??_C@_0HF@DEEEOOKB@kXMPErr_BadFileFormat?5?$CCillegal?5c@ 00000001800c4d30     UCF_Handler.obj
 0002:00014db0       ??_C@_0IH@CNAKDMJE@kXMPErr_BadFileFormat?5?$CCcontent?5f@ 00000001800c4db0     UCF_Handler.obj
 0002:00014e40       ??_C@_0KK@MPGFIBAC@XMP_Enforce?5failed?3?5?$CIxmpFileHead@ 00000001800c4e40     UCF_Handler.obj
 0002:00014ef0       ??_C@_0EK@POBJLHF@kXMPErr_BadFileFormat?5?$CCfilename?5@ 00000001800c4ef0     UCF_Handler.obj
 0002:00014f40       ??_C@_0CC@GBMONFKM@data?5descriptor?5must?5mean?53x?5zer@ 00000001800c4f40     UCF_Handler.obj
 0002:00014f70       ??_C@_0JI@HMDENKEM@kXMPErr_BadFileFormat?5?$CCfilename?5@ 00000001800c4f70     UCF_Handler.obj
 0002:00015008       ??_C@_0BK@JGCJJJIN@compression?5contradiction?$AA@ 00000001800c5008     UCF_Handler.obj
 0002:00015028       ??_C@_0BM@MIFDGNKO@invalid?5content?5file?5header?$AA@ 00000001800c5028     UCF_Handler.obj
 0002:00015048       ??_C@_0CB@JEEGOIOG@contradicting?5compressed?5lengths@ 00000001800c5048     UCF_Handler.obj
 0002:00015070       ??_C@_0CD@DOMFGLPH@contradicting?5uncompressed?5lengt@ 00000001800c5070     UCF_Handler.obj
 0002:00015098       ??_C@_0M@LEKLDNK@zlib?5error?5?$AA@ 00000001800c5098     UCF_Handler.obj
 0002:000150a8       ??_C@_0BJ@HBMIOHGP@0?9byte?5uncompressed?5size?$AA@ 00000001800c50a8     UCF_Handler.obj
 0002:000150c8       ??_C@_0BJ@EIAPDDLB@zlib?5error?3?5Z_DATA_ERROR?$AA@ 00000001800c50c8     UCF_Handler.obj
 0002:000150e8       ??_C@_0BI@JOCNOOFL@zlib?5error?3?5Z_NEED_DICT?$AA@ 00000001800c50e8     UCF_Handler.obj
 0002:00015100       ??_C@_0MD@JIBJEMGD@XMP_Enforce?5failed?3?5?$CIfile?9?$DOReadA@ 00000001800c5100     UCF_Handler.obj
 0002:000151c8       ??_C@_0BI@FGJDELHK@zlib?5error?3?5Z_MEM_ERROR?$AA@ 00000001800c51c8     UCF_Handler.obj
 0002:000151e0       ??_C@_0DH@JFHNPAPD@UCF_MetaHandler?3?3UpdateFile?3?5Saf@ 00000001800c51e0     UCF_Handler.obj
 0002:00015220       ??_C@_0KB@COGFEIHP@XMP_Enforce?5failed?3?5?$CI?$CIx?$CB?$DN0?$CJ?5?$DN?$DN?5?$CI@ 00000001800c5220     UCF_Handler.obj
 0002:000152c8       ??_C@_0BI@KHKIJBDM@zlib?5stream?5incomplete?5?$AA@ 00000001800c52c8     UCF_Handler.obj
 0002:000152e0       ??_C@_0JK@FKIDDKMF@XMP_Enforce?5failed?3?5?$CIret?5?$CB?$DN?5?$CI?92?$CJ@ 00000001800c52e0     UCF_Handler.obj
 0002:00015380       ??_C@_0JC@LABMIAOB@XMP_Enforce?5failed?3?5?$CI?$CBz2?$CJ?5in?5E?3?2@ 00000001800c5380     UCF_Handler.obj
 0002:00015420       ??_C@_0KB@EPFOIFJA@XMP_Enforce?5failed?3?5?$CIstrm?4avail_@ 00000001800c5420     UCF_Handler.obj
 0002:000154c8       ??_C@_0DF@CDPFPEGF@kXMPErr_BadFileFormat?5?$CCno?5conten@ 00000001800c54c8     UCF_Handler.obj
 0002:00015500       ??_C@_0JJ@EJKJEMLP@XMP_Enforce?5failed?3?5?$CIh?$CLhl?5?$DN?$DN?5fl?$CJ@ 00000001800c5500     UCF_Handler.obj
 0002:000155a0       ??_C@_0KB@DJNEKLEG@XMP_Enforce?5failed?3?5?$CIcd2l?5?$DM?$DN?50xf@ 00000001800c55a0     UCF_Handler.obj
 0002:00015650       ??_C@_0EP@NGINPDKO@kXMPErr_BadFileFormat?5?$CCmax?5numbe@ 00000001800c5650     UCF_Handler.obj
 0002:000156a0       ??_C@_0DC@HMFCFCCB@UCF_MetaHandler?3?3WriteTempFile?3?5@ 00000001800c56a0     UCF_Handler.obj
 0002:000156e0       ??_C@_0EP@EFFOGOIC@kXMPErr_BadFileFormat?5?$CCFile?5is?5n@ 00000001800c56e0     WAVE_Handler.obj
 0002:00015730       ??_C@_0DE@BAAHJOD@WAVE_MetaHandler?3?3WriteTempFile?5@ 00000001800c5730     WAVE_Handler.obj
 0002:00015768       ??_C@_0DI@FGGDIIGF@WAVE_MetaHandler?3?3UpdateFile?3?5Sa@ 00000001800c5768     WAVE_Handler.obj
 0002:000157a8       ??_7WAVEBehavior@IFF_RIFF@@6B@ 00000001800c57a8     WAVE_Handler.obj
 0002:00015800       ??_7WAVEReconcile@IFF_RIFF@@6B@ 00000001800c5800     WAVE_Handler.obj
 0002:00015820       ??_7WAVE_MetaHandler@@6B@  00000001800c5820     WAVE_Handler.obj
 0002:00015880       ??_C@_03FOPKGKHA@SMI?$AA@  00000001800c5880     XDCAMEX_Handler.obj
 0002:00015884       ??_C@_04CDKEADEG@TAKR?$AA@ 00000001800c5884     XDCAMEX_Handler.obj
 0002:00015890       ??_C@_07BLMGCOEC@M01?4XML?$AA@ 00000001800c5890     XDCAMEX_Handler.obj
 0002:00015898       ??_C@_0CA@IDGNKGGF@No?5memory?5for?5XDCAMEX?5clip?5info?$AA@ 00000001800c5898     XDCAMEX_Handler.obj
 0002:000158b8       ??_C@_05MKHPAFKK@?4MP4$?$AA@ 00000001800c58b8     XDCAMEX_Handler.obj
 0002:000158c0       ??_C@_07PNLBHDBP@M01?4XMP?$AA@ 00000001800c58c0     XDCAMEX_Handler.obj
 0002:000158c8       ??_C@_0L@ICKANHEE@M?2d?2d?4XML$?$AA@ 00000001800c58c8     XDCAMEX_Handler.obj
 0002:000158d8       ??_C@_0L@JHJMINFA@M?2d?2d?4XMP$?$AA@ 00000001800c58d8     XDCAMEX_Handler.obj
 0002:000158e8       ??_C@_0L@BLFOJFAK@R?2d?2d?4BIM$?$AA@ 00000001800c58e8     XDCAMEX_Handler.obj
 0002:000158f8       ??_C@_0L@KDPOLECL@I?2d?2d?4PPN$?$AA@ 00000001800c58f8     XDCAMEX_Handler.obj
 0002:00015908       ??_C@_0N@OPHPNKDG@MEDIAPRO?4BUP?$AA@ 00000001800c5908     XDCAMEX_Handler.obj
 0002:00015918       ??_C@_05OLPFFIAI@?4SMI$?$AA@ 00000001800c5918     XDCAMEX_Handler.obj
 0002:00015920       ??_C@_09NCADJNKB@CUEUP?4BUP?$AA@ 00000001800c5920     XDCAMEX_Handler.obj
 0002:00015930       ??_C@_09BJOFIFMP@CUEUP?4XML?$AA@ 00000001800c5930     XDCAMEX_Handler.obj
 0002:00015940       ??_C@_0L@OHIOABDA@U?2d?2d?4SMI$?$AA@ 00000001800c5940     XDCAMEX_Handler.obj
 0002:0001594c       ??_C@_06JPBNJCJO@_?2d?2d$?$AA@ 00000001800c594c     XDCAMEX_Handler.obj
 0002:00015958       ??_C@_0BO@ILBCOHPP@XDCAMEX?5XMP?5file?5open?5failure?$AA@ 00000001800c5958     XDCAMEX_Handler.obj
 0002:00015978       ??_C@_0CP@LHKOALIG@XDCAMEX?5cannot?5be?5used?5with?5clie@ 00000001800c5978     XDCAMEX_Handler.obj
 0002:000159a8       ??_C@_0BA@BOCJMFIN@NonRealTimeMeta?$AA@ 00000001800c59a8     XDCAMEX_Handler.obj
 0002:000159b8       ??_C@_0CC@CLBEGHMM@XDCAMEX?5XMP?5is?5outrageously?5larg@ 00000001800c59b8     XDCAMEX_Handler.obj
 0002:000159e0       ??_C@_0N@OCFEBENO@MediaProfile?$AA@ 00000001800c59e0     XDCAMEX_Handler.obj
 0002:000159f0       ??_C@_08DEOOAPOB@Duration?$AA@ 00000001800c59f0     XDCAMEX_Handler.obj
 0002:00015a00       ??_C@_08CPBFELGP@Material?$AA@ 00000001800c5a00     XDCAMEX_Handler.obj
 0002:00015a10       ??_C@_08GBNJIMFP@Contents?$AA@ 00000001800c5a10     XDCAMEX_Handler.obj
 0002:00015a20       ??_C@_09JHOGCJFE@Component?$AA@ 00000001800c5a20     XDCAMEX_Handler.obj
 0002:00015a2c       ??_C@_03GBBABMJN@uri?$AA@  00000001800c5a2c     XDCAMEX_Handler.obj
 0002:00015a30       ??_C@_07CNEIIICD@XDCAMEX?$AA@ 00000001800c5a30     XDCAMEX_Handler.obj
 0002:00015a38       ??_C@_0DA@EHGKOJAJ@XDCAMEX_MetaHandler?3?5Can?8t?5creat@ 00000001800c5a38     XDCAMEX_Handler.obj
 0002:00015a68       ??_C@_0CB@MCIDFLBH@Failure?5opening?5XDCAMEX?5XMP?5file@ 00000001800c5a68     XDCAMEX_Handler.obj
 0002:00015a8c       ??_C@_04MHGNNDBE@?4SMI?$AA@ 00000001800c5a8c     XDCAMEX_Handler.obj
 0002:00015a98       ??_C@_0DI@OMLELOBF@XDCAMEX_MetaHandler?3?3WriteTempFi@ 00000001800c5a98     XDCAMEX_Handler.obj
 0002:00015ad0       ??_C@_0CI@HAHOMCCJ@Failure?5opening?5XDCAMEX?5legacy?5X@ 00000001800c5ad0     XDCAMEX_Handler.obj
 0002:00015b00       ??_7XDCAMEX_MetaHandler@@6B@ 00000001800c5b00     XDCAMEX_Handler.obj
 0002:00015b68       ??_7XDCAMFAM_MetaHandler@@6B@ 00000001800c5b68     XDCAMFAM_Handler.obj
 0002:00015be8       ??_C@_05EIDBELPO@LOCAL?$AA@ 00000001800c5be8     XDCAMFAM_Handler.obj
 0002:00015bf0       ??_C@_04CLNMEKKM@Take?$AA@ 00000001800c5bf0     XDCAMFAM_Handler.obj
 0002:00015bf8       ??_C@_0N@LNFMFMKB@DISCMETA?4XML?$AA@ 00000001800c5bf8     XDCAMFAM_Handler.obj
 0002:00015c08       ??_C@_09GHHFNHJH@INDEX?4XML?$AA@ 00000001800c5c08     XDCAMFAM_Handler.obj
 0002:00015c14       ??_C@_05IEALKJIG@Local?$AA@ 00000001800c5c14     XDCAMFAM_Handler.obj
 0002:00015c1c       ??_C@_04OHCFEDJA@?4mxf?$AA@ 00000001800c5c1c     XDCAMFAM_Handler.obj
 0002:00015c28       ??_C@_09FPNJHOOE@ALIAS?4XML?$AA@ 00000001800c5c28     XDCAMFAM_Handler.obj
 0002:00015c38       ??_C@_0BM@EAJMBGBE@Clip?5MXF?5file?5must?5be?5exist?$AA@ 00000001800c5c38     XDCAMFAM_Handler.obj
 0002:00015c54       ??_C@_03CPCCDDB@Sub?$AA@   00000001800c5c54     XDCAMFAM_Handler.obj
 0002:00015c58       ??_C@_08JNHPECBG@UserData?$AA@ 00000001800c5c58     XDCAMFAM_Handler.obj
 0002:00015c68       ??_C@_0CA@LCKOEODN@Clip?5NRT?5XML?5file?5must?5be?5exist?$AA@ 00000001800c5c68     XDCAMFAM_Handler.obj
 0002:00015c88       ??_C@_05FILOJBHL@?4MXF$?$AA@ 00000001800c5c88     XDCAMFAM_Handler.obj
 0002:00015c90       ??_C@_07PAEKLOGD@M01?4xmp?$AA@ 00000001800c5c90     XDCAMFAM_Handler.obj
 0002:00015c98       ??_C@_0L@LMHAACAA@S?2d?2d?4MXF$?$AA@ 00000001800c5c98     XDCAMFAM_Handler.obj
 0002:00015ca8       ??_C@_0L@MONHLNF@M?2d?2d?4KLV$?$AA@ 00000001800c5ca8     XDCAMFAM_Handler.obj
 0002:00015cb4       ??_C@_04BBNPPDNC@Edit?$AA@ 00000001800c5cb4     XDCAMFAM_Handler.obj
 0002:00015cc0       ??_C@_0L@KBMNAPLI@C?2d?2d?4SMI$?$AA@ 00000001800c5cc0     XDCAMFAM_Handler.obj
 0002:00015cd0       ??_C@_07ECEMPDJM@General?$AA@ 00000001800c5cd0     XDCAMFAM_Handler.obj
 0002:00015cd8       ??_C@_08PLAGFMEH@Planning?$AA@ 00000001800c5cd8     XDCAMFAM_Handler.obj
 0002:00015ce8       ??_C@_07NIIBHOBP@S01?4SMI?$AA@ 00000001800c5ce8     XDCAMFAM_Handler.obj
 0002:00015cf0       ??_C@_0BB@ICPPHDKP@PlanningMetadata?$AA@ 00000001800c5cf0     XDCAMFAM_Handler.obj
 0002:00015d04       ??_C@_04GAOAGNCM@?4xml?$AA@ 00000001800c5d04     XDCAMFAM_Handler.obj
 0002:00015d0c       ??_C@_04POIGMEJN@clip?$AA@ 00000001800c5d0c     XDCAMFAM_Handler.obj
 0002:00015d18       ??_C@_0O@NAIJNLDF@MaterialGroup?$AA@ 00000001800c5d18     XDCAMFAM_Handler.obj
 0002:00015d28       ??_C@_04MAKNGJCH@smil?$AA@ 00000001800c5d28     XDCAMFAM_Handler.obj
 0002:00015d30       ??_C@_07MLPKBPJL@umidRef?$AA@ 00000001800c5d30     XDCAMFAM_Handler.obj
 0002:00015d38       ??_C@_0P@FDLLOAPI@TargetMaterial?$AA@ 00000001800c5d38     XDCAMFAM_Handler.obj
 0002:00015d48       ??_C@_09KMJDMPPJ@INDEX?4BUP?$AA@ 00000001800c5d48     XDCAMSAM_Handler.obj
 0002:00015d58       ??_C@_0N@HHJBPNGM@DISCINFO?4XML?$AA@ 00000001800c5d58     XDCAMSAM_Handler.obj
 0002:00015d68       ??_C@_0L@MNCHKOEC@V?2d?2d?4MXF$?$AA@ 00000001800c5d68     XDCAMSAM_Handler.obj
 0002:00015d78       ??_C@_0N@LMHHOFAC@DISCINFO?4BUP?$AA@ 00000001800c5d78     XDCAMSAM_Handler.obj
 0002:00015d88       ??_C@_07KEDKEPDE@C01?4SMI?$AA@ 00000001800c5d88     XDCAMSAM_Handler.obj
 0002:00015d90       ??_C@_0L@EKOKHPAK@A?2d?2d?4MXF$?$AA@ 00000001800c5d90     XDCAMSAM_Handler.obj
 0002:00015da8       ??_7XDCAMSAM_MetaHandler@@6B@ 00000001800c5da8     XDCAMSAM_Handler.obj
 0002:00015e28       ??_C@_0CO@IIGOFNDD@XDCAM_MetaHandler?3?5Can?8t?5create?5@ 00000001800c5e28     XDCAM_Handler.obj
 0002:00015e58       ??_C@_03OBJIDKBM@par?$AA@  00000001800c5e58     XDCAM_Handler.obj
 0002:00015e5c       ??_C@_04IEJGKNJ@body?$AA@  00000001800c5e5c     XDCAM_Handler.obj
 0002:00015e64       ??_C@_03LOJEKLML@src?$AA@  00000001800c5e64     XDCAM_Handler.obj
 0002:00015e68       ??_C@_03GCDGINBO@ref?$AA@  00000001800c5e68     XDCAM_Handler.obj
 0002:00015e70       ??_C@_0BM@GHADFGEH@XDCAM?5XMP?5file?5open?5failure?$AA@ 00000001800c5e70     XDCAM_Handler.obj
 0002:00015e90       ??_C@_0CN@JIPKILA@XDCAM?5cannot?5be?5used?5with?5client@ 00000001800c5e90     XDCAM_Handler.obj
 0002:00015ec0       ??_C@_05LOLNALCD@XDCAM?$AA@ 00000001800c5ec0     XDCAM_Handler.obj
 0002:00015ec8       ??_C@_0CA@MNCLBINN@XDCAM?5XMP?5is?5outrageously?5large?$AA@ 00000001800c5ec8     XDCAM_Handler.obj
 0002:00015ee8       ??_C@_0BP@MGHPGKM@Failure?5opening?5XDCAM?5XML?5file?$AA@ 00000001800c5ee8     XDCAM_Handler.obj
 0002:00015f08       ??_C@_0BP@KMBJAABG@Failure?5opening?5XDCAM?5XMP?5file?$AA@ 00000001800c5f08     XDCAM_Handler.obj
 0002:00015f28       ??_C@_0DG@NMFHKHAP@XDCAM_MetaHandler?3?3WriteTempFile@ 00000001800c5f28     XDCAM_Handler.obj
 0002:00015f68       ??_7XDCAM_MetaHandler@@6B@ 00000001800c5f68     XDCAM_Handler.obj
 0002:00015ff0       ??_C@_0GI@LNENABP@kXMPErr_BadFileFormat?5?$CCAIFF?5file@ 00000001800c5ff0     AIFFBehavior.obj
 0002:00016058       ??_C@_0BD@CLCNBEIH@Unknown?5size?5value?$AA@ 00000001800c6058     AIFFBehavior.obj
 0002:00016070       ??_C@_0GE@JLJEPLDJ@kXMPErr_InternalFailure?5?$CCModifie@ 00000001800c6070     AIFFBehavior.obj
 0002:000160e0       ??_C@_0JI@ONOLPHFE@kXMPErr_BadFileFormat?5?$CCInvalid?5t@ 00000001800c60e0     AIFFBehavior.obj
 0002:00016180       ??_C@_0FB@LADMGKG@kXMPErr_InternalFailure?5?$CCCan?8t?5r@ 00000001800c6180     AIFFBehavior.obj
 0002:000161e0       ??_C@_0GL@GEDJKCGP@kXMPErr_InternalFailure?5?$CCInvalid@ 00000001800c61e0     AIFFBehavior.obj
 0002:00016250       ??_C@_0EO@CEIJMLLA@kXMPErr_InternalFailure?5?$CCInvalid@ 00000001800c6250     AIFFBehavior.obj
 0002:000162a0       ??_C@_0FM@JKPJDKCC@kXMPErr_InternalFailure?5?$CCCant?8?5r@ 00000001800c62a0     AIFFBehavior.obj
 0002:00016308       ??_7AIFFMetadata@IFF_RIFF@@6B@ 00000001800c6308     AIFFMetadata.obj
 0002:00016380       ??_7IChunkData@IFF_RIFF@@6B@ 00000001800c6380     Chunk.obj
 0002:00016418       ??_7Chunk@IFF_RIFF@@6BIChunkContainer@1@@ 00000001800c6418     Chunk.obj
 0002:00016460       ??_7IChunkContainer@IFF_RIFF@@6B@ 00000001800c6460     Chunk.obj
 0002:000164a8       ??_7Chunk@IFF_RIFF@@6BIChunkData@1@@ 00000001800c64a8     Chunk.obj
 0002:00016538       ??_C@_0BG@MOHBBLKH@Invalid?5data?5pointer?4?$AA@ 00000001800c6538     Chunk.obj
 0002:00016550       ??_C@_0CC@KFJBGDNG@A?5chunk?5node?5cannot?5contain?5data@ 00000001800c6550     Chunk.obj
 0002:00016574       ??_C@_01GPOEFGEJ@?7?$AA@   00000001800c6574     Chunk.obj
 0002:00016578       ??_C@_0DB@KBLODNMG@Chunk?3?3readChunk?3?5Must?5pass?5a?5va@ 00000001800c6578     Chunk.obj
 0002:000165b0       ??_C@_0BK@FKKMHAFN@Data?5access?5out?5of?5bounds?$AA@ 00000001800c65b0     Chunk.obj
 0002:000165d0       ??_C@_0DH@OJEJDFMA@?$CF?44s?5?9?9?5size?3?50x?$CF?48llX?0?5?5type?3?5?$CF@ 00000001800c65d0     Chunk.obj
 0002:00016608       ??_C@_0CL@MDLJPFKP@chunk?5already?5has?5either?5data?5or@ 00000001800c6608     Chunk.obj
 0002:00016638       ??_C@_0DC@DNPCJHLC@Chunk?3?3writeChunk?3?5Must?5pass?5a?5v@ 00000001800c6638     Chunk.obj
 0002:00016670       ??_C@_0CM@KBHMOKFP@readChunk?5must?5not?5be?5called?5mor@ 00000001800c6670     Chunk.obj
 0002:000166a0       ??_C@_0JH@POGEHDDB@XMP_Enforce?5failed?3?5?$CIfile?5?$CB?$DN?50?$CJ?5@ 00000001800c66a0     Chunk.obj
 0002:00016738       ??_C@_0CG@IDNNHANK@A?5chunk?5leaf?5cannot?5contain?5chil@ 00000001800c6738     Chunk.obj
 0002:00016760       ??_C@_0BM@PECJKEIH@Vector?5error?5in?5appendChild?$AA@ 00000001800c6760     Chunk.obj
 0002:00016780       ??_C@_0DJ@IOJOIIMK@A?5chunk?5with?5mode?5unknown?5must?5n@ 00000001800c6780     Chunk.obj
 0002:000167c0       ??_C@_0BO@CIMPEJP@Non?9existing?5child?5requested?4?$AA@ 00000001800c67c0     Chunk.obj
 0002:000167e0       ??_C@_0BB@EPILECCF@Index?5not?5valid?4?$AA@ 00000001800c67e0     Chunk.obj
 0002:00016800       ??_C@_0EM@EPLNKGDD@kXMPErr_InternalFailure?5?$CCERROR?5i@ 00000001800c6800     ChunkController.obj
 0002:00016850       ??_C@_0P@PNMBLGPP@Bad?5RIFF?5chunk?$AA@ 00000001800c6850     ChunkController.obj
 0002:00016860       ??_C@_0GO@FPDDDHH@kXMPErr_AssertFailure?5?$CCExceeded?5@ 00000001800c6860     ChunkController.obj
 0002:000168d0       ??_C@_0BE@HNBOOAIJ@Bad?5RIFF?5chunk?5size?$AA@ 00000001800c68d0     ChunkController.obj
 0002:000168f0       ??_C@_0IB@PGEHAFBD@kXMPErr_InternalFailure?5?$CCERROR?3?5@ 00000001800c68f0     ChunkController.obj
 0002:00016980       ??_C@_0EM@BGKHDKDC@kXMPErr_InternalFailure?5?$CCERROR?5i@ 00000001800c6980     ChunkController.obj
 0002:000169d0       ??_C@_0GG@MDKHPNBC@kXMPErr_InternalFailure?5?$CCThere?5s@ 00000001800c69d0     IChunkBehavior.obj
 0002:00016a40       ??_C@_0HJ@LFJMKCHN@kXMPErr_InternalFailure?5?$CCMovable@ 00000001800c6a40     IChunkBehavior.obj
 0002:00016ac0       ??_C@_0GB@LHFBPFCJ@kXMPErr_InternalFailure?5?$CCSource?5@ 00000001800c6ac0     IChunkBehavior.obj
 0002:00016b30       ??_C@_0GO@IMPCOBCN@kXMPErr_InternalFailure?5?$CCInvalid@ 00000001800c6b30     IChunkBehavior.obj
 0002:00016ba0       ??_C@_0EE@DEGPAJMM@kXMPErr_InternalFailure?5?$CCInvalid@ 00000001800c6ba0     IChunkBehavior.obj
 0002:00016bf0       ??_C@_0EJ@PFHCFLPB@kXMPErr_Unimplemented?5?$CCNot?5enoug@ 00000001800c6bf0     IChunkBehavior.obj
 0002:00016c40       ??_C@_0EH@MLLLCCBM@kXMPErr_InternalFailure?5?$CCInvalid@ 00000001800c6c40     IChunkBehavior.obj
 0002:00016c90       ??_C@_0GI@CONBHKA@kXMPErr_InternalFailure?5?$CCSource?5@ 00000001800c6c90     IChunkBehavior.obj
 0002:00016cf8       ??_C@_0BH@DLAEKBF@Not?5a?5valid?5BEXT?5chunk?$AA@ 00000001800c6cf8     BEXTMetadata.obj
 0002:00016d10       ??_C@_0P@OJCMKJBF@Invalid?5buffer?$AA@ 00000001800c6d10     BEXTMetadata.obj
 0002:00016d28       ??_7?$TArrayObject@E@@6B@  00000001800c6d28     BEXTMetadata.obj
 0002:00016d38       ??_7BEXTMetadata@IFF_RIFF@@6B@ 00000001800c6d38     BEXTMetadata.obj
